_ZN2nn6crypto16DecryptAes128CbcEPvmPKvmS3_mS3_m = 0x000001b0;
_ZN2nn6crypto16EncryptAes128CbcEPvmPKvmS3_mS3_m = 0x000002bc;
_ZN2nn6crypto16DecryptAes128CcmEPvmS1_mPKvmS3_mS3_mS3_mm = 0x000003d4;
_ZN2nn6crypto6detail11CcmModeImplINS0_12AesEncryptorILm16EEEE10InitializeEPKS4_PKvmllm = 0x000005a8;
_ZN2nn6crypto6detail11CtrModeImplINS0_12AesEncryptorILm16EEEE16IncrementCounterEv = 0x00000804;
_ZN2nn6crypto6detail10CbcMacImplINS0_12AesEncryptorILm16EEEE6UpdateEPKvm = 0x00000940;
_ZN2nn6crypto6detail10CbcMacImplINS0_12AesEncryptorILm16EEEE12ProcessBlockEPKv = 0x00000c50;
_ZN2nn6crypto6detail11CtrModeImplINS0_12AesEncryptorILm16EEEE6UpdateEPvmPKvm = 0x00000d84;
_ZN2nn6crypto6detail11CcmModeImplINS0_12AesEncryptorILm16EEEE11GenerateMacEv = 0x000010d8;
_ZN2nn6crypto16EncryptAes128CcmEPvmS1_mPKvmS3_mS3_mS3_mm = 0x0000123c;
_ZN2nn6crypto16DecryptAes128CtrEPvmPKvmS3_mS3_m = 0x00001410;
_ZN2nn6crypto16EncryptAes128CtrEPvmPKvmS3_mS3_m = 0x000014c4;
_ZN2nn6crypto11IsSameBytesEPKvS2_m = 0x00001578;
_ZN2nn6crypto19GenerateHmacSha1MacEPvmPKvmS3_m = 0x0000157c;
_ZN2nn6crypto6detail8HmacImplINS0_13Sha1GeneratorEE10InitializeEPKvm = 0x000015f4;
_ZN2nn6crypto6detail8HmacImplINS0_13Sha1GeneratorEE6GetMacEPvm = 0x00001740;
_ZN2nn6crypto21GenerateHmacSha256MacEPvmPKvmS3_m = 0x00001888;
_ZN2nn6crypto6detail8HmacImplINS0_15Sha256GeneratorEE10InitializeEPKvm = 0x00001900;
_ZN2nn6crypto6detail8HmacImplINS0_15Sha256GeneratorEE6GetMacEPvm = 0x00001a4c;
_ZN2nn6crypto16GenerateSha1HashEPvmPKvm = 0x00001b90;
_ZN2nn6crypto18GenerateSha256HashEPvmPKvm = 0x00001bf4;
_ZN2nn6crypto15GenerateMd5HashEPvmPKvm = 0x00001c58;
_ZN2nn6crypto6detail6BigNumC2Ev = 0x00001cbc;
_ZN2nn6crypto6detail6BigNumC1Ev = 0x00001cbc;
_ZN2nn6crypto6detail6BigNum3SetEPKvm = 0x00001cc8;
_ZNK2nn6crypto6detail6BigNum3GetEPvm = 0x00001d38;
_ZNK2nn6crypto6detail6BigNum7GetSizeEv = 0x00001d4c;
_ZN2nn6crypto6detail6BigNum13ReserveStaticEPji = 0x00001da0;
_ZNK2nn6crypto6detail6BigNum6ModExpEPvPKvRKS2_m = 0x00001db0;
_ZN2nn6crypto6detail6BigNumD1Ev = 0x00001e90;
_ZN2nn6crypto6detail6BigNumD2Ev = 0x00001e90;
_ZN2nn6crypto6detail6BigNum7CleanseEv = 0x00001e94;
_ZN2nn6crypto6detail17bigint_digit_multEPjjj = 0x00001ea4;
_ZN2nn6crypto6detail11bigint_copyEPjPKji = 0x00001eb4;
_ZN2nn6crypto6detail11bigint_zeroEPji = 0x00001f14;
_ZN2nn6crypto6detail13bigint_digitsEPKji = 0x00001f3c;
_ZN2nn6crypto6detail11bigint_multEPjPKjS4_i = 0x00001f60;
_ZN2nn6crypto6detail10bigint_cmpEPKjS3_i = 0x0000206c;
_ZN2nn6crypto6detail10bigint_divEPjS2_PKjiS4_i = 0x000020bc;
_ZN2nn6crypto6detail10bigint_modEPjPKjiS4_i = 0x00002680;
_ZN2nn6crypto6detail15bigint_mod_multEPjPKjS4_S4_i = 0x000026d0;
_ZN2nn6crypto6detail14bigint_mod_expEPjPKjS4_iS4_i = 0x00002810;
_ZN2nn6crypto6detail13bigint_iszeroEPKji = 0x00002af0;
_ZN2nn6crypto6detail14bigint_mod_invEPjPKjS4_i = 0x00002b2c;
_ZN2nn6crypto6detail14bigint_add_modEPjPKjS4_S4_i = 0x00002de0;
_ZN2nn6crypto6detail14bigint_sub_modEPjPKjS4_S4_i = 0x00002e70;
_ZN2nn6crypto6detail21OctetStringFromDigitsEPvmPKjm = 0x00002f28;
_ZN2nn6crypto6detail21DigitsFromOctetStringEPjmPKvm = 0x00002f98;
_ZNK2nn6crypto6detail10EccP256Key8SignHashEPvmPKvmS5_m = 0x00003028;
_ZNK2nn6crypto6detail10EccP256Key10VerifyHashEPKvmS4_m = 0x000030d4;
_ZNK2nn6crypto6detail10EccP256Key20GenerateSharedSecretEPvmRKS2_ = 0x00003164;
_ZN2nn6crypto6detail28alg_p256_generate_public_keyEPNS1_10p256_pointEPNS1_10p256_curveEPjS3_ = 0x000031cc;
_ZN2nn6crypto6detail28alg_p256_generate_shared_keyEPjPKNS1_10p256_pointEPKNS1_10p256_curveES5_PKj = 0x00003224;
_ZN2nn6crypto6detail29alg_p256_generate_private_keyEPKjiPKNS1_17p256_ec_parameterEPj = 0x000032a4;
_ZN2nn6crypto6detail26loc_p256_key_gen_primitiveEPNS1_15p256_ec_keypairEPKNS1_17p256_ec_parameterEPKji = 0x00003380;
_ZN2nn6crypto6detail32alg_p256_generate_shared_key_preEPNS1_10p256_pointEPNS1_10p256_curveES3_PjS6_ = 0x000033d4;
_ZN2nn6crypto6detail19alg_init_p256_ECDSAEPNS1_17p256_ec_parameterE = 0x00003454;
_ZN2nn6crypto6detail19alg_p256_ECDSA_signEPNS1_17p256_ec_signatureEPKvmPKNS1_17p256_ec_parameterEPKjSA_m = 0x00003464;
_ZN2nn6crypto6detail21alg_p256_ECDSA_verifyEPKNS1_17p256_ec_signatureEPKvmPKNS1_17p256_ec_parameterEPKNS1_10p256_pointE = 0x00003658;
_ZN2nn6crypto6detail8p256_addEPNS1_10p256_pointEPKS2_S5_PKNS1_10p256_curveE = 0x000038c4;
_ZN2nn6crypto6detail8p256_mulEPNS1_10p256_pointEPKjiPKS2_PKNS1_10p256_curveE = 0x00003e94;
_ZN2nn6crypto6detail13p256_validateEPKNS1_10p256_pointEPKNS1_10p256_curveE = 0x00003fd8;
_ZN2nn6crypto6detail7Md5Impl10InitializeEv = 0x00004100;
_ZN2nn6crypto6detail7Md5Impl6UpdateEPKvm = 0x00004138;
_ZN2nn6crypto6detail7Md5Impl12ProcessBlockEv = 0x00004224;
_ZN2nn6crypto6detail7Md5Impl7GetHashEPvm = 0x00004564;
_ZN2nn6crypto6detail7Md5Impl16ProcessLastBlockEv = 0x000045b0;
_ZN2nn6crypto6detail11IsSameBytesEPKvS3_m = 0x00005054;
_ZN2nn6crypto6detail7AesImplILm16EE10InitializeEPKvmb = 0x00005094;
_ZN2nn6crypto6detail7AesImplILm24EE10InitializeEPKvmb = 0x00005268;
_ZNK2nn6crypto6detail7AesImplILm24EE12EncryptBlockEPvmPKvm = 0x00005450;
_ZNK2nn6crypto6detail7AesImplILm24EE12DecryptBlockEPvmPKvm = 0x000054d8;
_ZN2nn6crypto6detail7AesImplILm32EE10InitializeEPKvmb = 0x00005560;
_ZNK2nn6crypto6detail7AesImplILm32EE12EncryptBlockEPvmPKvm = 0x0000575c;
_ZNK2nn6crypto6detail7AesImplILm32EE12DecryptBlockEPvmPKvm = 0x000057f8;
_ZNK2nn6crypto6detail7AesImplILm16EE12EncryptBlockEPvmPKvm = 0x00005894;
_ZNK2nn6crypto6detail7AesImplILm16EE12DecryptBlockEPvmPKvm = 0x0000591c;
_ZN2nn6crypto6detail19CbcModeAes128Helper13EncryptBlocksEPvS3_PKviPKNS0_12AesEncryptorILm16EEE = 0x000059a4;
_ZN2nn6crypto6detail19CbcModeAes128Helper13DecryptBlocksEPvS3_PKviPKNS0_12AesDecryptorILm16EEE = 0x00005a3c;
_ZN2nn6crypto6detail11CtrModeImplINS0_12AesEncryptorILm16EEEE21ProcessBlocksUnrolledEPvPKvm = 0x00005c20;
_ZN2nn6crypto6detail8Sha1Impl10InitializeEv = 0x00005e34;
_ZN2nn6crypto6detail8Sha1Impl6UpdateEPKvm = 0x00005e74;
_ZN2nn6crypto6detail8Sha1Impl12ProcessBlockEPKv = 0x00006318;
_ZN2nn6crypto6detail8Sha1Impl7GetHashEPvm = 0x00006580;
_ZN2nn6crypto6detail8Sha1Impl16ProcessLastBlockEv = 0x0000665c;
_ZN2nn6crypto6detail10Sha256Impl10InitializeEv = 0x00006b2c;
_ZN2nn6crypto6detail10Sha256Impl6UpdateEPKvm = 0x00006b84;
_ZN2nn6crypto6detail10Sha256Impl13ProcessBlocksEPKhm = 0x00006ff0;
_ZN2nn6crypto6detail10Sha256Impl7GetHashEPvm = 0x000071c4;
_ZN2nn6crypto6detail10Sha256Impl16ProcessLastBlockEv = 0x00007704;
_ZN2nn6crypto6detail10Sha256Impl21InitializeWithContextEPKNS0_13Sha256ContextE = 0x00007b24;
_ZNK2nn6crypto6detail10Sha256Impl10GetContextEPNS0_13Sha256ContextE = 0x00007b58;
_ZN2nn6crypto6detail11XtsModeImplINS1_20XtsModeGenericHelperEEC1Ev = 0x00007b88;
_ZN2nn6crypto6detail11XtsModeImplINS1_20XtsModeGenericHelperEEC2Ev = 0x00007b88;
_ZN2nn6crypto6detail11XtsModeImplINS1_20XtsModeGenericHelperEE6UpdateEPvmPKvm = 0x00007b90;
_ZN2nn6crypto6detail11XtsModeImplINS1_20XtsModeGenericHelperEE8FinalizeEPvm = 0x00007c6c;
_ZN2nn6crypto6detail11XtsModeImplINS1_19XtsModeAes128HelperEEC1Ev = 0x00007ca0;
_ZN2nn6crypto6detail11XtsModeImplINS1_19XtsModeAes128HelperEEC2Ev = 0x00007ca0;
_ZN2nn6crypto6detail11XtsModeImplINS1_19XtsModeAes128HelperEE6UpdateEPvmPKvm = 0x00007ca8;
_ZN2nn6crypto6detail19XtsModeAes128Helper15ProcessUnrolledE12__Uint8x16_tRPhRPKhRiPKvb = 0x00007db0;
_ZN2nn6crypto6detail11XtsModeImplINS1_19XtsModeAes128HelperEE8FinalizeEPvm = 0x0000818c;
_ZN2nn6crypto6detail11GcmModeImplINS1_20GcmModeGenericHelperEEC2Ev = 0x000081c0;
_ZN2nn6crypto6detail11GcmModeImplINS1_20GcmModeGenericHelperEEC1Ev = 0x000081c0;
_ZN2nn6crypto6detail11GcmModeImplINS1_20GcmModeGenericHelperEED2Ev = 0x000081c8;
_ZN2nn6crypto6detail11GcmModeImplINS1_20GcmModeGenericHelperEED1Ev = 0x000081c8;
_ZN2nn6crypto6detail11GcmModeImplINS1_20GcmModeGenericHelperEE5ResetEPKvm = 0x000081d4;
_ZN2nn6crypto6detail11GcmModeImplINS1_20GcmModeGenericHelperEE8Block1284ZeroEv = 0x000082d0;
_ZN2nn6crypto6detail11GcmModeImplINS1_20GcmModeGenericHelperEE9UpdateAadEPKvm = 0x000082d8;
_ZN2nn6crypto6detail11GcmModeImplINS1_20GcmModeGenericHelperEE10ComputeMacEb = 0x00008608;
_ZN2nn6crypto6detail11GcmModeImplINS1_20GcmModeGenericHelperEE13EncryptUpdateEPvmPKvm = 0x00008754;
_ZN2nn6crypto6detail11GcmModeImplINS1_20GcmModeGenericHelperEE13DecryptUpdateEPvmPKvm = 0x00008a10;
_ZN2nn6crypto6detail11GcmModeImplINS1_20GcmModeGenericHelperEE6GetMacEPvm = 0x00008cc8;
_ZN2nn6crypto6detail11GcmModeImplINS1_20GcmModeGenericHelperEE17InitializeHashKeyEv = 0x00008da4;
_ZN2nn6crypto6detail11GcmModeImplINS1_20GcmModeGenericHelperEE7GfMultHEPNS4_5BlockE = 0x00008e1c;
_ZN2nn6crypto6detail11GcmModeImplINS1_19GcmModeAes128HelperEEC2Ev = 0x00008e20;
_ZN2nn6crypto6detail11GcmModeImplINS1_19GcmModeAes128HelperEEC1Ev = 0x00008e20;
_ZN2nn6crypto6detail11GcmModeImplINS1_19GcmModeAes128HelperEED1Ev = 0x00008e28;
_ZN2nn6crypto6detail11GcmModeImplINS1_19GcmModeAes128HelperEED2Ev = 0x00008e28;
_ZN2nn6crypto6detail11GcmModeImplINS1_19GcmModeAes128HelperEE5ResetEPKvm = 0x00008e34;
_ZN2nn6crypto6detail11GcmModeImplINS1_19GcmModeAes128HelperEE8Block1284ZeroEv = 0x00008f30;
_ZN2nn6crypto6detail11GcmModeImplINS1_19GcmModeAes128HelperEE9UpdateAadEPKvm = 0x00008f38;
_ZN2nn6crypto6detail11GcmModeImplINS1_19GcmModeAes128HelperEE10ComputeMacEb = 0x00009268;
_ZN2nn6crypto6detail11GcmModeImplINS1_19GcmModeAes128HelperEE13EncryptUpdateEPvmPKvm = 0x00009308;
_ZN2nn6crypto6detail19GcmModeAes128Helper7EncryptE12__Uint8x16_tPNS1_11GcmModeImplIS2_EE = 0x00009838;
_ZN2nn6crypto6detail11GcmModeImplINS1_19GcmModeAes128HelperEE13DecryptUpdateEPvmPKvm = 0x000098bc;
_ZN2nn6crypto6detail11GcmModeImplINS1_19GcmModeAes128HelperEE6GetMacEPvm = 0x00009e2c;
_ZN2nn6crypto6detail11GcmModeImplINS1_19GcmModeAes128HelperEE17InitializeHashKeyEv = 0x00009ef8;
_ZN2nn6crypto6detail11GcmModeImplINS1_19GcmModeAes128HelperEE7GfMultHEPNS4_5BlockE = 0x00009f5c;
_ZN2nn4cstd5IsNanEe = 0x00009f60;
_ZN2nn4cstd5IsNanEd = 0x00009f7c;
_ZN2nn4cstd5IsNanEf = 0x00009f94;
_ZN2nn4cstd5IsInfEe = 0x00009fac;
_ZN2nn4cstd5IsInfEd = 0x00009fc8;
_ZN2nn4cstd5IsInfEf = 0x00009fe0;
_ZN2nn5image6detail4jpeg19jpeg_CreateCompressEPNS2_20jpeg_compress_structEim = 0x00009ff8;
_ZN2nn5image6detail4jpeg21jpeg_destroy_compressEPNS2_20jpeg_compress_structE = 0x0000a124;
_ZN2nn5image6detail4jpeg19jpeg_abort_compressEPNS2_20jpeg_compress_structE = 0x0000a128;
_ZN2nn5image6detail4jpeg20jpeg_suppress_tablesEPNS2_20jpeg_compress_structEb = 0x0000a12c;
_ZN2nn5image6detail4jpeg20jpeg_finish_compressEPNS2_20jpeg_compress_structE = 0x0000a1c4;
_ZN2nn5image6detail4jpeg17jpeg_write_markerEPNS2_20jpeg_compress_structEiPKhj = 0x0000a334;
_ZN2nn5image6detail4jpeg19jpeg_write_m_headerEPNS2_20jpeg_compress_structEij = 0x0000a3dc;
_ZN2nn5image6detail4jpeg17jpeg_write_m_byteEPNS2_20jpeg_compress_structEi = 0x0000a45c;
_ZN2nn5image6detail4jpeg17jpeg_write_tablesEPNS2_20jpeg_compress_structE = 0x0000a468;
_ZN2nn5image6detail4jpeg19jpeg_start_compressEPNS2_20jpeg_compress_structEb = 0x0000a4fc;
_ZN2nn5image6detail4jpeg20jpeg_write_scanlinesEPNS2_20jpeg_compress_structEPPhi = 0x0000a5b0;
_ZN2nn5image6detail4jpeg19jpeg_write_raw_dataEPNS2_20jpeg_compress_structEPPPhi = 0x0000a6c4;
_ZN2nn5image6detail4jpeg19jinit_arith_encoderEPNS2_20jpeg_compress_structE = 0x0000a7f0;
_ZN2nn5image6detail4jpeg23jinit_c_coef_controllerEPNS2_20jpeg_compress_structEb = 0x0000c1c0;
_ZN2nn5image6detail4jpeg21jinit_color_converterEPNS2_20jpeg_compress_structE = 0x0000ccb0;
_ZN2nn5image6detail4jpeg17jinit_forward_dctEPNS2_20jpeg_compress_structE = 0x0000d4e4;
_ZN2nn5image6detail4jpeg18jinit_huff_encoderEPNS2_20jpeg_compress_structE = 0x0000d8b0;
_ZN2nn5image6detail4jpeg21jinit_compress_masterEPNS2_20jpeg_compress_structE = 0x00012d5c;
_ZN2nn5image6detail4jpeg23jinit_c_main_controllerEPNS2_20jpeg_compress_structEb = 0x00012e20;
_ZN2nn5image6detail4jpeg19jinit_marker_writerEPNS2_20jpeg_compress_structE = 0x00013048;
_ZN2nn5image6detail4jpeg25jpeg_calc_jpeg_dimensionsEPNS2_20jpeg_compress_structE = 0x000158b4;
_ZN2nn5image6detail4jpeg22jinit_c_master_controlEPNS2_20jpeg_compress_structEb = 0x000158d0;
_ZN2nn5image6detail4jpeg10jpeg_abortEPNS2_18jpeg_common_structE = 0x00016490;
_ZN2nn5image6detail4jpeg12jpeg_destroyEPNS2_18jpeg_common_structE = 0x000164e4;
_ZN2nn5image6detail4jpeg22jpeg_alloc_quant_tableEPNS2_18jpeg_common_structE = 0x0001651c;
_ZN2nn5image6detail4jpeg21jpeg_alloc_huff_tableEPNS2_18jpeg_common_structE = 0x00016544;
_ZN2nn5image6detail4jpeg20jpeg_add_quant_tableEPNS2_20jpeg_compress_structEiPKjib = 0x0001656c;
_ZN2nn5image6detail4jpeg20jpeg_default_qtablesEPNS2_20jpeg_compress_structEb = 0x000166dc;
_ZN2nn5image6detail4jpeg23jpeg_set_linear_qualityEPNS2_20jpeg_compress_structEib = 0x0001695c;
_ZN2nn5image6detail4jpeg20jpeg_quality_scalingEi = 0x00016bc4;
_ZN2nn5image6detail4jpeg16jpeg_set_qualityEPNS2_20jpeg_compress_structEib = 0x00016bfc;
_ZN2nn5image6detail4jpeg17jpeg_set_defaultsEPNS2_20jpeg_compress_structE = 0x00016c3c;
_ZN2nn5image6detail4jpeg23jpeg_default_colorspaceEPNS2_20jpeg_compress_structE = 0x00016e2c;
_ZN2nn5image6detail4jpeg19jpeg_set_colorspaceEPNS2_20jpeg_compress_structENS2_13J_COLOR_SPACEE = 0x0001717c;
_ZN2nn5image6detail4jpeg23jinit_c_prep_controllerEPNS2_20jpeg_compress_structEb = 0x00017564;
_ZN2nn5image6detail4jpeg17jinit_downsamplerEPNS2_20jpeg_compress_structE = 0x00017e44;
_ZN2nn5image6detail4jpeg21jpeg_CreateDecompressEPNS2_22jpeg_decompress_structEim = 0x00018e1c;
_ZN2nn5image6detail4jpeg23jpeg_destroy_decompressEPNS2_22jpeg_decompress_structE = 0x00018f24;
_ZN2nn5image6detail4jpeg21jpeg_abort_decompressEPNS2_22jpeg_decompress_structE = 0x00018f28;
_ZN2nn5image6detail4jpeg16jpeg_read_headerEPNS2_22jpeg_decompress_structEb = 0x00018f2c;
_ZN2nn5image6detail4jpeg18jpeg_consume_inputEPNS2_22jpeg_decompress_structE = 0x00018fd0;
_ZN2nn5image6detail4jpeg19jpeg_input_completeEPNS2_22jpeg_decompress_structE = 0x0001924c;
_ZN2nn5image6detail4jpeg23jpeg_has_multiple_scansEPNS2_22jpeg_decompress_structE = 0x000192a8;
_ZN2nn5image6detail4jpeg22jpeg_finish_decompressEPNS2_22jpeg_decompress_structE = 0x00019304;
_ZN2nn5image6detail4jpeg21jpeg_start_decompressEPNS2_22jpeg_decompress_structE = 0x000193f4;
_ZN2nn5image6detail4jpeg19jpeg_read_scanlinesEPNS2_22jpeg_decompress_structEPPhi = 0x00019588;
_ZN2nn5image6detail4jpeg18jpeg_read_raw_dataEPNS2_22jpeg_decompress_structEPPPhi = 0x00019678;
_ZN2nn5image6detail4jpeg17jpeg_start_outputEPNS2_22jpeg_decompress_structEi = 0x00019790;
_ZN2nn5image6detail4jpeg18jpeg_finish_outputEPNS2_22jpeg_decompress_structE = 0x00019888;
_ZN2nn5image6detail4jpeg19jinit_arith_decoderEPNS2_22jpeg_decompress_structE = 0x00019944;
_ZN2nn5image6detail4jpeg12jpeg_mem_srcEPNS2_22jpeg_decompress_structEPhm = 0x0001ab80;
_ZN2nn5image6detail4jpeg23jinit_d_coef_controllerEPNS2_22jpeg_decompress_structEb = 0x0001ad00;
_ZN2nn5image6detail4jpeg23jinit_color_deconverterEPNS2_22jpeg_decompress_structE = 0x0001b578;
_ZN2nn5image6detail4jpeg17jinit_inverse_dctEPNS2_22jpeg_decompress_structE = 0x0001bcd8;
_ZN2nn5image6detail4jpeg18jinit_huff_decoderEPNS2_22jpeg_decompress_structE = 0x0001c2d8;
_ZN2nn5image6detail4jpeg27jpeg_core_output_dimensionsEPNS2_22jpeg_decompress_structE = 0x0001e38c;
_ZN2nn5image6detail4jpeg22jinit_input_controllerEPNS2_22jpeg_decompress_structE = 0x0001e6b0;
_ZN2nn5image6detail4jpeg23jinit_d_main_controllerEPNS2_22jpeg_decompress_structEb = 0x0001efc4;
_ZN2nn5image6detail4jpeg22jpeg_resync_to_restartEPNS2_22jpeg_decompress_structEi = 0x0001f888;
_ZN2nn5image6detail4jpeg19jinit_marker_readerEPNS2_22jpeg_decompress_structE = 0x0001fb70;
_ZN2nn5image6detail4jpeg17jpeg_save_markersEPNS2_22jpeg_decompress_structEij = 0x000210b0;
_ZN2nn5image6detail4jpeg25jpeg_set_marker_processorEPNS2_22jpeg_decompress_structEiPFbS4_E = 0x000214c0;
_ZN2nn5image6detail4jpeg27jpeg_calc_output_dimensionsEPNS2_22jpeg_decompress_structE = 0x00021b38;
_ZN2nn5image6detail4jpeg17jpeg_new_colormapEPNS2_22jpeg_decompress_structE = 0x00021e5c;
_ZN2nn5image6detail4jpeg23jinit_master_decompressEPNS2_22jpeg_decompress_structE = 0x00021f04;
_ZN2nn5image6detail4jpeg22jinit_merged_upsamplerEPNS2_22jpeg_decompress_structE = 0x00022464;
_ZN2nn5image6detail4jpeg23jinit_d_post_controllerEPNS2_22jpeg_decompress_structEb = 0x00022a78;
_ZN2nn5image6detail4jpeg15jinit_upsamplerEPNS2_22jpeg_decompress_structE = 0x00022c4c;
_ZN2nn5image6detail4jpeg14jpeg_std_errorEPNS2_14jpeg_error_mgrE = 0x00023404;
_ZN2nn5image6detail4jpeg15jpeg_fdct_ifastEPiPPhi = 0x00023508;
_ZN2nn5image6detail4jpeg15jpeg_fdct_islowEPiPPhi = 0x000236f4;
_ZN2nn5image6detail4jpeg15jpeg_idct_ifastEPNS2_22jpeg_decompress_structEPNS2_19jpeg_component_infoEPsPPhi = 0x00023974;
_ZN2nn5image6detail4jpeg15jpeg_idct_islowEPNS2_22jpeg_decompress_structEPNS2_19jpeg_component_infoEPsPPhi = 0x00023cf4;
_ZN2nn5image6detail4jpeg13jpeg_idct_7x7EPNS2_22jpeg_decompress_structEPNS2_19jpeg_component_infoEPsPPhi = 0x000240e4;
_ZN2nn5image6detail4jpeg13jpeg_idct_6x6EPNS2_22jpeg_decompress_structEPNS2_19jpeg_component_infoEPsPPhi = 0x000243cc;
_ZN2nn5image6detail4jpeg13jpeg_idct_5x5EPNS2_22jpeg_decompress_structEPNS2_19jpeg_component_infoEPsPPhi = 0x000245c4;
_ZN2nn5image6detail4jpeg13jpeg_idct_4x4EPNS2_22jpeg_decompress_structEPNS2_19jpeg_component_infoEPsPPhi = 0x00024778;
_ZN2nn5image6detail4jpeg13jpeg_idct_3x3EPNS2_22jpeg_decompress_structEPNS2_19jpeg_component_infoEPsPPhi = 0x00024a20;
_ZN2nn5image6detail4jpeg13jpeg_idct_2x2EPNS2_22jpeg_decompress_structEPNS2_19jpeg_component_infoEPsPPhi = 0x00024c40;
_ZN2nn5image6detail4jpeg13jpeg_idct_1x1EPNS2_22jpeg_decompress_structEPNS2_19jpeg_component_infoEPsPPhi = 0x00024ce0;
_ZN2nn5image6detail4jpeg13jpeg_idct_9x9EPNS2_22jpeg_decompress_structEPNS2_19jpeg_component_infoEPsPPhi = 0x00024d10;
_ZN2nn5image6detail4jpeg15jpeg_idct_10x10EPNS2_22jpeg_decompress_structEPNS2_19jpeg_component_infoEPsPPhi = 0x0002505c;
_ZN2nn5image6detail4jpeg15jpeg_idct_11x11EPNS2_22jpeg_decompress_structEPNS2_19jpeg_component_infoEPsPPhi = 0x000253d8;
_ZN2nn5image6detail4jpeg15jpeg_idct_12x12EPNS2_22jpeg_decompress_structEPNS2_19jpeg_component_infoEPsPPhi = 0x0002585c;
_ZN2nn5image6detail4jpeg15jpeg_idct_13x13EPNS2_22jpeg_decompress_structEPNS2_19jpeg_component_infoEPsPPhi = 0x00025c78;
_ZN2nn5image6detail4jpeg15jpeg_idct_14x14EPNS2_22jpeg_decompress_structEPNS2_19jpeg_component_infoEPsPPhi = 0x00026210;
_ZN2nn5image6detail4jpeg15jpeg_idct_15x15EPNS2_22jpeg_decompress_structEPNS2_19jpeg_component_infoEPsPPhi = 0x000266e0;
_ZN2nn5image6detail4jpeg15jpeg_idct_16x16EPNS2_22jpeg_decompress_structEPNS2_19jpeg_component_infoEPsPPhi = 0x00026c48;
_ZN2nn5image6detail4jpeg14jpeg_idct_16x8EPNS2_22jpeg_decompress_structEPNS2_19jpeg_component_infoEPsPPhi = 0x00027270;
_ZN2nn5image6detail4jpeg14jpeg_idct_14x7EPNS2_22jpeg_decompress_structEPNS2_19jpeg_component_infoEPsPPhi = 0x0002777c;
_ZN2nn5image6detail4jpeg14jpeg_idct_12x6EPNS2_22jpeg_decompress_structEPNS2_19jpeg_component_infoEPsPPhi = 0x00027b58;
_ZN2nn5image6detail4jpeg14jpeg_idct_10x5EPNS2_22jpeg_decompress_structEPNS2_19jpeg_component_infoEPsPPhi = 0x00027e78;
_ZN2nn5image6detail4jpeg13jpeg_idct_8x4EPNS2_22jpeg_decompress_structEPNS2_19jpeg_component_infoEPsPPhi = 0x00028130;
_ZN2nn5image6detail4jpeg13jpeg_idct_6x3EPNS2_22jpeg_decompress_structEPNS2_19jpeg_component_infoEPsPPhi = 0x0002837c;
_ZN2nn5image6detail4jpeg13jpeg_idct_4x2EPNS2_22jpeg_decompress_structEPNS2_19jpeg_component_infoEPsPPhi = 0x000284f8;
_ZN2nn5image6detail4jpeg13jpeg_idct_2x1EPNS2_22jpeg_decompress_structEPNS2_19jpeg_component_infoEPsPPhi = 0x00028698;
_ZN2nn5image6detail4jpeg14jpeg_idct_8x16EPNS2_22jpeg_decompress_structEPNS2_19jpeg_component_infoEPsPPhi = 0x000286e8;
_ZN2nn5image6detail4jpeg14jpeg_idct_7x14EPNS2_22jpeg_decompress_structEPNS2_19jpeg_component_infoEPsPPhi = 0x00028b60;
_ZN2nn5image6detail4jpeg14jpeg_idct_6x12EPNS2_22jpeg_decompress_structEPNS2_19jpeg_component_infoEPsPPhi = 0x00028f30;
_ZN2nn5image6detail4jpeg14jpeg_idct_5x10EPNS2_22jpeg_decompress_structEPNS2_19jpeg_component_infoEPsPPhi = 0x00029260;
_ZN2nn5image6detail4jpeg13jpeg_idct_4x8EPNS2_22jpeg_decompress_structEPNS2_19jpeg_component_infoEPsPPhi = 0x0002952c;
_ZN2nn5image6detail4jpeg13jpeg_idct_3x6EPNS2_22jpeg_decompress_structEPNS2_19jpeg_component_infoEPsPPhi = 0x00029810;
_ZN2nn5image6detail4jpeg13jpeg_idct_2x4EPNS2_22jpeg_decompress_structEPNS2_19jpeg_component_infoEPsPPhi = 0x000299a0;
_ZN2nn5image6detail4jpeg13jpeg_idct_1x2EPNS2_22jpeg_decompress_structEPNS2_19jpeg_component_infoEPsPPhi = 0x00029b58;
_ZN2nn5image6detail4jpeg14jpeg_get_smallEPNS2_18jpeg_common_structEm = 0x00029bb0;
_ZN2nn5image6detail4jpeg15jpeg_free_smallEPNS2_18jpeg_common_structEPvm = 0x00029be0;
_ZN2nn5image6detail4jpeg14jpeg_get_largeEPNS2_18jpeg_common_structEm = 0x00029be4;
_ZN2nn5image6detail4jpeg15jpeg_free_largeEPNS2_18jpeg_common_structEPvm = 0x00029c14;
_ZN2nn5image6detail4jpeg18jpeg_mem_availableEPNS2_18jpeg_common_structElll = 0x00029c18;
_ZN2nn5image6detail4jpeg23jpeg_open_backing_storeEPNS2_18jpeg_common_structEPNS2_20backing_store_structEl = 0x00029c20;
_ZN2nn5image6detail4jpeg13jpeg_mem_initEPNS2_18jpeg_common_structE = 0x00029c38;
_ZN2nn5image6detail4jpeg13jpeg_mem_termEPNS2_18jpeg_common_structE = 0x00029c48;
_ZN2nn5image6detail4jpeg13jdiv_round_upEll = 0x00029c54;
_ZN2nn5image6detail4jpeg9jround_upEll = 0x00029c64;
_ZN2nn5image6detail4jpeg17jcopy_sample_rowsEPPhiS4_iii = 0x00029c78;
_ZN2nn5image6detail4jpeg15jcopy_block_rowEPA64_sS4_i = 0x00029ccc;
_ZN2nn5image6detail4jpeg9jzero_farEPvm = 0x00029ce0;
_ZN2nn5image6detail4jpeg13jpeg_mem_destEPNS2_20jpeg_compress_structEPPhPm = 0x00029cf0;
_ZN2nn5image6detail4jpeg16jinit_memory_mgrEPNS2_18jpeg_common_structE = 0x00029e40;
_ZN2nn5image6detail18HandleLibjpegErrorEPNS1_4jpeg18jpeg_common_structE = 0x0002b2b8;
_ZN2nn5image6detail14ReadTiffHeaderEPNS1_8BinaryIoEPtPKht = 0x0002b34c;
_ZN2nn5image6detail13ReadIfdHeaderEPNS1_9IfdHeaderEtRKNS1_10ExifBinaryE = 0x0002b464;
_ZN2nn5image6detail13SearchIfdTagsEPNS1_6IfdTagEtRKNS1_9IfdHeaderERKNS1_10ExifBinaryE = 0x0002b53c;
_ZN2nn5image6detail20InitializeTiffHeaderEPNS1_10TiffHeaderENS1_6EndianE = 0x0002b7ec;
_ZN2nn5image6detail15WriteTiffHeaderEPhtRKNS1_10TiffHeaderE = 0x0002b880;
_ZN2nn5image6detail19InitializeIfdHeaderEPNS1_9IfdHeaderEPKNS1_12ValuedIfdTagEtt = 0x0002b8c8;
_ZN2nn5image6detail8WriteIfdEPhtPKNS1_12ValuedIfdTagERKNS1_9IfdHeaderERKNS1_8BinaryIoE = 0x0002b9a0;
_ZN2nn5image6detail8CheckSoiEPKhm = 0x0002bf10;
_ZN2nn5image6detail14ReadJpegHeaderEPNS1_8JpegInfoEPKhmj = 0x0002bf30;
_ZN2nn5image6detail13SetJpegHeaderEPNS1_8JpegInfoEttNS0_17JpegSamplingRatioE = 0x0002cf74;
_ZN2nn5image6detail11GetExifInfoEPPKvPtPKhm = 0x0002d074;
_ZN2nn5image6detail15WriteExifHeaderEPvm = 0x0002d154;
_ZN2nn5image6detail17ExtractExifRegionEPPKvPmS3_m = 0x0002d364;
_ZN2nn5image6detail17ExtractJpegHeaderEPNS1_10JpegHeaderEPKvmi = 0x0002d3e0;
_ZN2nn5image6detail31GetBufferSizeForJpegCompressionEPmRKNS0_9DimensionENS0_17JpegSamplingRatioE = 0x0002db34;
_ZN2nn5image11JpegDecoderC1Ev = 0x0002dde8;
_ZN2nn5image11JpegDecoderC2Ev = 0x0002dde8;
_ZN2nn5image11JpegDecoderD1Ev = 0x0002de08;
_ZN2nn5image11JpegDecoderD2Ev = 0x0002de08;
_ZN2nn5image11JpegDecoderD0Ev = 0x0002de0c;
_ZN2nn5image11JpegDecoder12SetImageDataEPKvm = 0x0002de10;
_ZN2nn5image11JpegDecoder24SetResolutionDenominatorEi = 0x0002de20;
_ZN2nn5image11JpegDecoder14SetPixelFormatENS0_11PixelFormatE = 0x0002de38;
_ZN2nn5image11JpegDecoder7AnalyzeEv = 0x0002de74;
_ZNK2nn5image11JpegDecoder20GetAnalyzedDimensionEv = 0x0002df54;
_ZNK2nn5image11JpegDecoder25GetAnalyzedWorkBufferSizeEv = 0x0002df5c;
_ZNK2nn5image11JpegDecoder19GetAnalyzedExifDataEPm = 0x0002df64;
_ZN2nn5image11JpegDecoder6DecodeEPvmiS2_m = 0x0002df84;
_ZN2nn5image11JpegDecoder30DecodeWithPreconfiguredDecoderEPvmiPKvmRKS1_S2_m = 0x0002e3c8;
_ZN2nn5image11JpegDecoder11GetExifDataEPPKvPmS3_m = 0x0002e42c;
_ZN2nn5image11JpegEncoderC2Ev = 0x0002e430;
_ZN2nn5image11JpegEncoderC1Ev = 0x0002e430;
_ZN2nn5image11JpegEncoderD2Ev = 0x0002e454;
_ZN2nn5image11JpegEncoderD1Ev = 0x0002e454;
_ZN2nn5image11JpegEncoderD0Ev = 0x0002e458;
_ZN2nn5image11JpegEncoder12SetPixelDataEPKvNS0_11PixelFormatERKNS0_9DimensionEi = 0x0002e45c;
_ZN2nn5image11JpegEncoder10SetQualityEi = 0x0002e4a0;
_ZN2nn5image11JpegEncoder16SetSamplingRatioENS0_17JpegSamplingRatioE = 0x0002e4b8;
_ZN2nn5image11JpegEncoder7AnalyzeEv = 0x0002e4d0;
_ZNK2nn5image11JpegEncoder25GetAnalyzedWorkBufferSizeEv = 0x0002e580;
_ZN2nn5image11JpegEncoder6EncodeEPmPvmS3_mPNS0_11ExifBuilderE = 0x0002e588;
_ZN2nn5image11ExifBuilder17GetWorkBufferSizeEv = 0x0002eb18;
_ZN2nn5image11ExifBuilderC2EPvm = 0x0002eb20;
_ZN2nn5image11ExifBuilderC1EPvm = 0x0002eb20;
_ZN2nn5image11ExifBuilderD2Ev = 0x0002eb68;
_ZN2nn5image11ExifBuilderD1Ev = 0x0002eb68;
_ZN2nn5image11ExifBuilderD0Ev = 0x0002eb6c;
_ZN2nn5image11ExifBuilder14SetOrientationENS0_15ExifOrientationE = 0x0002eb70;
_ZN2nn5image11ExifBuilder11SetSoftwareEPKcm = 0x0002eb84;
_ZN2nn5image11ExifBuilder11SetDateTimeEPKcm = 0x0002eba4;
_ZN2nn5image11ExifBuilder12SetMakerNoteEPKvm = 0x0002ebb8;
_ZN2nn5image11ExifBuilder11SetUniqueIdEPKcm = 0x0002ebd8;
_ZN2nn5image11ExifBuilder12SetThumbnailEPKvm = 0x0002ebec;
_ZN2nn5image11ExifBuilder7AnalyzeEv = 0x0002ec0c;
_ZNK2nn5image11ExifBuilder21GetAnalyzedOutputSizeEv = 0x0002f0e0;
_ZN2nn5image11ExifBuilder5BuildEPvmRKNS0_9DimensionE = 0x0002f0e8;
_ZN2nn5image13ExifExtractor17GetWorkBufferSizeEv = 0x0002f1d8;
_ZN2nn5image13ExifExtractorC1EPvm = 0x0002f1e0;
_ZN2nn5image13ExifExtractorC2EPvm = 0x0002f1e0;
_ZN2nn5image13ExifExtractorD2Ev = 0x0002f1fc;
_ZN2nn5image13ExifExtractorD1Ev = 0x0002f1fc;
_ZN2nn5image13ExifExtractorD0Ev = 0x0002f200;
_ZN2nn5image13ExifExtractor11SetExifDataEPKvm = 0x0002f204;
_ZN2nn5image13ExifExtractor7AnalyzeEv = 0x0002f218;
_ZNK2nn5image13ExifExtractor12ExtractMakerEPm = 0x0002f4c4;
_ZNK2nn5image13ExifExtractor12ExtractModelEPm = 0x0002f544;
_ZNK2nn5image13ExifExtractor18ExtractOrientationEPNS0_15ExifOrientationE = 0x0002f5c4;
_ZNK2nn5image13ExifExtractor15ExtractSoftwareEPm = 0x0002f62c;
_ZNK2nn5image13ExifExtractor15ExtractDateTimeEPm = 0x0002f6ac;
_ZNK2nn5image13ExifExtractor16ExtractMakerNoteEPm = 0x0002f730;
_ZNK2nn5image13ExifExtractor25ExtractEffectiveDimensionEPNS0_9DimensionE = 0x0002f758;
_ZNK2nn5image13ExifExtractor15ExtractUniqueIdEPm = 0x0002f838;
_ZNK2nn5image13ExifExtractor16ExtractThumbnailEPm = 0x0002f8bc;
_ZN2nn4util6Base6414ToBase64StringEPcmPKvmNS1_4ModeE = 0x00039c24;
_ZN2nn4util6Base6416FromBase64StringEPmPvmPKcNS1_4ModeE = 0x00039f44;
_ZN2nn4util6Base6416FromBase64StringEPmPvmPKcmNS1_4ModeE = 0x00039f54;
_ZNK2nn4util16BinaryFileHeader7IsValidEliii = 0x0003a1f0;
_ZNK2nn4util16BinaryFileHeader16IsSignatureValidEl = 0x0003a258;
_ZNK2nn4util16BinaryFileHeader14IsVersionValidEiii = 0x0003a268;
_ZNK2nn4util16BinaryFileHeader13IsEndianValidEv = 0x0003a28c;
_ZNK2nn4util16BinaryFileHeader16IsAlignmentValidEv = 0x0003a29c;
_ZNK2nn4util16BinaryFileHeader15IsEndianReverseEv = 0x0003a2b8;
_ZNK2nn4util16BinaryFileHeader12GetAlignmentEv = 0x0003a2c8;
_ZNK2nn4util16BinaryFileHeader11IsRelocatedEv = 0x0003a2d8;
_ZN2nn4util16BinaryFileHeader12SetRelocatedEb = 0x0003a2e4;
_ZN2nn4util16BinaryFileHeader16SetByteOrderMarkENS0_13ByteOrderMarkE = 0x0003a2f4;
_ZN2nn4util16BinaryFileHeader14SetAddressSizeEv = 0x0003a2fc;
_ZNK2nn4util16BinaryFileHeader11GetFileSizeEv = 0x0003a308;
_ZN2nn4util16BinaryFileHeader11SetFileSizeEm = 0x0003a310;
_ZN2nn4util16BinaryFileHeader12SetAlignmentEm = 0x0003a318;
_ZNK2nn4util16BinaryFileHeader11GetFileNameEv = 0x0003a364;
_ZN2nn4util16BinaryFileHeader11SetFileNameERKNS0_17basic_string_viewIcNSt3__111char_traitsIcEEEE = 0x0003a3a8;
_ZN2nn4util16BinaryFileHeader18GetRelocationTableEv = 0x0003a3c8;
_ZN2nn4util16BinaryFileHeader18SetRelocationTableEPNS0_15RelocationTableE = 0x0003a3dc;
_ZN2nn4util16BinaryFileHeader13GetFirstBlockEv = 0x0003a3f4;
_ZNK2nn4util16BinaryFileHeader13GetFirstBlockEv = 0x0003a408;
_ZN2nn4util16BinaryFileHeader14FindFirstBlockEi = 0x0003a41c;
_ZN2nn4util17BinaryBlockHeader13FindNextBlockEi = 0x0003a490;
_ZNK2nn4util16BinaryFileHeader14FindFirstBlockEi = 0x0003a4d4;
_ZNK2nn4util17BinaryBlockHeader13FindNextBlockEi = 0x0003a548;
_ZN2nn4util16BinaryFileHeader13SetFirstBlockEPNS0_17BinaryBlockHeaderE = 0x0003a58c;
_ZN2nn4util17BinaryBlockHeader12GetNextBlockEv = 0x0003a5a0;
_ZNK2nn4util17BinaryBlockHeader12GetNextBlockEv = 0x0003a5b4;
_ZNK2nn4util17BinaryBlockHeader12GetBlockSizeEv = 0x0003a5c8;
_ZN2nn4util17BinaryBlockHeader12SetNextBlockEPS1_ = 0x0003a5d0;
_ZN2nn4util17BinaryBlockHeader12SetBlockSizeEm = 0x0003a5e4;
_ZN2nn4util15RelocationTable7Section6SetPtrEPv = 0x0003a5ec;
_ZNK2nn4util15RelocationTable7Section6GetPtrEv = 0x0003a5f4;
_ZNK2nn4util15RelocationTable7Section12GetPtrInFileEPv = 0x0003a5fc;
_ZNK2nn4util15RelocationTable7Section10GetBasePtrEPv = 0x0003a608;
_ZNK2nn4util15RelocationTable7Section7GetSizeEv = 0x0003a620;
_ZN2nn4util15RelocationTable8RelocateEv = 0x0003a628;
_ZN2nn4util15RelocationTable10UnrelocateEv = 0x0003a798;
_ZN2nn4util15RelocationTable10GetSectionEi = 0x0003a90c;
_ZNK2nn4util15RelocationTable10GetSectionEi = 0x0003a91c;
_ZN2nn4util15RelocationTable12SetSignatureEv = 0x0003a92c;
_ZN2nn4util15RelocationTable13CalculateSizeEii = 0x0003a93c;
_ZNK2nn4util10StringPool14GetStringCountEv = 0x0003a954;
_ZN2nn4util10StringPool14SetStringCountEi = 0x0003a95c;
_ZN2nn4util10StringPool12SetSignatureEv = 0x0003a964;
_ZN2nn4util8BitArray3setEv = 0x0003a974;
_ZN2nn4util8BitArray5resetEv = 0x0003a9fc;
_ZN2nn4util8BitArray4flipEv = 0x0003aa44;
_ZNK2nn4util8BitArray5countEv = 0x0003aac0;
_ZNK2nn4util8BitArray4noneEv = 0x0003ab34;
_ZNK2nn4util8BitArray3allEv = 0x0003ab80;
_ZN2nn4util8BitArray3AndEPS1_RKS1_S4_ = 0x0003abfc;
_ZN2nn4util8BitArray2OrEPS1_RKS1_S4_ = 0x0003ac48;
_ZN2nn4util8BitArray3XorEPS1_RKS1_S4_ = 0x0003ac94;
_ZN2nn4util8BitArray3NotEPS1_RKS1_ = 0x0003ad38;
_ZN2nn4util8BitArray10RightShiftEPS1_RKS1_i = 0x0003adbc;
_ZN2nn4util8BitArray9LeftShiftEPS1_RKS1_i = 0x0003af78;
_ZNK2nn4util8BitArrayeqERKS1_ = 0x0003b0c8;
_ZN2nn4util12CompressZlibEPmPvmPKvmS2_m = 0x0003b124;
_ZN2nn4util12CompressZlibEPmPvmPKvmS2_mii = 0x0003b244;
_ZN2nn4util12CompressGzipEPmPvmPKvmS2_m = 0x0003b274;
_ZN2nn4util12CompressGzipEPmPvmPKvmS2_mii = 0x0003b2a8;
_ZN2nn4util15CompressDeflateEPmPvmPKvmS2_m = 0x0003b2d8;
_ZN2nn4util15CompressDeflateEPmPvmPKvmS2_mii = 0x0003b30c;
_ZN2nn4util6detail13ZlibAllocator8AllocateEPvjj = 0x0003b33c;
_ZN2nn4util6detail13ZlibAllocator4FreeEPvS3_ = 0x0003b364;
_ZN2nn4util28GetCountryFromIso31661Alpha2EPNS0_7CountryEPKcm = 0x0003b368;
_ZN2nn4util23GetGzipDecompressedSizeEPKvm = 0x0003b40c;
_ZN2nn4util14DecompressZlibEPvmPKvmS1_m = 0x0003b418;
_ZN2nn4util14DecompressGzipEPvmPKvmS1_m = 0x0003b520;
_ZN2nn4util17DecompressDeflateEPvmPKvmS1_m = 0x0003b528;
_ZN2nn4util16IntrusiveDicNode5EraseEPPS1_Pi = 0x0003b530;
_ZN2nn4util16IntrusiveDicNode13ExtractRefBitERKNS0_17basic_string_viewIcNSt3__111char_traitsIcEEEEi = 0x0003b5e4;
_ZN2nn4util16IntrusiveDicNode11InsertChildEPPS1_PiRKNS0_17basic_string_viewIcNSt3__111char_traitsIcEEEE = 0x0003b61c;
_ZN2nn4util16IntrusiveDicNode10FindRefBitEPKS1_ = 0x0003b6f0;
_ZNK2nn4util6detail16IntrusiveDicImpl8FindImplERKNS0_17basic_string_viewIcNSt3__111char_traitsIcEEEE = 0x0003b79c;
_ZN2nn4util6detail16IntrusiveDicImpl10InsertImplEPNS0_16IntrusiveDicNodeE = 0x0003b800;
_ZN2nn4util6detail16IntrusiveDicImpl9EraseImplEPNS0_16IntrusiveDicNodeE = 0x0003b938;
_ZNK2nn4util6detail16IntrusiveDicImpl8FindIterEv = 0x0003baa0;
_ZN2nn4util6detail16IntrusiveDicImpl8MoveIterEPKNS0_16IntrusiveDicNodeEi = 0x0003bae0;
_ZN2nn4util6detail16IntrusiveDicImpl10FindParentEPKNS0_16IntrusiveDicNodeE = 0x0003bba8;
_ZN2nn4util6ResDic5BuildEv = 0x0003bc08;
_ZN2nn4util6ResDic10FindRefBitERKNS0_17basic_string_viewIcNSt3__111char_traitsIcEEEES8_ = 0x0003bf30;
_ZN2nn4util10SwapEndianEPNS0_9ResEndianEPNS0_6ResDicE = 0x0003bfd8;
_ZN2nn4util10SwapEndianEPNS0_9ResEndianEPNS0_10StringPoolE = 0x0003c07c;
_ZN2nn4util40InitializeStreamingDecompressZlibContextEPNS0_30StreamingDecompressZlibContextE = 0x0003c180;
_ZN2nn4util40InitializeStreamingDecompressGzipContextEPNS0_30StreamingDecompressZlibContextE = 0x0003c204;
_ZN2nn4util43InitializeStreamingDecompressDeflateContextEPNS0_30StreamingDecompressZlibContextE = 0x0003c288;
_ZN2nn4util23StreamingDecompressZlibEPmS1_PvmPKvmPNS0_30StreamingDecompressZlibContextE = 0x0003c30c;
_ZN2nn4util23StreamingDecompressGzipEPmS1_PvmPKvmPNS0_30StreamingDecompressZlibContextE = 0x0003c440;
_ZN2nn4util26StreamingDecompressDeflateEPmS1_PvmPKvmPNS0_30StreamingDecompressZlibContextE = 0x0003c444;
_ZN2nn4util11ReferSymbolEPKv = 0x0003c448;
_ZN2nn4util10SdkVersionEv = 0x0003c44c;
_ZN2nn4util6TinyMt10InitializeEj = 0x0003c458;
_ZN2nn4util6TinyMt22FinalizeInitializationEv = 0x0003c4dc;
_ZN2nn4util6TinyMt10InitializeEPKji = 0x0003c6c8;
_ZN2nn4util6TinyMt24GenerateInitialValuePlusEPjij = 0x0003c8b0;
_ZN2nn4util6TinyMt23GenerateInitialValueXorEPji = 0x0003c950;
_ZN2nn4util6TinyMt9SaveStateEPNS1_5StateE = 0x0003c9ec;
_ZN2nn4util6TinyMt12RestoreStateEPKNS1_5StateE = 0x0003ca00;
_ZN2nn4util6TinyMt17GenerateRandomU32Ev = 0x0003ca14;
_ZN2nn4util6TinyMt19GenerateRandomBytesEPvm = 0x0003ca84;
_ZN2nn4util13VFormatStringEPFvmPKciEmS2_St9__va_list = 0x0003cc20;
_ZN2nn4util12FormatStringEPFvmPKciEmS2_z = 0x0003d87c;
_ZN2nn4util9VSNPrintfEPcmPKcSt9__va_list = 0x0003d94c;
_ZN2nn4util8SNPrintfEPcmPKcz = 0x0003da2c;
_ZN2nn4util14TVFormatStringEPFvmPKciEmS2_St9__va_list = 0x0003db20;
_ZN2nn4util13TFormatStringEPFvmPKciEmS2_z = 0x0003db7c;
_ZN2nn4util10TVSNPrintfEPcmPKcSt9__va_list = 0x0003dc4c;
_ZN2nn4util9TSNPrintfEPcmPKcz = 0x0003dcd0;
_ZN2nn4util30ConvertStringUtf8ToUtf16NativeEPtiPKci = 0x0003e950;
_ZN2nn4util30ConvertStringUtf8ToUtf16NativeEPtiPKc = 0x0003eba8;
_ZN2nn4util30ConvertStringUtf16NativeToUtf8EPciPKti = 0x0003ec0c;
_ZN2nn4util30ConvertStringUtf16NativeToUtf8EPciPKt = 0x0003ee44;
_ZN2nn4util43GetLengthOfConvertedStringUtf8ToUtf16NativeEPiPKci = 0x0003eee8;
_ZN2nn4util43GetLengthOfConvertedStringUtf16NativeToUtf8EPiPKti = 0x0003ef8c;
_ZN2nn4util24ConvertStringUtf8ToUtf32EPjiPKc = 0x0003f030;
_ZN2nn4util24ConvertStringUtf32ToUtf8EPciPKj = 0x0003f204;
_ZN2nn4util37GetLengthOfConvertedStringUtf8ToUtf32EPiPKc = 0x0003f38c;
_ZN2nn4util37GetLengthOfConvertedStringUtf32ToUtf8EPiPKj = 0x0003f520;
_ZN2nn4util33ConvertCharacterUtf8ToUtf16NativeEPtPKc = 0x0003f5b4;
_ZN2nn4util33ConvertCharacterUtf16NativeToUtf8EPcPKt = 0x0003f690;
_ZN2nn4util27ConvertCharacterUtf8ToUtf32EPjPKc = 0x0003f774;
_ZN2nn4util27ConvertCharacterUtf32ToUtf8EPcj = 0x0003f898;
_ZN2nn4util30PickOutCharacterFromUtf8StringEPcPPKc = 0x0003f96c;
_ZN2nn4util6detail37ConvertToExponentStyleStringWithPointEPcmdi = 0x0003fb5c;
_ZN2nn4diag6detail11nnText_diagEPKc = 0x0003fb70;
_ZN2nn4diag6detail9nnText_osEPKc = 0x0003fb88;
_ZN2nn4diag6detail16nnText_g3dviewerEPKc = 0x0003fba0;
_ZN2nn4diag6detail11nnText_initEPKc = 0x0003fbb8;
_ZN2nn4diag6detail10nnText_ldnEPKc = 0x0003fbd0;
_ZN2nn4diag6detail10nnText_spyEPKc = 0x0003fbe8;
_ZN2nn4edid17VisitAudioFormatsEPKNS0_4EdidEPFbPKNS0_15AudioFormatInfoEPvES7_ = 0x0003fc00;
_ZN2nn4edid24GetAudioFormatBitRateMaxEPiPKNS0_15AudioFormatInfoE = 0x0003fc2c;
_ZN2nn4edid22GetAudioFormatBitDepthEPiPKNS0_15AudioFormatInfoE = 0x0003fc34;
_ZN2nn4edid20GetSpeakerAllocationEPKNS0_4EdidE = 0x0003fc3c;
_ZN2nn4edid16IsAudioSupportedEPKNS0_4EdidE = 0x0003fc44;
_ZN2nn4edid14GetDisplayInfoEPNS0_11DisplayInfoEPKNS0_4EdidE = 0x0003fc4c;
_ZN2nn4edid27GetDisplayWeekOfManufactureEPiPKNS0_11DisplayInfoE = 0x0003fd94;
_ZN2nn4edid27GetDisplayYearOfManufactureEPiPKNS0_11DisplayInfoE = 0x0003fdb8;
_ZN2nn4edid24GetSourcePhysicalAddressEPtPKNS0_4EdidE = 0x0003fde0;
_ZN2nn4edid17VisitDisplayModesEPKNS0_4EdidEPFbPKNS0_15DisplayModeInfoEPKNS0_17DisplayTimingInfoEPKNS0_13ImageSizeInfoEPvESD_ = 0x0003fe38;
_ZN2nn4edid24GetDisplayModePreferenceEPNS0_15DisplayModeInfoEPNS0_17DisplayTimingInfoEPNS0_13ImageSizeInfoEPKNS0_4EdidE = 0x00040180;
_ZN2nn4edid8OpenEdidEPNS0_4EdidEPKvm = 0x00040184;
_ZN2nn4edid9CloseEdidEPNS0_4EdidE = 0x00040280;
_ZN2nn4edid9PrintEdidEPKNS0_4EdidE = 0x00040288;
_ZN2nn4edid6detail10InitializeEPNS0_11DisplayInfoE = 0x0004028c;
_ZN2nn4edid6detail7ToAsciiEh = 0x000402b8;
_ZN2nn4edid6detail19GetManufacturerCodeEPNS0_11DisplayInfoEt = 0x000402d0;
_ZN2nn4edid6detail17GetVideoInterfaceEh = 0x00040344;
_ZN2nn4edid6detail14GetSignalLevelEh = 0x00040374;
_ZN2nn4edid6detail13GetVideoSetupEh = 0x000403c4;
_ZN2nn4edid6detail12GetSyncTypesEh = 0x000403e8;
_ZN2nn4edid6detail18HasVsyncSerrationsEh = 0x00040424;
_ZN2nn4edid6detail13GetColorDepthEh = 0x00040438;
_ZN2nn4edid6detail15GetColorSupportENS0_14VideoInterfaceEh = 0x000404a8;
_ZN2nn4edid6detail23DisplayDataBlockVisitorEPKhmNS0_6cea8618BlockTagEPv = 0x000404e4;
_ZN2nn4edid6detail21ExtensionBlockVisitorEPKhmPv = 0x0004057c;
_ZN2nn4edid6detail22IsStandbyModeSupportedEh = 0x000405a4;
_ZN2nn4edid6detail22IsSuspendModeSupportedEh = 0x000405b4;
_ZN2nn4edid6detail23IsVeryLowPowerSupportedEh = 0x000405bc;
_ZN2nn4edid6detail23IsSrgbDefaultColorSpaceEh = 0x000405c4;
_ZN2nn4edid6detail21IsContinuousFrequencyEh = 0x000405cc;
_ZN2nn4edid6detail22PhysicalAddressVisitorEPKhmPv = 0x000405d4;
_ZN2nn4edid6detail31PhysicalAddressDataBlockVisitorEPKhmNS0_6cea8618BlockTagEPv = 0x0004060c;
_ZN2nn4edid6detail22VisitEstablishedTimingEPFbPKNS0_15DisplayModeInfoEPKNS0_17DisplayTimingInfoEPKNS0_13ImageSizeInfoEPvESB_iifb = 0x00040654;
_ZN2nn4edid6detail21GetEstablishedTimingIEPFbPKNS0_15DisplayModeInfoEPKNS0_17DisplayTimingInfoEPKNS0_13ImageSizeInfoEPvESB_h = 0x000406b0;
_ZN2nn4edid6detail22GetEstablishedTimingIIEPFbPKNS0_15DisplayModeInfoEPKNS0_17DisplayTimingInfoEPKNS0_13ImageSizeInfoEPvESB_h = 0x00040904;
_ZN2nn4edid6detail23GetEstablishedTimingIIIEPFbPKNS0_15DisplayModeInfoEPKNS0_17DisplayTimingInfoEPKNS0_13ImageSizeInfoEPvESB_h = 0x00040b58;
_ZN2nn4edid6detail17GetStandardTimingEPNS0_15DisplayModeInfoEhh = 0x00040bc0;
_ZN2nn4edid6detail28GetStandardTimingAspectRatioEPiS2_h = 0x00040c54;
_ZN2nn4edid6detail30GetDetailedTimingVsyncPolarityEh = 0x00040cc0;
_ZN2nn4edid6detail30GetDetailedTimingHsyncPolarityEh = 0x00040cdc;
_ZN2nn4edid6detail27GetDetailedTimingStereoModeEh = 0x00040cfc;
_ZN2nn4edid6detail26GetDetailedTimingSyncTypesEh = 0x00040d64;
_ZN2nn4edid6detail24IsDetailedTimingSerratedEh = 0x00040dbc;
_ZN2nn4edid6detail26IsDetailedTimingInterlacedEh = 0x00040de0;
_ZN2nn4edid6detail17GetDetailedTimingEPNS0_15DisplayModeInfoEPNS0_17DisplayTimingInfoEPNS0_13ImageSizeInfoEPKhm = 0x00040df0;
_ZN2nn4edid6detail21DetailedTimingVisitorEPKNS0_15DisplayModeInfoEPKNS0_17DisplayTimingInfoEPKNS0_13ImageSizeInfoEPv = 0x00041118;
_ZN2nn4edid6detail25ModeExtensionBlockVisitorEPKhmPv = 0x00041120;
_ZN2nn4edid6detail17VideoBlockVisitorEPKhmNS0_6cea8618BlockTagEPv = 0x00041178;
_ZN2nn4edid6detail10InitializeEPNS0_4EdidE = 0x000411f8;
_ZN2nn4edid6detail7IsValidEPKNS0_4EdidE = 0x00041200;
_ZN2nn4edid6detail9SerializeItEET_PKh = 0x00041228;
_ZN2nn4edid6detail9SerializeIjEET_PKh = 0x00041238;
_ZN2nn4edid6detail16AudioDataVisitorEPKhmPv = 0x0004125c;
_ZN2nn4edid6detail21AudioDataBlockVisitorEPKhmNS0_6cea8618BlockTagEPv = 0x00041284;
_ZN2nn4edid6cea86111VisitBlocksEPKNS0_4EdidEPFbPKhmPvES7_ = 0x00041470;
_ZN2nn4edid6cea86111GetBlockTagEt = 0x0004150c;
_ZN2nn4edid6cea86115VisitDataBlocksEPKhmPFbS3_mNS1_8BlockTagEPvES5_ = 0x00041584;
_ZN2nn4edid6cea86120VisitDetailedTimingsEPKhmPFbPKNS0_15DisplayModeInfoEPKNS0_17DisplayTimingInfoEPKNS0_13ImageSizeInfoEPvESD_ = 0x000416a8;
_ZN2nn4edid6cea86110ConvertVicEPNS0_15DisplayModeInfoEh = 0x00041748;
_ZN2nn2sf13SharedPointerINS_3spl6detail16IRandomInterfaceEED2Ev = 0x000420d0;
_ZN2nn2os5MutexD2Ev = 0x000420e8;
_ZN2nn6crypto15InitializeCsrngEv = 0x000420ec;
_ZN2nn6crypto36GenerateCryptographicallyRandomBytesEPvm = 0x0004220c;
_ZN2nn2sf14IServiceObject20GetInterfaceTypeInfoEv = 0x00042380;
_ZN2nn2sf4hipc6client24Hipc2ClientCoreProcessorILNS1_6detail11MessageTypeE4ENS0_4cmif6detail14CoreMethodInfoINSt3__15tupleIJNS7_18BufferArgumentInfoILi0ELi6ELm0EEEEEELm0ELm0ELb0EEESD_E7ProcessEPNS2_26Hipc2ClientProxyBaseObjectENS6_6client24BufferClientArgumentTypeEj = 0x000423c8;
_ZN2nn2sf4hipc6client28Hipc2ClientCoreProcessorImpl19WriteBufferDataImplEPNS1_6detail17HipcMessageWriterEiPKNS0_6detail14PointerAndSizeEPKimm = 0x00042520;
_ZN2nn2sf4hipc6detail17HipcMessageReader10InitializeEPKv = 0x00042de4;
_ZN2nn4diag6detail10VAbortImplEPKcS3_S3_iPKNS_6ResultEPKNS_2os17UserExceptionInfoES3_St9__va_list = 0x00042ff8;
_ZN2nn4diag6detail9AbortImplEPKcS3_S3_iPKNS_6ResultEPKNS_2os17UserExceptionInfoES3_z = 0x0004305c;
_ZN2nn4diag6detail9AbortImplEPKcS3_S3_iPKNS_6ResultES3_z = 0x000430b0;
_ZN2nn4diag6detail9AbortImplEPKcS3_S3_iS3_z = 0x00043114;
_ZN2nn4diag6detail9AbortImplEPKcS3_S3_i = 0x00043184;
_ZN2nn4diag6detail18OnAssertionFailureENS0_13AssertionTypeEPKcS4_S4_iS4_z = 0x000431a4;
_ZN2nn4diag6detail18OnAssertionFailureENS0_13AssertionTypeEPKcS4_S4_i = 0x00043290;
_ZN2nn4diag26SetAssertionFailureHandlerEPFNS0_25AssertionFailureOperationERKNS0_13AssertionInfoEE = 0x0004329c;
_ZN2nn4diag12GetBacktraceEPmi = 0x000433c4;
_ZN2nn4diag12GetBacktraceEPmm = 0x000433c8;
_ZN2nn4diag6detail8VLogImplERKNS0_11LogMetaInfoEPKcSt9__va_list = 0x000433e0;
_ZN2nn4diag6detail8VLogImplERKNS0_11LogMetaDataEPKcSt9__va_list = 0x000434bc;
_ZN2nn4diag6detail7LogImplERKNS0_11LogMetaInfoEPKcz = 0x0004356c;
_ZN2nn4diag6detail7LogImplERKNS0_11LogMetaDataEPKcz = 0x00043760;
_ZN2nn4diag6detail7PutImplERKNS0_11LogMetaDataEPKcm = 0x0004385c;
_ZN2nn4diag6detail18CallAllLogObserverERKNS0_11LogMetaDataERKNS0_7LogBodyE = 0x00043a94;
_ZN2nn4diag6detail25ReplaceDefaultLogObserverEPFvRKNS0_11LogMetaDataERKNS0_7LogBodyEPvE = 0x00043ae8;
_ZN2nn4diag21UnregisterLogObserverEPNS0_17LogObserverHolderE = 0x00043b68;
_ZN2nn4diag27InitializeLogObserverHolderEPNS0_17LogObserverHolderEPFvRKNS0_11LogMetaDataERKNS0_7LogBodyEPvES9_ = 0x00043bb0;
_ZN2nn4diag19RegisterLogObserverEPNS0_17LogObserverHolderE = 0x00043bc0;
_ZN2nn4diag6detail23ResetDefalutLogObserverEv = 0x00043bf8;
_ZN2nn4diag13OnResultThrowENS_6ResultERKNS0_10SourceInfoE = 0x00043e18;
_ZN2nn4diag14OnResultHandleENS_6ResultERKNS0_10SourceInfoE = 0x00043e1c;
_ZN2nn4diag15OnResultRethrowENS_6ResultERKNS0_10SourceInfoE = 0x00043e20;
_ZN2nn4diag13OnResultCatchENS_6ResultERKNS0_10SourceInfoE = 0x00043e24;
_ZN2nn4diag12OnResultMissENS_6ResultERKNS0_10SourceInfoE = 0x00043e28;
_ZN2nn6detail21UnexpectedDefaultImplEPKcS2_i = 0x00043e2c;
_ZN2nn4diag6detail9TranslateEPKhPKc = 0x00043e7c;
_ZN2nn4diag6detail11NotNullImplEm = 0x00043f58;
_ZN2nn4diag6detail16PrintDebugStringEPKc = 0x00043f64;
_ZN2nn4diag6detail20DefaultAbortObserverERKNS0_9AbortInfoE = 0x00043f8c;
_ZN2nn4diag29InitializeAbortObserverHolderEPNS0_19AbortObserverHolderEPFvRKNS0_9AbortInfoEE = 0x00043f90;
_ZN2nn4diag21RegisterAbortObserverEPNS0_19AbortObserverHolderE = 0x00043f9c;
_ZN2nn4diag23UnregisterAbortObserverEPNS0_19AbortObserverHolderE = 0x00043ff4;
_ZN2nn4diag26EnableDefaultAbortObserverEb = 0x00044090;
_ZN2nn4diag32InitializeSdkAbortObserverHolderEPNS0_22SdkAbortObserverHolderEPFvRKNS0_12SdkAbortInfoEE = 0x000440a4;
_ZN2nn4diag24RegisterSdkAbortObserverEPNS0_22SdkAbortObserverHolderE = 0x000440b0;
_ZN2nn4diag26UnregisterSdkAbortObserverEPNS0_22SdkAbortObserverHolderE = 0x00044108;
_ZN2nn4diag18IsDebuggerAttachedEv = 0x000441a4;
_ZN2nn4diag13GetModulePathEPcmm = 0x00044204;
_ZN2nn4diag16GetAllModuleInfoEPPNS0_10ModuleInfoEPvm = 0x00044208;
_ZN2nn4diag40GetRequiredBufferSizeForGetAllModuleInfoEv = 0x00044230;
_ZN2nn4diag14IsSystemSymbolEm = 0x0004426c;
_ZN2nn4diag13GetSymbolNameEPcmm = 0x00044270;
_ZN2nn4diag13GetSymbolSizeEm = 0x00044274;
_ZN2nn4diag6detail5AbortEv = 0x00044278;
_ZN2nn4diag6detail19InvokeAbortObserverERKNS0_9AbortInfoE = 0x00044294;
_ZN2nn4diag6detail22InvokeSdkAbortObserverERKNS0_12SdkAbortInfoE = 0x00044304;
_ZN2nn4diag6detail16GetBacktraceImplEPmimm = 0x0004435c;
_ZN2nn4diag6detail16GetBacktraceImplEPmi = 0x000444d8;
_ZN2nn4diag12GetBacktraceEPmimmm = 0x00044504;
_ZN2nn4diag6detail22PrintBacktraceItemImplEmb = 0x00044524;
_ZN2nn4diag6detail23TentativeDumpStackTraceEv = 0x00044550;
_ZN2nn4diag12PrintModulesEPmi = 0x00044674;
_ZN2nn4diag18PrintBacktraceItemEmb = 0x00044724;
_ZN2nn4diag6detail23GetAbortObserverManagerEv = 0x00044750;
_ZN2nn4diag6detail15ObserverManagerINS0_19AbortObserverHolderERKNS0_9AbortInfoEED2Ev = 0x000447d4;
_ZN2nn4diag6detail26GetSdkAbortObserverManagerEv = 0x00044820;
_ZN2nn4diag6detail15ObserverManagerINS0_22SdkAbortObserverHolderERKNS0_12SdkAbortInfoEED2Ev = 0x00044894;
_ZN2nn4diag6detail16PrintDebugStringEPKcm = 0x000448e0;
_ZN2nn4diag6detail23GetModuleInfoForHorizonEPPKcPmS5_m = 0x000448ec;
_ZN2nn4diag6detail17GetModulePathImplEPcmm = 0x000449b0;
_ZN2nn4diag6detail20GetAllModuleInfoImplEPmPvmb = 0x00044a88;
_ZN2nn4diag6detail18IsSystemSymbolImplEm = 0x00044cf0;
_ZN2nn4diag6detail24GetNearestExportedSymbolEPPKcPmm = 0x00044d64;
_ZN2nn4diag6detail17GetSymbolNameImplEPcmm = 0x00044eb0;
_ZN2nn4diag6detail17GetSymbolSizeImplEm = 0x00044f90;
_ZN2nn2fs22GetGlobalAccessLogModeEPj = 0x00044fd0;
_ZN2nn2fs22SetGlobalAccessLogModeEj = 0x00045084;
_ZN2nn2fs17SetLocalAccessLogEb = 0x00045138;
_ZN2nn2fs28SetLocalApplicationAccessLogEb = 0x0004515c;
_ZN2nn2fs6detail18IsEnabledAccessLogEj = 0x00045180;
_ZN2nn2fs6detail18IsEnabledAccessLogEv = 0x0004523c;
_ZN2nn2fs6detail15OutputAccessLogENS_6ResultENS_2os4TickES4_PKcNS0_10FileHandleES6_z = 0x00045244;
_ZN2nn2fs6detail15OutputAccessLogENS_6ResultENS_2os4TickES4_PKcNS0_15DirectoryHandleES6_z = 0x000454cc;
_ZN2nn2fs6detail15OutputAccessLogENS_6ResultENS_2os4TickES4_PKcPKvS6_z = 0x00045554;
_ZN2nn2fs6detail24IsEnabledHandleAccessLogENS0_10FileHandleE = 0x000455dc;
_ZN2nn2fs6detail24IsEnabledHandleAccessLogENS0_15DirectoryHandleE = 0x000455fc;
_ZN2nn2fs6detail24IsEnabledHandleAccessLogEPKv = 0x0004561c;
_ZN2nn2fs6detail36IsEnabledFileSystemAccessorAccessLogEPKc = 0x00045628;
_ZN2nn2fs6detail33EnableFileSystemAccessorAccessLogEPKc = 0x000456a8;
_ZN2nn2fs6detail8IdString13ToValueStringEi = 0x0004572c;
_ZN2nn2fs6detail8IdString8ToStringINS0_16ImageDirectoryIdEEEPKcT_ = 0x00045764;
_ZN2nn2fs6detail8IdString8ToStringINS0_16ContentStorageIdEEEPKcT_ = 0x000457c4;
_ZN2nn2fs6detail8IdString8ToStringINS0_17GameCardPartitionEEEPKcT_ = 0x00045818;
_ZN2nn2fs6detail8IdString8ToStringINS0_15SaveDataSpaceIdEEEPKcT_ = 0x0004586c;
_ZN2nn2fs6detail8IdString8ToStringINS0_11ContentTypeEEEPKcT_ = 0x000458fc;
_ZN2nn2fs6detail8IdString8ToStringINS1_19FileSystemProxyTypeEEEPKcT_ = 0x00045950;
_ZN2nn2fs6detail8IdString8ToStringINS0_14BisPartitionIdEEEPKcT_ = 0x000459a4;
_ZN2nn2os21SdkThreadLocalStorageD2Ev = 0x00045ac4;
_ZN2nn2fs19SetEnabledAutoAbortEb = 0x00045acc;
_ZN2nn2fs20DefaultResultHandlerENS_6ResultE = 0x00045adc;
_ZN2nn2fs22AllReturnResultHandlerENS_6ResultE = 0x00045af4;
_ZN2nn2fs23ScopedAutoAbortDisablerC1Ev = 0x00045afc;
_ZN2nn2fs23ScopedAutoAbortDisablerC2Ev = 0x00045afc;
_ZN2nn2fs25GetCurrentThreadFsContextEv = 0x00045b44;
_ZN2nn2fs25SetCurrentThreadFsContextEPKNS0_9FsContextE = 0x00045b70;
_ZN2nn2fs32SetDefaultFsContextResultHandlerEPFNS0_14AbortSpecifierENS_6ResultEE = 0x00045b84;
_ZN2nn2fs24HierarchicalRomFileTable30QueryDirectoryEntryStorageSizeEj = 0x00045c38;
_ZN2nn2fs24HierarchicalRomFileTable25QueryFileEntryStorageSizeEj = 0x00045c50;
_ZN2nn2fs24HierarchicalRomFileTable36QueryDirectoryEntryBucketStorageSizeEl = 0x00045c68;
_ZN2nn2fs24HierarchicalRomFileTable31QueryFileEntryBucketStorageSizeEl = 0x00045c70;
_ZN2nn2fs24HierarchicalRomFileTable6FormatENS0_10SubStorageES2_ = 0x00045c78;
_ZN2nn2fs10SubStorage7GetSizeEPl = 0x00045dc0;
_ZN2nn2fs10SubStorageD2Ev = 0x00045de4;
_ZN2nn2fs24HierarchicalRomFileTableC1Ev = 0x00045e04;
_ZN2nn2fs24HierarchicalRomFileTableC2Ev = 0x00045e04;
_ZN2nn2fs24HierarchicalRomFileTable10InitializeENS0_10SubStorageES2_S2_S2_ = 0x00045e6c;
_ZN2nn2fs24HierarchicalRomFileTable8FinalizeEv = 0x00045ef8;
_ZN2nn2fs24HierarchicalRomFileTable19CreateRootDirectoryEv = 0x00045f34;
_ZN2nn2fs24HierarchicalRomFileTable15CreateDirectoryEPiPKcRKNS0_16RomDirectoryInfoE = 0x00045f8c;
_ZN2nn2fs24HierarchicalRomFileTable22FindDirectoryRecursiveEPNS1_8EntryKeyEPNS1_17DirectoryRomEntryEPKc = 0x00046274;
_ZN2nn2fs24HierarchicalRomFileTable20CheckSameEntryExistsERKNS1_8EntryKeyENS_6ResultE = 0x00046298;
_ZN2nn2fs24HierarchicalRomFileTable10CreateFileEPiPKcRKNS0_11RomFileInfoE = 0x000463bc;
_ZN2nn2fs24HierarchicalRomFileTable17FindFileRecursiveEPNS1_8EntryKeyEPNS1_17DirectoryRomEntryEPKc = 0x00046728;
_ZN2nn2fs24HierarchicalRomFileTable24ConvertPathToDirectoryIdEPiPKc = 0x0004674c;
_ZN2nn2fs24HierarchicalRomFileTable17GetDirectoryEntryEPjPNS1_17DirectoryRomEntryERKNS1_8EntryKeyE = 0x000467d4;
_ZN2nn2fs24HierarchicalRomFileTable19ConvertPathToFileIdEPiPKc = 0x0004691c;
_ZN2nn2fs24HierarchicalRomFileTable12GetFileEntryEPjPNS1_12FileRomEntryERKNS1_8EntryKeyE = 0x000469a8;
_ZN2nn2fs24HierarchicalRomFileTable23GetDirectoryInformationEPNS0_16RomDirectoryInfoEPKc = 0x00046af8;
_ZN2nn2fs24HierarchicalRomFileTable23GetDirectoryInformationEPNS0_16RomDirectoryInfoERKNS1_8EntryKeyE = 0x00046b78;
_ZN2nn2fs24HierarchicalRomFileTable23GetDirectoryInformationEPNS0_16RomDirectoryInfoEi = 0x00046bbc;
_ZN2nn2fs24HierarchicalRomFileTable17GetDirectoryEntryEPNS1_17DirectoryRomEntryEi = 0x00046d00;
_ZN2nn2fs24HierarchicalRomFileTable8OpenFileEPNS0_11RomFileInfoEPKc = 0x00046e58;
_ZN2nn2fs24HierarchicalRomFileTable8OpenFileEPNS0_11RomFileInfoERKNS1_8EntryKeyE = 0x00046ef0;
_ZN2nn2fs24HierarchicalRomFileTable8OpenFileEPNS0_11RomFileInfoEi = 0x00046f54;
_ZN2nn2fs24HierarchicalRomFileTable12GetFileEntryEPNS1_12FileRomEntryEi = 0x000470dc;
_ZN2nn2fs24HierarchicalRomFileTable8FindOpenEPNS1_12FindPositionEPKc = 0x0004723c;
_ZN2nn2fs24HierarchicalRomFileTable8FindOpenEPNS1_12FindPositionERKNS1_8EntryKeyE = 0x000472d4;
_ZN2nn2fs24HierarchicalRomFileTable8FindOpenEPNS1_12FindPositionEi = 0x00047340;
_ZN2nn2fs24HierarchicalRomFileTable17FindNextDirectoryEPcPNS1_12FindPositionEm = 0x000474c8;
_ZN2nn2fs24HierarchicalRomFileTable12FindNextFileEPcPNS1_12FindPositionEm = 0x0004760c;
_ZN2nn2fs24HierarchicalRomFileTable22QueryRomFileSystemSizeEPlS2_ = 0x00047750;
_ZN2nn2fs24HierarchicalRomFileTable8DumpTreeEv = 0x00047768;
_ZN2nn2fs24HierarchicalRomFileTable13DumpDirectoryEji = 0x00047790;
_ZN2nn2fs24HierarchicalRomFileTable14GetGrandparentEPjPNS1_8EntryKeyEPNS1_17DirectoryRomEntryEjNS0_11RomPathTool12RomEntryNameEPKc = 0x00047bf8;
_ZN2nn2fs24HierarchicalRomFileTable28FindParentDirectoryRecursiveEPjPNS1_8EntryKeyEPNS1_17DirectoryRomEntryEPNS0_11RomPathTool10PathParserEPKc = 0x00047cd8;
_ZN2nn2fs24HierarchicalRomFileTable17FindPathRecursiveEPNS1_8EntryKeyEPNS1_17DirectoryRomEntryEbPKc = 0x00047f60;
_ZN2nn2fs10SubStorageD0Ev = 0x0004833c;
_ZN2nn2fs10SubStorage4ReadElPvm = 0x0004837c;
_ZN2nn2fs10SubStorage5WriteElPKvm = 0x00048400;
_ZN2nn2fs10SubStorage5FlushEv = 0x00048484;
_ZN2nn2fs10SubStorage7SetSizeEl = 0x000484b8;
_ZN2nn2fs10SubStorage12OperateRangeENS0_8IStorage11OperationIdEll = 0x00048574;
_ZN2nn2fs26KeyValueRomStorageTemplateINS0_24HierarchicalRomFileTable11RomEntryKeyENS2_17DirectoryRomEntryELi768EE11AddInternalEPjRKS3_jPKvmRKS4_ = 0x000485d4;
_ZN2nn2fs26KeyValueRomStorageTemplateINS0_24HierarchicalRomFileTable11RomEntryKeyENS2_17DirectoryRomEntryELi768EE12FindInternalEPjS6_PNS5_14StorageElementERKS3_jPKvm = 0x000488b4;
_ZN2nn2fs26KeyValueRomStorageTemplateINS0_24HierarchicalRomFileTable11RomEntryKeyENS2_12FileRomEntryELi768EE11AddInternalEPjRKS3_jPKvmRKS4_ = 0x00048b14;
_ZN2nn2fs26KeyValueRomStorageTemplateINS0_24HierarchicalRomFileTable11RomEntryKeyENS2_12FileRomEntryELi768EE12FindInternalEPjS6_PNS5_14StorageElementERKS3_jPKvm = 0x00048e00;
_ZN2nn2fs11RomPathTool10PathParserC2Ev = 0x00049060;
_ZN2nn2fs11RomPathTool10PathParserC1Ev = 0x00049060;
_ZN2nn2fs11RomPathTool10PathParser10InitializeEPKc = 0x00049070;
_ZN2nn2fs11RomPathTool10PathParser8FinalizeEv = 0x000490b4;
_ZNK2nn2fs11RomPathTool10PathParser15IsParseFinishedEv = 0x000490c4;
_ZNK2nn2fs11RomPathTool10PathParser15IsDirectoryPathEv = 0x000490cc;
_ZN2nn2fs11RomPathTool10PathParser20GetNextDirectoryNameEPNS1_12RomEntryNameE = 0x00049128;
_ZNK2nn2fs11RomPathTool10PathParser18GetAsDirectoryNameEPNS1_12RomEntryNameE = 0x000491c4;
_ZNK2nn2fs11RomPathTool10PathParser13GetAsFileNameEPNS1_12RomEntryNameE = 0x000491f4;
_ZN2nn2fs11RomPathTool22GetParentDirectoryNameEPNS1_12RomEntryNameERKS2_PKc = 0x00049224;
_ZN2nn2fs11FileStorageC1Ev = 0x00049340;
_ZN2nn2fs11FileStorageC2Ev = 0x00049340;
_ZN2nn2fs11FileStorageC1EPNS0_3fsa5IFileE = 0x0004935c;
_ZN2nn2fs11FileStorageC2EPNS0_3fsa5IFileE = 0x0004935c;
_ZN2nn2fs11FileStorage4ReadElPvm = 0x0004937c;
_ZN2nn2fs11FileStorage10UpdateSizeEv = 0x0004946c;
_ZN2nn2fs11FileStorage5WriteElPKvm = 0x000494c8;
_ZN2nn2fs11FileStorage7SetSizeEl = 0x000495b4;
_ZN2nn2fs11FileStorage7GetSizeEPl = 0x000495f0;
_ZN2nn2fs11FileStorage5FlushEv = 0x00049658;
_ZN2nn2fs11FileStorage12OperateRangeENS0_8IStorage11OperationIdEll = 0x0004967c;
_ZN2nn2fs26FileStorageBasedFileSystemC2Ev = 0x00049720;
_ZN2nn2fs26FileStorageBasedFileSystemC1Ev = 0x00049720;
_ZN2nn2fs26FileStorageBasedFileSystem10InitializeENSt3__110shared_ptrINS0_3fsa11IFileSystemEEEPKcNS0_8OpenModeE = 0x00049740;
_ZN2nn2fs17FileHandleStorageC1ENS0_10FileHandleE = 0x00049810;
_ZN2nn2fs17FileHandleStorageC2ENS0_10FileHandleE = 0x00049810;
_ZN2nn2fs17FileHandleStorage4ReadElPvm = 0x0004987c;
_ZN2nn2fs17FileHandleStorage5WriteElPKvm = 0x00049934;
_ZN2nn2fs17FileHandleStorage7GetSizeEPl = 0x000499ec;
_ZN2nn2fs17FileHandleStorage5FlushEv = 0x000499fc;
_ZN2nn2fs8IStorageD2Ev = 0x00049a18;
_ZN2nn2fs11FileStorageD0Ev = 0x00049a1c;
_ZN2nn2fs17FileHandleStorageD2Ev = 0x00049a24;
_ZN2nn2fs17FileHandleStorageD0Ev = 0x00049a38;
_ZN2nn2fs8IStorage7SetSizeEl = 0x00049a70;
_ZN2nn2fs8IStorage12OperateRangeENS1_11OperationIdEll = 0x00049a7c;
_ZN2nn2fs26FileStorageBasedFileSystemD2Ev = 0x00049a88;
_ZN2nn2fs26FileStorageBasedFileSystemD0Ev = 0x00049ae0;
_ZN2nn2fs10VerifyPathEPKcii = 0x00049b38;
_ZN2nn2fs29SetResultHandledByApplicationEb = 0x00049cf4;
_ZN2nn2fs6detail13IsAbortNeededENS_6ResultE = 0x00049d04;
_ZN2nn2fs6detail15LogErrorMessageENS_6ResultEPKc = 0x00049dc4;
_ZN2nn2fs15RomFsFileSystemC2Ev = 0x00049df8;
_ZN2nn2fs15RomFsFileSystemC1Ev = 0x00049df8;
_ZN2nn2fs15RomFsFileSystemD1Ev = 0x00049e38;
_ZN2nn2fs15RomFsFileSystemD2Ev = 0x00049e38;
_ZN2nn2fs15RomFsFileSystemD0Ev = 0x00049f40;
_ZN2nn2fs15RomFsFileSystem14GetBaseStorageEv = 0x00049f68;
_ZN2nn2fs15RomFsFileSystem15GetRomFileTableEv = 0x00049f70;
_ZN2nn2fs15RomFsFileSystem28GetRequiredWorkingMemorySizeEPmPNS0_8IStorageE = 0x00049f78;
_ZN2nn2fs15RomFsFileSystem10InitializeEONSt3__110unique_ptrINS0_8IStorageENS2_14default_deleteIS4_EEEEPvmb = 0x0004a008;
_ZN2nn2fs15RomFsFileSystem10InitializeEPNS0_8IStorageEPvmb = 0x0004a078;
_ZN2nn2fs15RomFsFileSystem10DoOpenFileEPNSt3__110unique_ptrINS0_3fsa5IFileENS2_14default_deleteIS5_EEEEPKcNS0_8OpenModeE = 0x0004a98c;
_ZN2nn2fs15RomFsFileSystem11GetFileInfoEPNS0_11RomFileInfoEPKc = 0x0004aa84;
_ZN2nn2fs15RomFsFileSystem15DoOpenDirectoryEPNSt3__110unique_ptrINS0_3fsa10IDirectoryENS2_14default_deleteIS5_EEEEPKcNS0_17OpenDirectoryModeE = 0x0004aae8;
_ZN2nn2fs15RomFsFileSystem14DoGetEntryTypeEPNS0_18DirectoryEntryTypeEPKc = 0x0004abbc;
_ZN2nn2fs15RomFsFileSystem12DoCreateFileEPKcli = 0x0004acac;
_ZN2nn2fs15RomFsFileSystem12DoDeleteFileEPKc = 0x0004acb8;
_ZN2nn2fs15RomFsFileSystem17DoCreateDirectoryEPKc = 0x0004acc4;
_ZN2nn2fs15RomFsFileSystem17DoDeleteDirectoryEPKc = 0x0004acd0;
_ZN2nn2fs15RomFsFileSystem28DoDeleteDirectoryRecursivelyEPKc = 0x0004acdc;
_ZN2nn2fs15RomFsFileSystem27DoCleanDirectoryRecursivelyEPKc = 0x0004ace8;
_ZN2nn2fs15RomFsFileSystem12DoRenameFileEPKcS3_ = 0x0004ad4c;
_ZN2nn2fs15RomFsFileSystem17DoRenameDirectoryEPKcS3_ = 0x0004ad58;
_ZN2nn2fs15RomFsFileSystem8DoCommitEv = 0x0004ad64;
_ZN2nn2fs15RomFsFileSystem18DoGetFreeSpaceSizeEPlPKc = 0x0004ad70;
_ZN2nn2fs15RomFsFileSystem19DoGetTotalSpaceSizeEPlPKc = 0x0004ad7c;
_ZN2nn2fs15RomFsFileSystem17GetFileBaseOffsetEPlPKc = 0x0004ad88;
_ZN2nn2fs3fsa11IFileSystem7DoFlushEv = 0x0004ae1c;
_ZN2nn2fs3fsa11IFileSystem21DoGetFileTimeStampRawEPNS0_16FileTimeStampRawEPKc = 0x0004ae28;
_ZN2nn2fs13MemoryStorageD0Ev = 0x0004ae34;
_ZN2nn2fs13MemoryStorage4ReadElPvm = 0x0004ae3c;
_ZN2nn2fs13MemoryStorage5WriteElPKvm = 0x0004aea8;
_ZN2nn2fs13MemoryStorage5FlushEv = 0x0004af14;
_ZN2nn2fs13MemoryStorage7GetSizeEPl = 0x0004af1c;
_ZN2nn2fs13MemoryStorage12OperateRangeENS0_8IStorage11OperationIdEll = 0x0004af2c;
_ZN2nn2fs3fsa5IFileD2Ev = 0x0004b064;
_ZN2nn2fs3fsa10IDirectoryD2Ev = 0x0004b0d0;
_ZN2nn2fs6detail17DirectoryAccessorC1EONSt3__110unique_ptrINS0_3fsa10IDirectoryENS3_14default_deleteIS6_EEEERNS1_18FileSystemAccessorE = 0x0004b34c;
_ZN2nn2fs6detail17DirectoryAccessorC2EONSt3__110unique_ptrINS0_3fsa10IDirectoryENS3_14default_deleteIS6_EEEERNS1_18FileSystemAccessorE = 0x0004b34c;
_ZN2nn2fs6detail17DirectoryAccessorD1Ev = 0x0004b360;
_ZN2nn2fs6detail17DirectoryAccessorD2Ev = 0x0004b360;
_ZN2nn2fs6detail17DirectoryAccessor4ReadEPlPNS0_14DirectoryEntryEl = 0x0004b3c0;
_ZN2nn2fs6detail17DirectoryAccessor13GetEntryCountEPl = 0x0004b418;
_ZN2nn2fs6detail12FileAccessorC2EONSt3__110unique_ptrINS0_3fsa5IFileENS3_14default_deleteIS6_EEEERNS1_18FileSystemAccessorEi = 0x0004b44c;
_ZN2nn2fs6detail12FileAccessorC1EONSt3__110unique_ptrINS0_3fsa5IFileENS3_14default_deleteIS6_EEEERNS1_18FileSystemAccessorEi = 0x0004b44c;
_ZN2nn2fs6detail12FileAccessorD2Ev = 0x0004b468;
_ZN2nn2fs6detail12FileAccessorD1Ev = 0x0004b468;
_ZN2nn2fs6detail12FileAccessor4ReadEPmlPvmRKNS0_10ReadOptionE = 0x0004b4f4;
_ZN2nn2fs6detail12FileAccessor5WriteElPKvmRKNS0_11WriteOptionE = 0x0004b564;
_ZN2nn2fs6detail12FileAccessor16UpdateLastResultENS_6ResultE = 0x0004b61c;
_ZN2nn2fs6detail12FileAccessor5FlushEv = 0x0004b648;
_ZN2nn2fs6detail12FileAccessor7SetSizeEl = 0x0004b6b0;
_ZN2nn2fs6detail12FileAccessor7GetSizeEPl = 0x0004b72c;
_ZNK2nn2fs6detail12FileAccessor11GetOpenModeEv = 0x0004b768;
_ZN2nn2fs6detail12FileAccessor13GetWriteStateEv = 0x0004b770;
_ZN2nn2fs6detail18FileSystemAccessorC2EPKcONSt3__110unique_ptrINS0_3fsa11IFileSystemENS5_14default_deleteIS8_EEEEONS6_INS7_25ICommonMountNameGeneratorENS9_ISD_EEEE = 0x0004b778;
_ZN2nn2fs6detail18FileSystemAccessorC1EPKcONSt3__110unique_ptrINS0_3fsa11IFileSystemENS5_14default_deleteIS8_EEEEONS6_INS7_25ICommonMountNameGeneratorENS9_ISD_EEEE = 0x0004b778;
_ZN2nn2fs6detail18FileSystemAccessorD1Ev = 0x0004b840;
_ZN2nn2fs6detail18FileSystemAccessorD2Ev = 0x0004b840;
_ZN2nn2fs6detail18FileSystemAccessor24DumpUnclosedAccessorListEii = 0x0004b908;
_ZN2nn2fs6detail18FileSystemAccessorD0Ev = 0x0004ba00;
_ZN2nn2fs6detail18FileSystemAccessor10CreateFileEPKcli = 0x0004ba28;
_ZN2nn2fs6detail18FileSystemAccessor10DeleteFileEPKc = 0x0004bad0;
_ZN2nn2fs6detail18FileSystemAccessor15CreateDirectoryEPKc = 0x0004bb54;
_ZN2nn2fs6detail18FileSystemAccessor15DeleteDirectoryEPKc = 0x0004bbd8;
_ZN2nn2fs6detail18FileSystemAccessor26DeleteDirectoryRecursivelyEPKc = 0x0004bc5c;
_ZN2nn2fs6detail18FileSystemAccessor25CleanDirectoryRecursivelyEPKc = 0x0004bce0;
_ZN2nn2fs6detail18FileSystemAccessor10RenameFileEPKcS4_ = 0x0004bd64;
_ZN2nn2fs6detail18FileSystemAccessor15RenameDirectoryEPKcS4_ = 0x0004be28;
_ZN2nn2fs6detail18FileSystemAccessor12GetEntryTypeEPNS0_18DirectoryEntryTypeEPKc = 0x0004beec;
_ZN2nn2fs6detail18FileSystemAccessor16GetFreeSpaceSizeEPlPKc = 0x0004bf8c;
_ZN2nn2fs6detail18FileSystemAccessor17GetTotalSpaceSizeEPlPKc = 0x0004c02c;
_ZN2nn2fs6detail18FileSystemAccessor8OpenFileEPNSt3__110unique_ptrINS1_12FileAccessorENS3_14default_deleteIS5_EEEEPKcNS0_8OpenModeE = 0x0004c0cc;
_ZN2nn2fs6detail18FileSystemAccessor13OpenDirectoryEPNSt3__110unique_ptrINS1_17DirectoryAccessorENS3_14default_deleteIS5_EEEEPKcNS0_17OpenDirectoryModeE = 0x0004c22c;
_ZN2nn2fs6detail18FileSystemAccessor6CommitEv = 0x0004c388;
_ZN2nn2fs6detail18FileSystemAccessor19GetFileTimeStampRawEPNS0_16FileTimeStampRawEPKc = 0x0004c48c;
_ZN2nn2fs6detail18FileSystemAccessor15NotifyCloseFileEPNS1_12FileAccessorE = 0x0004c4cc;
_ZN2nn2fs6detail18FileSystemAccessor20NotifyCloseDirectoryEPNS1_17DirectoryAccessorE = 0x0004c548;
_ZNK2nn2fs6detail18FileSystemAccessor18GetCommonMountNameEPcm = 0x0004c5c4;
_ZN2nn2fs6detail10MountTable5MountEONSt3__110unique_ptrINS1_18FileSystemAccessorENS3_14default_deleteIS5_EEEE = 0x0004c5f8;
_ZN2nn2fs6detail10MountTable18CanAcceptMountNameEPKc = 0x0004c6a4;
_ZN2nn2fs6detail10MountTable7UnmountEPKc = 0x0004c6fc;
_ZN2nn2fs6detail10MountTable4FindEPPNS1_18FileSystemAccessorEPKc = 0x0004c7a8;
_ZN2nn2fs6detail12GetMountNameEPKc = 0x0004c830;
_ZN2nn2fs6detail14IsWindowsDriveEPKc = 0x0004ca14;
_ZN2nn2fs6detail20IsWindowsDriveLetterEPKc = 0x0004ca48;
_ZN2nn2fs6detail16IsValidMountNameEPKc = 0x0004ca7c;
_ZN2nn2fs6detail23IsUsedReservedMountNameEPKc = 0x0004cabc;
_ZN2nn2fs6detail10GetSubPathEPKc = 0x0004cacc;
_ZN2nn2fs6detail14FindFileSystemEPPNS1_18FileSystemAccessorEPKc = 0x0004cb40;
_ZN2nn2fs6detail14CheckMountNameEPKc = 0x0004cbcc;
_ZN2nn2fs7UnmountEPKc = 0x0004cc18;
_ZN2nn2fs21ConvertToFsCommonPathEPcmPKc = 0x0004cc90;
_ZN2nn2fs3fsa8RegisterEPKcONSt3__110unique_ptrINS1_11IFileSystemENS4_14default_deleteIS6_EEEE = 0x0004ce1c;
_ZN2nn2fs3fsa8RegisterEPKcONSt3__110unique_ptrINS1_11IFileSystemENS4_14default_deleteIS6_EEEEONS5_INS1_25ICommonMountNameGeneratorENS7_ISB_EEEE = 0x0004ced4;
_ZN2nn2fs3fsa10UnregisterEPKc = 0x0004cf68;
_ZN2nn2fs14CloseDirectoryENS0_15DirectoryHandleE = 0x0004cf6c;
_ZN2nn2fs13ReadDirectoryEPlPNS0_14DirectoryEntryENS0_15DirectoryHandleEl = 0x0004cff8;
_ZN2nn2fs22GetDirectoryEntryCountEPlNS0_15DirectoryHandleE = 0x0004d100;
_ZN2nn2fs9CloseFileENS0_10FileHandleE = 0x0004d18c;
_ZN2nn2fs8ReadFileENS0_10FileHandleElPvmRKNS0_10ReadOptionE = 0x0004d218;
_ZN2nn2fs8ReadFileEPmNS0_10FileHandleElPvmRKNS0_10ReadOptionE = 0x0004d304;
_ZN2nn2fs8ReadFileENS0_10FileHandleElPvm = 0x0004d434;
_ZN2nn2fs8ReadFileEPmNS0_10FileHandleElPvm = 0x0004d45c;
_ZN2nn2fs9WriteFileENS0_10FileHandleElPKvmRKNS0_11WriteOptionE = 0x0004d484;
_ZN2nn2fs9FlushFileENS0_10FileHandleE = 0x0004d5bc;
_ZN2nn2fs11SetFileSizeENS0_10FileHandleEl = 0x0004d698;
_ZN2nn2fs11GetFileSizeEPlNS0_10FileHandleE = 0x0004d78c;
_ZN2nn2fs15GetFileOpenModeENS0_10FileHandleE = 0x0004d818;
_ZN2nn2fs10CreateFileEPKcl = 0x0004d81c;
_ZN2nn2fs10DeleteFileEPKc = 0x0004d838;
_ZN2nn2fs15CreateDirectoryEPKc = 0x0004d980;
_ZN2nn2fs15DeleteDirectoryEPKc = 0x0004dac8;
_ZN2nn2fs26DeleteDirectoryRecursivelyEPKc = 0x0004dc10;
_ZN2nn2fs25CleanDirectoryRecursivelyEPKc = 0x0004dd58;
_ZN2nn2fs10RenameFileEPKcS2_ = 0x0004dea0;
_ZN2nn2fs15RenameDirectoryEPKcS2_ = 0x0004e0a0;
_ZN2nn2fs12GetEntryTypeEPNS0_18DirectoryEntryTypeEPKc = 0x0004e2a0;
_ZN2nn2fs8OpenFileEPNS0_10FileHandleEPKci = 0x0004e3f0;
_ZN2nn2fs13OpenDirectoryEPNS0_15DirectoryHandleEPKci = 0x0004e590;
_ZN2nn2fs14CommitSaveDataEPKc = 0x0004e72c;
_ZN2nn2fs10CreateFileEPKcli = 0x0004e858;
_ZN2nn2fs16GetFreeSpaceSizeEPlPKc = 0x0004e9c4;
_ZN2nn2fs17GetTotalSpaceSizeEPlPKc = 0x0004eaac;
_ZN2nn2fs27GetFileTimeStampRawForDebugEPNS0_16FileTimeStampRawEPKc = 0x0004eb94;
_ZN2nn2fs6detail10MountTableD2Ev = 0x0004ec7c;
_ZN2nn2fs6detail8RegisterEONSt3__110unique_ptrINS1_18FileSystemAccessorENS2_14default_deleteIS4_EEEE = 0x0004ec84;
_ZN2nn2fs6detail4FindEPPNS1_18FileSystemAccessorEPKc = 0x0004ecac;
_ZN2nn2fs6detail10UnregisterEPKc = 0x0004ecdc;
_ZN2nn2fs23MountApplicationPackageEPKcS2_ = 0x0004ed3c;
_ZN2nn2fs13FspPathPrintfEPNS_5fssrv2sf7FspPathEPKcz = 0x0004efbc;
_ZN2nn2fs17MountBcatSaveDataEPKcNS_3ncm13ApplicationIdE = 0x0004f0a8;
_ZN2nn2fs6detail8MountBisEPKcNS0_14BisPartitionIdES3_ = 0x0004f2c0;
_ZN2nn2fs15GetBisMountNameENS0_14BisPartitionIdE = 0x0004f53c;
_ZN2nn2fs17SetBisRootForHostENS0_14BisPartitionIdEPKc = 0x0004f5c8;
_ZN2nn2fs8MountBisEPKcNS0_14BisPartitionIdE = 0x0004f714;
_ZN2nn2fs8MountBisENS0_14BisPartitionIdEPKc = 0x0004f72c;
_ZN2nn2fs16OpenBisPartitionEPNSt3__110unique_ptrINS0_8IStorageENS1_14default_deleteIS3_EEEENS0_14BisPartitionIdE = 0x0004f7c0;
_ZN2nn2fs18InvalidateBisCacheEv = 0x0004f900;
_ZN2nn2fs3fsa25ICommonMountNameGeneratorD2Ev = 0x0004faa0;
_ZN2nn2fs9MountCodeEPKcS2_NS_3ncm9ProgramIdE = 0x0004faac;
_ZN2nn2fs12MountContentEPKcS2_NS0_11ContentTypeE = 0x0004fd34;
_ZN2nn2fs12MountContentEPKcS2_NS_3ncm9ProgramIdENS0_11ContentTypeE = 0x0004fd70;
_ZN2nn2fs12MountContentEPKcS2_NS_3ncm6DataIdENS0_11ContentTypeE = 0x0004fff4;
_ZN2nn2fs12MountContentEPKcNS_3ncm9ProgramIdENS0_11ContentTypeE = 0x0005012c;
_ZN2nn2fs19MountContentStorageEPKcNS0_16ContentStorageIdE = 0x0005035c;
_ZN2nn2fs19MountContentStorageENS0_16ContentStorageIdE = 0x00050598;
_ZN2nn2fs26GetContentStorageMountNameENS0_16ContentStorageIdE = 0x000505e0;
_ZN2nn2fs6detail23QueryMountDataCacheSizeEPmNS_3ncm6DataIdENS3_9StorageIdE = 0x000506a4;
_ZN2nn2fs6detail9MountDataEPKcNS_3ncm6DataIdENS4_9StorageIdE = 0x00050930;
_ZN2nn2fs6detail9MountDataEPKcNS_3ncm6DataIdENS4_9StorageIdEPvm = 0x00050b20;
_ZN2nn2fs17CreatePaddingFileEl = 0x00050c28;
_ZN2nn2fs21DeleteAllPaddingFilesEv = 0x00050cdc;
_ZN2nn2fs19MountDeviceSaveDataEPKc = 0x00050d88;
_ZN2nn2fs19MountDeviceSaveDataEPKcNS_3ncm13ApplicationIdE = 0x00050e98;
_ZN2nn2fs35GetAndClearFileSystemProxyErrorInfoEPNS0_24FileSystemProxyErrorInfoE = 0x000510f0;
_ZN2nn2fs6detail26EventNotifierObjectAdapterC2EONS_2sf13SharedPointerINS_5fssrv2sf14IEventNotifierEEE = 0x000511e0;
_ZN2nn2fs6detail26EventNotifierObjectAdapterC1EONS_2sf13SharedPointerINS_5fssrv2sf14IEventNotifierEEE = 0x000511e0;
_ZN2nn2fs6detail26EventNotifierObjectAdapterD1Ev = 0x00051210;
_ZN2nn2fs6detail26EventNotifierObjectAdapterD2Ev = 0x00051210;
_ZN2nn2fs6detail26EventNotifierObjectAdapterD0Ev = 0x00051238;
_ZN2nn2fs6detail26EventNotifierObjectAdapter11DoBindEventEPNS_2os15SystemEventTypeENS3_14EventClearModeE = 0x00051280;
_ZN2nn2fs6detail37InitializeFileSystemCreatorInterfacesEv = 0x00051354;
_ZN2nn2fs19MountImageDirectoryEPKcNS0_16ImageDirectoryIdE = 0x00051358;
_ZN2nn2sf13SharedPointerINS_5fssrv2sf16IFileSystemProxyEED2Ev = 0x00051544;
_ZN2nn2fs6detail41InitializeDfcFileSystemProxyServiceObjectENS_2sf13SharedPointerINS_5fssrv2sf16IFileSystemProxyEEE = 0x0005155c;
_ZN2nn2fs6detail31GetFileSystemProxyServiceObjectEv = 0x000515b4;
_ZN2nn2fs6detail40GetFileSystemProxyForLoaderServiceObjectEv = 0x00051aec;
_ZN2nn2sf13SharedPointerINS_5fssrv2sf25IFileSystemProxyForLoaderEED2Ev = 0x00051fc4;
_ZN2nn2fs6detail31GetProgramRegistryServiceObjectEv = 0x00051fdc;
_ZN2nn2sf13SharedPointerINS_5fssrv2sf16IProgramRegistryEED2Ev = 0x000524b4;
_ZNK2nn2sf13SharedPointerINS_5fssrv2sf16IFileSystemProxyEE19FunctionForBoolTypeEv = 0x000524cc;
_ZN2nn2sf4hipc6client34HipcSimpleClientSessionManagerBaseD2Ev = 0x000524d0;
_ZN2nn2sf4hipc6client34HipcSimpleClientSessionManagerBase4Impl8AllocateEv = 0x0005253c;
_ZN2nn2sf4hipc6client34HipcSimpleClientSessionManagerBase4Impl10DeallocateENS_3svc6HandleE = 0x000525b0;
_ZN2nn2sf4hipc6client34HipcSimpleClientSessionManagerBase4Impl19SetSessionCountImplEi = 0x0005260c;
_ZN2nn2sf4hipc6client34HipcSimpleClientSessionManagerBase4Impl16RemoveHandleImplEv = 0x00052714;
_ZN2nn2sf4cmif6client23CmifDomainClientMessageINS0_4hipc6client38Hipc2ClientSessionManagedProxyKindBaseINS5_18Hipc2ProxyKindBaseILNS4_6detail11MessageTypeE4EEEEEE15ProxyBaseObjectD2Ev = 0x00053b84;
_ZN2nn2sf4cmif6client34CmifDomainProxyClientCoreProcessorINS0_4hipc6client38Hipc2ClientSessionManagedProxyKindBaseINS5_18Hipc2ProxyKindBaseILNS4_6detail11MessageTypeE4EEEEENS1_6detail14CoreMethodInfoINSt3__15tupleIJNSC_17InRawArgumentInfoILm8ELm8ELl0EEEEEELm8ELm0ELb1EEESI_E7ProcessEPNS2_23CmifDomainClientMessageISB_E15ProxyBaseObjectENS2_23InRawClientArgumentTypeILm8ELm8EvEEj = 0x00053cb8;
_ZN2nn2sf4cmif6client34CmifDomainProxyClientCoreProcessorINS0_4hipc6client38Hipc2ClientSessionManagedProxyKindBaseINS5_18Hipc2ProxyKindBaseILNS4_6detail11MessageTypeE4EEEEENS1_6detail14CoreMethodInfoINSt3__15tupleIJNSC_21OutObjectArgumentInfoILi0ELi0EEEEEELm0ELm0ELb0EEESI_E21ProcessWithOutObjectsEPNS2_23CmifDomainClientMessageISB_E15ProxyBaseObjectENS2_27OutObjectClientArgumentTypeEjPNS0_13SharedPointerINS0_14IServiceObjectEEE = 0x00053dfc;
_ZN2nn2sf4cmif6client34CmifDomainProxyClientCoreProcessorINS0_4hipc6client38Hipc2ClientSessionManagedProxyKindBaseINS5_18Hipc2ProxyKindBaseILNS4_6detail11MessageTypeE4EEEEENS1_6detail14CoreMethodInfoINSt3__15tupleIJNSC_18BufferArgumentInfoILi0ELi25ELm769EEENSC_17InRawArgumentInfoILm8ELm8ELl8EEENSI_ILm4ELm4ELl0EEEEEELm16ELm0ELb0EEESL_E7ProcessEPNS2_23CmifDomainClientMessageISB_E15ProxyBaseObjectENS2_24BufferClientArgumentTypeENS2_23InRawClientArgumentTypeILm8ELm8EvEENST_ILm4ELm4EvEEj = 0x00054464;
_ZN2nn2sf4cmif6client34CmifDomainProxyClientCoreProcessorINS0_4hipc6client38Hipc2ClientSessionManagedProxyKindBaseINS5_18Hipc2ProxyKindBaseILNS4_6detail11MessageTypeE4EEEEENS1_6detail14CoreMethodInfoINSt3__15tupleIJNSC_18BufferArgumentInfoILi0ELi25ELm769EEEEEELm0ELm0ELb0EEESI_E7ProcessEPNS2_23CmifDomainClientMessageISB_E15ProxyBaseObjectENS2_24BufferClientArgumentTypeEj = 0x0005463c;
_ZN2nn2sf4cmif6client34CmifDomainProxyClientCoreProcessorINS0_4hipc6client38Hipc2ClientSessionManagedProxyKindBaseINS5_18Hipc2ProxyKindBaseILNS4_6detail11MessageTypeE4EEEEENS1_6detail14CoreMethodInfoINSt3__15tupleIJNSC_18BufferArgumentInfoILi0ELi25ELm769EEENSG_ILi1ELi25ELm769EEEEEELm0ELm0ELb0EEESJ_E7ProcessEPNS2_23CmifDomainClientMessageISB_E15ProxyBaseObjectENS2_24BufferClientArgumentTypeESQ_j = 0x000547f8;
_ZN2nn2sf4cmif6client34CmifDomainProxyClientCoreProcessorINS0_4hipc6client38Hipc2ClientSessionManagedProxyKindBaseINS5_18Hipc2ProxyKindBaseILNS4_6detail11MessageTypeE4EEEEENS1_6detail14CoreMethodInfoINSt3__15tupleIJNSC_18OutRawArgumentInfoILm4ELm4ELl0EEENSC_18BufferArgumentInfoILi0ELi25ELm769EEEEEELm0ELm4ELb0EEESK_E7ProcessEPNS2_23CmifDomainClientMessageISB_E15ProxyBaseObjectENS2_24OutRawClientArgumentTypeILm4ELm4EEENS2_24BufferClientArgumentTypeEj = 0x000549cc;
_ZN2nn2sf4cmif6client34CmifDomainProxyClientCoreProcessorINS0_4hipc6client38Hipc2ClientSessionManagedProxyKindBaseINS5_18Hipc2ProxyKindBaseILNS4_6detail11MessageTypeE4EEEEENS1_6detail14CoreMethodInfoINSt3__15tupleIJNSC_21OutObjectArgumentInfoILi0ELi0EEENSC_18BufferArgumentInfoILi0ELi25ELm769EEENSC_17InRawArgumentInfoILm4ELm4ELl0EEEEEELm4ELm0ELb0EEESM_E21ProcessWithOutObjectsEPNS2_23CmifDomainClientMessageISB_E15ProxyBaseObjectENS2_27OutObjectClientArgumentTypeENS2_24BufferClientArgumentTypeENS2_23InRawClientArgumentTypeILm4ELm4EvEEjPNS0_13SharedPointerINS0_14IServiceObjectEEE = 0x00054ba4;
_ZN2nn2sf4cmif6client34CmifDomainProxyClientCoreProcessorINS0_4hipc6client38Hipc2ClientSessionManagedProxyKindBaseINS5_18Hipc2ProxyKindBaseILNS4_6detail11MessageTypeE4EEEEENS1_6detail14CoreMethodInfoINSt3__15tupleIJNSC_18OutRawArgumentInfoILm8ELm8ELl0EEENSC_17InRawArgumentInfoILm8ELm8ELl8EEENSC_18BufferArgumentInfoILi0ELi70ELm0EEENSI_ILm8ELm8ELl16EEENSI_ILm4ELm4ELl0EEEEEELm24ELm8ELb0EEESO_E7ProcessEPNS2_23CmifDomainClientMessageISB_E15ProxyBaseObjectENS2_24OutRawClientArgumentTypeILm8ELm8EEENS2_23InRawClientArgumentTypeILm8ELm8EvEENS2_24BufferClientArgumentTypeESY_NSX_ILm4ELm4EvEEj = 0x00055038;
_ZN2nn2sf4cmif6client34CmifDomainProxyClientCoreProcessorINS0_4hipc6client38Hipc2ClientSessionManagedProxyKindBaseINS5_18Hipc2ProxyKindBaseILNS4_6detail11MessageTypeE4EEEEENS1_6detail14CoreMethodInfoINSt3__15tupleIJNSC_17InRawArgumentInfoILm8ELm8ELl8EEENSC_18BufferArgumentInfoILi0ELi69ELm0EEENSG_ILm8ELm8ELl16EEENSG_ILm4ELm4ELl0EEEEEELm24ELm0ELb0EEESM_E7ProcessEPNS2_23CmifDomainClientMessageISB_E15ProxyBaseObjectENS2_23InRawClientArgumentTypeILm8ELm8EvEENS2_24BufferClientArgumentTypeESU_NST_ILm4ELm4EvEEj = 0x0005522c;
_ZN2nn2sf4cmif6client34CmifDomainProxyClientCoreProcessorINS0_4hipc6client38Hipc2ClientSessionManagedProxyKindBaseINS5_18Hipc2ProxyKindBaseILNS4_6detail11MessageTypeE4EEEEENS1_6detail14CoreMethodInfoINSt3__15tupleIJEEELm0ELm0ELb0EEESG_E7ProcessEPNS2_23CmifDomainClientMessageISB_E15ProxyBaseObjectEj = 0x0005540c;
_ZN2nn2sf4cmif6client34CmifDomainProxyClientCoreProcessorINS0_4hipc6client38Hipc2ClientSessionManagedProxyKindBaseINS5_18Hipc2ProxyKindBaseILNS4_6detail11MessageTypeE4EEEEENS1_6detail14CoreMethodInfoINSt3__15tupleIJNSC_17InRawArgumentInfoILm8ELm8ELl0EEEEEELm8ELm0ELb0EEESI_E7ProcessEPNS2_23CmifDomainClientMessageISB_E15ProxyBaseObjectENS2_23InRawClientArgumentTypeILm8ELm8EvEEj = 0x00055540;
_ZN2nn2sf4cmif6client34CmifDomainProxyClientCoreProcessorINS0_4hipc6client38Hipc2ClientSessionManagedProxyKindBaseINS5_18Hipc2ProxyKindBaseILNS4_6detail11MessageTypeE4EEEEENS1_6detail14CoreMethodInfoINSt3__15tupleIJNSC_18OutRawArgumentInfoILm8ELm8ELl0EEEEEELm0ELm8ELb0EEESI_E7ProcessEPNS2_23CmifDomainClientMessageISB_E15ProxyBaseObjectENS2_24OutRawClientArgumentTypeILm8ELm8EEEj = 0x0005567c;
_ZN2nn2sf4cmif6client34CmifDomainProxyClientCoreProcessorINS0_4hipc6client38Hipc2ClientSessionManagedProxyKindBaseINS5_18Hipc2ProxyKindBaseILNS4_6detail11MessageTypeE4EEEEENS1_6detail14CoreMethodInfoINSt3__15tupleIJNSC_18OutRawArgumentInfoILm8ELm8ELl0EEENSC_18BufferArgumentInfoILi0ELi6ELm0EEEEEELm0ELm8ELb0EEESK_E7ProcessEPNS2_23CmifDomainClientMessageISB_E15ProxyBaseObjectENS2_24OutRawClientArgumentTypeILm8ELm8EEENS2_24BufferClientArgumentTypeEj = 0x0005597c;
_ZN2nn2sf4cmif6client34CmifDomainProxyClientCoreProcessorINS0_4hipc6client38Hipc2ClientSessionManagedProxyKindBaseINS5_18Hipc2ProxyKindBaseILNS4_6detail11MessageTypeE4EEEEENS1_6detail14CoreMethodInfoINSt3__15tupleIJNSC_18OutRawArgumentInfoILm8ELm8ELl0EEENSC_18BufferArgumentInfoILi0ELi25ELm769EEEEEELm0ELm8ELb0EEESK_E7ProcessEPNS2_23CmifDomainClientMessageISB_E15ProxyBaseObjectENS2_24OutRawClientArgumentTypeILm8ELm8EEENS2_24BufferClientArgumentTypeEj = 0x00055b54;
_ZN2nn2sf4cmif6client34CmifDomainProxyClientCoreProcessorINS0_4hipc6client38Hipc2ClientSessionManagedProxyKindBaseINS5_18Hipc2ProxyKindBaseILNS4_6detail11MessageTypeE4EEEEENS1_6detail14CoreMethodInfoINSt3__15tupleIJNSC_18OutRawArgumentInfoILm32ELm8ELl0EEENSC_18BufferArgumentInfoILi0ELi25ELm769EEEEEELm0ELm32ELb0EEESK_E7ProcessEPNS2_23CmifDomainClientMessageISB_E15ProxyBaseObjectENS2_24OutRawClientArgumentTypeILm32ELm8EEENS2_24BufferClientArgumentTypeEj = 0x00055d2c;
_ZN2nn2sf4cmif6client34CmifDomainProxyClientCoreProcessorINS0_4hipc6client38Hipc2ClientSessionManagedProxyKindBaseINS5_18Hipc2ProxyKindBaseILNS4_6detail11MessageTypeE4EEEEENS1_6detail14CoreMethodInfoINSt3__15tupleIJNSC_21OutObjectArgumentInfoILi0ELi0EEENSC_17InRawArgumentInfoILm8ELm8ELl8EEENSI_ILm4ELm4ELl0EEEEEELm16ELm0ELb0EEESL_E21ProcessWithOutObjectsEPNS2_23CmifDomainClientMessageISB_E15ProxyBaseObjectENS2_27OutObjectClientArgumentTypeENS2_23InRawClientArgumentTypeILm8ELm8EvEENST_ILm4ELm4EvEEjPNS0_13SharedPointerINS0_14IServiceObjectEEE = 0x00055f1c;
_ZN2nn2sf4cmif6client34CmifDomainProxyClientCoreProcessorINS0_4hipc6client38Hipc2ClientSessionManagedProxyKindBaseINS5_18Hipc2ProxyKindBaseILNS4_6detail11MessageTypeE4EEEEENS1_6detail14CoreMethodInfoINSt3__15tupleIJNSC_21OutObjectArgumentInfoILi0ELi0EEENSC_18BufferArgumentInfoILi0ELi25ELm769EEENSC_17InRawArgumentInfoILm8ELm8ELl8EEENSK_ILm4ELm4ELl0EEEEEELm16ELm0ELb0EEESN_E21ProcessWithOutObjectsEPNS2_23CmifDomainClientMessageISB_E15ProxyBaseObjectENS2_27OutObjectClientArgumentTypeENS2_24BufferClientArgumentTypeENS2_23InRawClientArgumentTypeILm8ELm8EvEENSW_ILm4ELm4EvEEjPNS0_13SharedPointerINS0_14IServiceObjectEEE = 0x000560fc;
_ZN2nn2sf4cmif6client34CmifDomainProxyClientCoreProcessorINS0_4hipc6client38Hipc2ClientSessionManagedProxyKindBaseINS5_18Hipc2ProxyKindBaseILNS4_6detail11MessageTypeE4EEEEENS1_6detail14CoreMethodInfoINSt3__15tupleIJNSC_21OutObjectArgumentInfoILi0ELi0EEENSC_17InRawArgumentInfoILm8ELm8ELl0EEEEEELm8ELm0ELb0EEESK_E21ProcessWithOutObjectsEPNS2_23CmifDomainClientMessageISB_E15ProxyBaseObjectENS2_27OutObjectClientArgumentTypeENS2_23InRawClientArgumentTypeILm8ELm8EvEEjPNS0_13SharedPointerINS0_14IServiceObjectEEE = 0x0005636c;
_ZN2nn2sf4cmif6client34CmifDomainProxyClientCoreProcessorINS0_4hipc6client38Hipc2ClientSessionManagedProxyKindBaseINS5_18Hipc2ProxyKindBaseILNS4_6detail11MessageTypeE4EEEEENS1_6detail14CoreMethodInfoINSt3__15tupleIJNSC_21OutObjectArgumentInfoILi0ELi0EEENSC_17InRawArgumentInfoILm4ELm4ELl0EEEEEELm4ELm0ELb0EEESK_E21ProcessWithOutObjectsEPNS2_23CmifDomainClientMessageISB_E15ProxyBaseObjectENS2_27OutObjectClientArgumentTypeENS2_23InRawClientArgumentTypeILm4ELm4EvEEjPNS0_13SharedPointerINS0_14IServiceObjectEEE = 0x00056538;
_ZN2nn2sf4cmif6client34CmifDomainProxyClientCoreProcessorINS0_4hipc6client38Hipc2ClientSessionManagedProxyKindBaseINS5_18Hipc2ProxyKindBaseILNS4_6detail11MessageTypeE4EEEEENS1_6detail14CoreMethodInfoINSt3__15tupleIJNSC_17InRawArgumentInfoILm8ELm8ELl0EEENSC_18BufferArgumentInfoILi0ELi70ELm0EEENSG_ILm8ELm8ELl8EEEEEELm16ELm0ELb0EEESL_E7ProcessEPNS2_23CmifDomainClientMessageISB_E15ProxyBaseObjectENS2_23InRawClientArgumentTypeILm8ELm8EvEENS2_24BufferClientArgumentTypeEST_j = 0x00056934;
_ZN2nn2sf4cmif6client34CmifDomainProxyClientCoreProcessorINS0_4hipc6client38Hipc2ClientSessionManagedProxyKindBaseINS5_18Hipc2ProxyKindBaseILNS4_6detail11MessageTypeE4EEEEENS1_6detail14CoreMethodInfoINSt3__15tupleIJNSC_17InRawArgumentInfoILm8ELm8ELl0EEENSC_18BufferArgumentInfoILi0ELi69ELm0EEENSG_ILm8ELm8ELl8EEEEEELm16ELm0ELb0EEESL_E7ProcessEPNS2_23CmifDomainClientMessageISB_E15ProxyBaseObjectENS2_23InRawClientArgumentTypeILm8ELm8EvEENS2_24BufferClientArgumentTypeEST_j = 0x00056b04;
_ZN2nn2sf4cmif6client34CmifDomainProxyClientCoreProcessorINS0_4hipc6client38Hipc2ClientSessionManagedProxyKindBaseINS5_18Hipc2ProxyKindBaseILNS4_6detail11MessageTypeE4EEEEENS1_6detail14CoreMethodInfoINSt3__15tupleIJNSC_21OutObjectArgumentInfoILi0ELi0EEENSC_18BufferArgumentInfoILi0ELi25ELm769EEEEEELm0ELm0ELb0EEESK_E21ProcessWithOutObjectsEPNS2_23CmifDomainClientMessageISB_E15ProxyBaseObjectENS2_27OutObjectClientArgumentTypeENS2_24BufferClientArgumentTypeEjPNS0_13SharedPointerINS0_14IServiceObjectEEE = 0x00056cd4;
_ZN2nn2sf4cmif6client34CmifDomainProxyClientCoreProcessorINS0_4hipc6client38Hipc2ClientSessionManagedProxyKindBaseINS5_18Hipc2ProxyKindBaseILNS4_6detail11MessageTypeE4EEEEENS1_6detail14CoreMethodInfoINSt3__15tupleIJNSC_17InRawArgumentInfoILm64ELm8ELl0EEENSG_ILm64ELm8ELl64EEENSG_ILm16ELm4ELl128EEEEEELm144ELm0ELb0EEESK_E7ProcessEPNS2_23CmifDomainClientMessageISB_E15ProxyBaseObjectENS2_23InRawClientArgumentTypeILm64ELm8EvEESS_NSR_ILm16ELm4EvEEj = 0x00056f20;
_ZN2nn2sf4cmif6client34CmifDomainProxyClientCoreProcessorINS0_4hipc6client38Hipc2ClientSessionManagedProxyKindBaseINS5_18Hipc2ProxyKindBaseILNS4_6detail11MessageTypeE4EEEEENS1_6detail14CoreMethodInfoINSt3__15tupleIJNSC_17InRawArgumentInfoILm64ELm8ELl0EEENSG_ILm64ELm8ELl64EEEEEELm128ELm0ELb0EEESJ_E7ProcessEPNS2_23CmifDomainClientMessageISB_E15ProxyBaseObjectENS2_23InRawClientArgumentTypeILm64ELm8EvEESR_j = 0x000570b8;
_ZN2nn2sf4cmif6client34CmifDomainProxyClientCoreProcessorINS0_4hipc6client38Hipc2ClientSessionManagedProxyKindBaseINS5_18Hipc2ProxyKindBaseILNS4_6detail11MessageTypeE4EEEEENS1_6detail14CoreMethodInfoINSt3__15tupleIJNSC_18BufferArgumentInfoILi0ELi5ELm0EEEEEELm0ELm0ELb0EEESI_E7ProcessEPNS2_23CmifDomainClientMessageISB_E15ProxyBaseObjectENS2_24BufferClientArgumentTypeEj = 0x00057230;
_ZN2nn2sf4cmif6client34CmifDomainProxyClientCoreProcessorINS0_4hipc6client38Hipc2ClientSessionManagedProxyKindBaseINS5_18Hipc2ProxyKindBaseILNS4_6detail11MessageTypeE4EEEEENS1_6detail14CoreMethodInfoINSt3__15tupleIJNSC_17InRawArgumentInfoILm1ELm1ELl0EEENSG_ILm8ELm8ELl8EEEEEELm16ELm0ELb0EEESJ_E7ProcessEPNS2_23CmifDomainClientMessageISB_E15ProxyBaseObjectENS2_23InRawClientArgumentTypeILm1ELm1EvEENSQ_ILm8ELm8EvEEj = 0x000573ec;
_ZN2nn2sf4cmif6client34CmifDomainProxyClientCoreProcessorINS0_4hipc6client38Hipc2ClientSessionManagedProxyKindBaseINS5_18Hipc2ProxyKindBaseILNS4_6detail11MessageTypeE4EEEEENS1_6detail14CoreMethodInfoINSt3__15tupleIJNSC_18OutRawArgumentInfoILm1ELm1ELl0EEEEEELm0ELm1ELb0EEESI_E7ProcessEPNS2_23CmifDomainClientMessageISB_E15ProxyBaseObjectENS2_24OutRawClientArgumentTypeILm1ELm1EEEj = 0x0005753c;
_ZN2nn2sf4cmif6client34CmifDomainProxyClientCoreProcessorINS0_4hipc6client38Hipc2ClientSessionManagedProxyKindBaseINS5_18Hipc2ProxyKindBaseILNS4_6detail11MessageTypeE4EEEEENS1_6detail14CoreMethodInfoINSt3__15tupleIJNSC_21OutObjectArgumentInfoILi0ELi0EEENSC_17InRawArgumentInfoILm4ELm4ELl0EEENSI_ILm4ELm4ELl4EEEEEELm8ELm0ELb0EEESL_E21ProcessWithOutObjectsEPNS2_23CmifDomainClientMessageISB_E15ProxyBaseObjectENS2_27OutObjectClientArgumentTypeENS2_23InRawClientArgumentTypeILm4ELm4EvEESU_jPNS0_13SharedPointerINS0_14IServiceObjectEEE = 0x00057684;
_ZN2nn2sf4cmif6client34CmifDomainProxyClientCoreProcessorINS0_4hipc6client38Hipc2ClientSessionManagedProxyKindBaseINS5_18Hipc2ProxyKindBaseILNS4_6detail11MessageTypeE4EEEEENS1_6detail14CoreMethodInfoINSt3__15tupleIJNSC_17InRawArgumentInfoILm1ELm1ELl0EEENSG_ILm8ELm8ELl8EEENSG_ILm8ELm8ELl16EEENSG_ILm8ELm8ELl24EEEEEELm32ELm0ELb0EEESL_E7ProcessEPNS2_23CmifDomainClientMessageISB_E15ProxyBaseObjectENS2_23InRawClientArgumentTypeILm1ELm1EvEENSS_ILm8ELm8EvEESU_SU_j = 0x0005785c;
_ZN2nn2sf4cmif6client34CmifDomainProxyClientCoreProcessorINS0_4hipc6client38Hipc2ClientSessionManagedProxyKindBaseINS5_18Hipc2ProxyKindBaseILNS4_6detail11MessageTypeE4EEEEENS1_6detail14CoreMethodInfoINSt3__15tupleIJNSC_21OutObjectArgumentInfoILi0ELi0EEENSC_17InRawArgumentInfoILm1ELm1ELl0EEENSI_ILm64ELm8ELl8EEEEEELm72ELm0ELb0EEESL_E21ProcessWithOutObjectsEPNS2_23CmifDomainClientMessageISB_E15ProxyBaseObjectENS2_27OutObjectClientArgumentTypeENS2_23InRawClientArgumentTypeILm1ELm1EvEENST_ILm64ELm8EvEEjPNS0_13SharedPointerINS0_14IServiceObjectEEE = 0x000579c4;
_ZN2nn2sf4cmif6client34CmifDomainProxyClientCoreProcessorINS0_4hipc6client38Hipc2ClientSessionManagedProxyKindBaseINS5_18Hipc2ProxyKindBaseILNS4_6detail11MessageTypeE4EEEEENS1_6detail14CoreMethodInfoINSt3__15tupleIJNSC_18BufferArgumentInfoILi0ELi6ELm0EEENSC_17InRawArgumentInfoILm1ELm1ELl0EEENSI_ILm8ELm8ELl8EEEEEELm16ELm0ELb0EEESL_E7ProcessEPNS2_23CmifDomainClientMessageISB_E15ProxyBaseObjectENS2_24BufferClientArgumentTypeENS2_23InRawClientArgumentTypeILm1ELm1EvEENST_ILm8ELm8EvEEj = 0x00057bbc;
_ZN2nn2sf4cmif6client34CmifDomainProxyClientCoreProcessorINS0_4hipc6client38Hipc2ClientSessionManagedProxyKindBaseINS5_18Hipc2ProxyKindBaseILNS4_6detail11MessageTypeE4EEEEENS1_6detail14CoreMethodInfoINSt3__15tupleIJNSC_18BufferArgumentInfoILi0ELi6ELm0EEENSC_17InRawArgumentInfoILm8ELm8ELl0EEEEEELm8ELm0ELb0EEESK_E7ProcessEPNS2_23CmifDomainClientMessageISB_E15ProxyBaseObjectENS2_24BufferClientArgumentTypeENS2_23InRawClientArgumentTypeILm8ELm8EvEEj = 0x00057d94;
_ZN2nn2sf4cmif6client34CmifDomainProxyClientCoreProcessorINS0_4hipc6client38Hipc2ClientSessionManagedProxyKindBaseINS5_18Hipc2ProxyKindBaseILNS4_6detail11MessageTypeE4EEEEENS1_6detail14CoreMethodInfoINSt3__15tupleIJNSC_17InRawArgumentInfoILm8ELm8ELl8EEENSG_ILm1ELm1ELl0EEENSC_18BufferArgumentInfoILi0ELi5ELm0EEEEEELm16ELm0ELb0EEESL_E7ProcessEPNS2_23CmifDomainClientMessageISB_E15ProxyBaseObjectENS2_23InRawClientArgumentTypeILm8ELm8EvEENSS_ILm1ELm1EvEENS2_24BufferClientArgumentTypeEj = 0x00057f60;
_ZN2nn2sf4cmif6client34CmifDomainProxyClientCoreProcessorINS0_4hipc6client38Hipc2ClientSessionManagedProxyKindBaseINS5_18Hipc2ProxyKindBaseILNS4_6detail11MessageTypeE4EEEEENS1_6detail14CoreMethodInfoINSt3__15tupleIJNSC_21OutObjectArgumentInfoILi0ELi0EEENSC_17InRawArgumentInfoILm1ELm1ELl0EEEEEELm1ELm0ELb0EEESK_E21ProcessWithOutObjectsEPNS2_23CmifDomainClientMessageISB_E15ProxyBaseObjectENS2_27OutObjectClientArgumentTypeENS2_23InRawClientArgumentTypeILm1ELm1EvEEjPNS0_13SharedPointerINS0_14IServiceObjectEEE = 0x000582d0;
_ZN2nn2sf4cmif6client34CmifDomainProxyClientCoreProcessorINS0_4hipc6client38Hipc2ClientSessionManagedProxyKindBaseINS5_18Hipc2ProxyKindBaseILNS4_6detail11MessageTypeE4EEEEENS1_6detail14CoreMethodInfoINSt3__15tupleIJNSC_21OutObjectArgumentInfoILi0ELi0EEENSC_17InRawArgumentInfoILm1ELm1ELl0EEENSI_ILm64ELm8ELl8EEENSI_ILm4ELm4ELl4EEEEEELm72ELm0ELb0EEESM_E21ProcessWithOutObjectsEPNS2_23CmifDomainClientMessageISB_E15ProxyBaseObjectENS2_27OutObjectClientArgumentTypeENS2_23InRawClientArgumentTypeILm1ELm1EvEENSU_ILm64ELm8EvEENSU_ILm4ELm4EvEEjPNS0_13SharedPointerINS0_14IServiceObjectEEE = 0x0005849c;
_ZN2nn2sf4cmif6client34CmifDomainProxyClientCoreProcessorINS0_4hipc6client38Hipc2ClientSessionManagedProxyKindBaseINS5_18Hipc2ProxyKindBaseILNS4_6detail11MessageTypeE4EEEEENS1_6detail14CoreMethodInfoINSt3__15tupleIJNSC_21OutObjectArgumentInfoILi0ELi0EEENSC_17InRawArgumentInfoILm8ELm8ELl8EEENSI_ILm1ELm1ELl0EEEEEELm16ELm0ELb0EEESL_E21ProcessWithOutObjectsEPNS2_23CmifDomainClientMessageISB_E15ProxyBaseObjectENS2_27OutObjectClientArgumentTypeENS2_23InRawClientArgumentTypeILm8ELm8EvEENST_ILm1ELm1EvEEjPNS0_13SharedPointerINS0_14IServiceObjectEEE = 0x000586a4;
_ZN2nn2sf4cmif6client34CmifDomainProxyClientCoreProcessorINS0_4hipc6client38Hipc2ClientSessionManagedProxyKindBaseINS5_18Hipc2ProxyKindBaseILNS4_6detail11MessageTypeE4EEEEENS1_6detail14CoreMethodInfoINSt3__15tupleIJNSC_18OutRawArgumentInfoILm16ELm4ELl0EEENSG_ILm8ELm8ELl16EEENSC_18BufferArgumentInfoILi0ELi6ELm0EEENSC_17InRawArgumentInfoILm8ELm8ELl0EEEEEELm8ELm24ELb0EEESN_E7ProcessEPNS2_23CmifDomainClientMessageISB_E15ProxyBaseObjectENS2_24OutRawClientArgumentTypeILm16ELm4EEENSU_ILm8ELm8EEENS2_24BufferClientArgumentTypeENS2_23InRawClientArgumentTypeILm8ELm8EvEEj = 0x00058f50;
_ZN2nn2sf4cmif6client34CmifDomainProxyClientCoreProcessorINS0_4hipc6client38Hipc2ClientSessionManagedProxyKindBaseINS5_18Hipc2ProxyKindBaseILNS4_6detail11MessageTypeE4EEEEENS1_6detail14CoreMethodInfoINSt3__15tupleIJNSC_17InRawArgumentInfoILm4ELm4ELl0EEEEEELm4ELm0ELb0EEESI_E7ProcessEPNS2_23CmifDomainClientMessageISB_E15ProxyBaseObjectENS2_23InRawClientArgumentTypeILm4ELm4EvEEj = 0x00059148;
_ZN2nn2sf4cmif6client34CmifDomainProxyClientCoreProcessorINS0_4hipc6client38Hipc2ClientSessionManagedProxyKindBaseINS5_18Hipc2ProxyKindBaseILNS4_6detail11MessageTypeE4EEEEENS1_6detail14CoreMethodInfoINSt3__15tupleIJNSC_18OutRawArgumentInfoILm8ELm8ELl0EEENSC_17InRawArgumentInfoILm4ELm4ELl0EEEEEELm4ELm8ELb0EEESK_E7ProcessEPNS2_23CmifDomainClientMessageISB_E15ProxyBaseObjectENS2_24OutRawClientArgumentTypeILm8ELm8EEENS2_23InRawClientArgumentTypeILm4ELm4EvEEj = 0x00059284;
_ZN2nn2sf4cmif6client34CmifDomainProxyClientCoreProcessorINS0_4hipc6client38Hipc2ClientSessionManagedProxyKindBaseINS5_18Hipc2ProxyKindBaseILNS4_6detail11MessageTypeE4EEEEENS1_6detail14CoreMethodInfoINSt3__15tupleIJNSC_18OutRawArgumentInfoILm4ELm4ELl0EEEEEELm0ELm4ELb0EEESI_E7ProcessEPNS2_23CmifDomainClientMessageISB_E15ProxyBaseObjectENS2_24OutRawClientArgumentTypeILm4ELm4EEEj = 0x000593dc;
_ZN2nn2sf4cmif6client34CmifDomainProxyClientCoreProcessorINS0_4hipc6client38Hipc2ClientSessionManagedProxyKindBaseINS5_18Hipc2ProxyKindBaseILNS4_6detail11MessageTypeE4EEEEENS1_6detail14CoreMethodInfoINSt3__15tupleIJNSC_17InRawArgumentInfoILm4ELm4ELl0EEENSG_ILm8ELm8ELl8EEEEEELm16ELm0ELb0EEESJ_E7ProcessEPNS2_23CmifDomainClientMessageISB_E15ProxyBaseObjectENS2_23InRawClientArgumentTypeILm4ELm4EvEENSQ_ILm8ELm8EvEEj = 0x00059524;
_ZN2nn2sf4cmif6client34CmifDomainProxyClientCoreProcessorINS0_4hipc6client38Hipc2ClientSessionManagedProxyKindBaseINS5_18Hipc2ProxyKindBaseILNS4_6detail11MessageTypeE4EEEEENS1_6detail14CoreMethodInfoINSt3__15tupleIJNSC_18OutRawArgumentInfoILm4ELm4ELl0EEENSG_ILm8ELm8ELl8EEENSC_17InRawArgumentInfoILm4ELm4ELl0EEEEEELm4ELm16ELb0EEESL_E7ProcessEPNS2_23CmifDomainClientMessageISB_E15ProxyBaseObjectENS2_24OutRawClientArgumentTypeILm4ELm4EEENSS_ILm8ELm8EEENS2_23InRawClientArgumentTypeILm4ELm4EvEEj = 0x00059674;
_ZN2nn2sf4cmif6client34CmifDomainProxyClientCoreProcessorINS0_4hipc6client38Hipc2ClientSessionManagedProxyKindBaseINS5_18Hipc2ProxyKindBaseILNS4_6detail11MessageTypeE4EEEEENS1_6detail14CoreMethodInfoINSt3__15tupleIJNSC_18OutRawArgumentInfoILm1ELm1ELl0EEENSC_17InRawArgumentInfoILm4ELm4ELl0EEEEEELm4ELm1ELb0EEESK_E7ProcessEPNS2_23CmifDomainClientMessageISB_E15ProxyBaseObjectENS2_24OutRawClientArgumentTypeILm1ELm1EEENS2_23InRawClientArgumentTypeILm4ELm4EvEEj = 0x000597d8;
_ZN2nn2sf4cmif6client34CmifDomainProxyClientCoreProcessorINS0_4hipc6client38Hipc2ClientSessionManagedProxyKindBaseINS5_18Hipc2ProxyKindBaseILNS4_6detail11MessageTypeE4EEEEENS1_6detail14CoreMethodInfoINSt3__15tupleIJNSC_18BufferArgumentInfoILi0ELi6ELm0EEENSC_17InRawArgumentInfoILm8ELm8ELl8EEENSI_ILm4ELm4ELl0EEEEEELm16ELm0ELb0EEESL_E7ProcessEPNS2_23CmifDomainClientMessageISB_E15ProxyBaseObjectENS2_24BufferClientArgumentTypeENS2_23InRawClientArgumentTypeILm8ELm8EvEENST_ILm4ELm4EvEEj = 0x00059930;
_ZN2nn2sf4cmif6client34CmifDomainProxyClientCoreProcessorINS0_4hipc6client38Hipc2ClientSessionManagedProxyKindBaseINS5_18Hipc2ProxyKindBaseILNS4_6detail11MessageTypeE4EEEEENS1_6detail14CoreMethodInfoINSt3__15tupleIJNSC_18BufferArgumentInfoILi0ELi6ELm0EEENSC_17InRawArgumentInfoILm8ELm8ELl0EEENSG_ILi1ELi5ELm0EEENSI_ILm8ELm8ELl8EEEEEELm16ELm0ELb0EEESM_E7ProcessEPNS2_23CmifDomainClientMessageISB_E15ProxyBaseObjectENS2_24BufferClientArgumentTypeENS2_23InRawClientArgumentTypeILm8ELm8EvEEST_SV_j = 0x00059b08;
_ZN2nn2sf4cmif6client34CmifDomainProxyClientCoreProcessorINS0_4hipc6client38Hipc2ClientSessionManagedProxyKindBaseINS5_18Hipc2ProxyKindBaseILNS4_6detail11MessageTypeE4EEEEENS1_6detail14CoreMethodInfoINSt3__15tupleIJNSC_17InRawArgumentInfoILm8ELm8ELl0EEENSC_18BufferArgumentInfoILi0ELi6ELm0EEENSG_ILm8ELm8ELl8EEEEEELm16ELm0ELb0EEESL_E7ProcessEPNS2_23CmifDomainClientMessageISB_E15ProxyBaseObjectENS2_23InRawClientArgumentTypeILm8ELm8EvEENS2_24BufferClientArgumentTypeEST_j = 0x00059cf8;
_ZN2nn2sf4cmif6client34CmifDomainProxyClientCoreProcessorINS0_4hipc6client38Hipc2ClientSessionManagedProxyKindBaseINS5_18Hipc2ProxyKindBaseILNS4_6detail11MessageTypeE4EEEEENS1_6detail14CoreMethodInfoINSt3__15tupleIJNSC_17InRawArgumentInfoILm1ELm1ELl0EEEEEELm1ELm0ELb0EEESI_E7ProcessEPNS2_23CmifDomainClientMessageISB_E15ProxyBaseObjectENS2_23InRawClientArgumentTypeILm1ELm1EvEEj = 0x00059ec8;
_ZN2nn2sf4cmif6client34CmifDomainProxyClientCoreProcessorINS0_4hipc6client38Hipc2ClientSessionManagedProxyKindBaseINS5_18Hipc2ProxyKindBaseILNS4_6detail11MessageTypeE4EEEEENS1_6detail14CoreMethodInfoINSt3__15tupleIJNSC_18BufferArgumentInfoILi0ELi5ELm0EEENSC_17InRawArgumentInfoILm8ELm8ELl0EEEEEELm8ELm0ELb0EEESK_E7ProcessEPNS2_23CmifDomainClientMessageISB_E15ProxyBaseObjectENS2_24BufferClientArgumentTypeENS2_23InRawClientArgumentTypeILm8ELm8EvEEj = 0x0005a004;
_ZN2nn2sf4cmif6client34CmifDomainProxyClientCoreProcessorINS0_4hipc6client38Hipc2ClientSessionManagedProxyKindBaseINS5_18Hipc2ProxyKindBaseILNS4_6detail11MessageTypeE4EEEEENS1_6detail14CoreMethodInfoINSt3__15tupleIJNSC_18OutRawArgumentInfoILm16ELm2ELl0EEEEEELm0ELm16ELb0EEESI_E7ProcessEPNS2_23CmifDomainClientMessageISB_E15ProxyBaseObjectENS2_24OutRawClientArgumentTypeILm16ELm2EEEj = 0x0005a1d0;
_ZN2nn2sf4cmif6client34CmifDomainProxyClientCoreProcessorINS0_4hipc6client38Hipc2ClientSessionManagedProxyKindBaseINS5_18Hipc2ProxyKindBaseILNS4_6detail11MessageTypeE4EEEEENS1_6detail14CoreMethodInfoINSt3__15tupleIJNSC_18OutRawArgumentInfoILm64ELm4ELl0EEEEEELm0ELm64ELb0EEESI_E7ProcessEPNS2_23CmifDomainClientMessageISB_E15ProxyBaseObjectENS2_24OutRawClientArgumentTypeILm64ELm4EEEj = 0x0005a320;
_ZN2nn2sf4cmif6client34CmifDomainProxyClientCoreProcessorINS0_4hipc6client38Hipc2ClientSessionManagedProxyKindBaseINS5_18Hipc2ProxyKindBaseILNS4_6detail11MessageTypeE4EEEEENS1_6detail14CoreMethodInfoINSt3__15tupleIJNSC_21OutHandleArgumentInfoILi0ELi1EEEEEELm0ELm0ELb0EEESI_E7ProcessEPNS2_23CmifDomainClientMessageISB_E15ProxyBaseObjectENS2_27OutHandleClientArgumentTypeEj = 0x0005a600;
_ZN2nn2sf4hipc6client28Hipc2ClientCoreProcessorImpl19GetOutNativeHandlesEPNS1_6detail17HipcMessageReaderEiiPNS0_12NativeHandleEPKi = 0x0005a7a4;
_ZN2nn2sf4cmif6client34CmifDomainProxyClientCoreProcessorINS0_4hipc6client38Hipc2ClientSessionManagedProxyKindBaseINS5_18Hipc2ProxyKindBaseILNS4_6detail11MessageTypeE4EEEEENS1_6detail14CoreMethodInfoINSt3__15tupleIJNSC_18OutRawArgumentInfoILm8ELm8ELl0EEENSC_17InRawArgumentInfoILm8ELm8ELl0EEENSI_ILm8ELm8ELl8EEEEEELm16ELm8ELb0EEESL_E7ProcessEPNS2_23CmifDomainClientMessageISB_E15ProxyBaseObjectENS2_24OutRawClientArgumentTypeILm8ELm8EEENS2_23InRawClientArgumentTypeILm8ELm8EvEESV_j = 0x0005a89c;
_ZN2nn2sf4cmif6client34CmifDomainProxyClientCoreProcessorINS0_4hipc6client38Hipc2ClientSessionManagedProxyKindBaseINS5_18Hipc2ProxyKindBaseILNS4_6detail11MessageTypeE4EEEEENS1_6detail14CoreMethodInfoINSt3__15tupleIJNSC_17InRawArgumentInfoILm8ELm8ELl0EEENSC_18BufferArgumentInfoILi0ELi6ELm0EEEEEELm8ELm0ELb0EEESK_E7ProcessEPNS2_23CmifDomainClientMessageISB_E15ProxyBaseObjectENS2_23InRawClientArgumentTypeILm8ELm8EvEENS2_24BufferClientArgumentTypeEj = 0x0005a9f8;
_ZN2nn2sf4cmif6client34CmifDomainProxyClientCoreProcessorINS0_4hipc6client38Hipc2ClientSessionManagedProxyKindBaseINS5_18Hipc2ProxyKindBaseILNS4_6detail11MessageTypeE4EEEEENS1_6detail14CoreMethodInfoINSt3__15tupleIJNSC_18OutRawArgumentInfoILm16ELm8ELl0EEENSC_17InRawArgumentInfoILm8ELm8ELl8EEENSI_ILm1ELm1ELl0EEEEEELm16ELm16ELb0EEESL_E7ProcessEPNS2_23CmifDomainClientMessageISB_E15ProxyBaseObjectENS2_24OutRawClientArgumentTypeILm16ELm8EEENS2_23InRawClientArgumentTypeILm8ELm8EvEENSU_ILm1ELm1EvEEj = 0x0005abc4;
_ZN2nn2sf4cmif6client34CmifDomainProxyClientCoreProcessorINS0_4hipc6client38Hipc2ClientSessionManagedProxyKindBaseINS5_18Hipc2ProxyKindBaseILNS4_6detail11MessageTypeE4EEEEENS1_6detail14CoreMethodInfoINSt3__15tupleIJNSC_17InRawArgumentInfoILm16ELm8ELl0EEENSG_ILm16ELm1ELl16EEEEEELm32ELm0ELb0EEESJ_E7ProcessEPNS2_23CmifDomainClientMessageISB_E15ProxyBaseObjectENS2_23InRawClientArgumentTypeILm16ELm8EvEENSQ_ILm16ELm1EvEEj = 0x0005ad30;
_ZN2nn2sf4cmif6client34CmifDomainProxyClientCoreProcessorINS0_4hipc6client38Hipc2ClientSessionManagedProxyKindBaseINS5_18Hipc2ProxyKindBaseILNS4_6detail11MessageTypeE4EEEEENS1_6detail14CoreMethodInfoINSt3__15tupleIJNSC_18OutRawArgumentInfoILm16ELm8ELl0EEENSC_18BufferArgumentInfoILi0ELi25ELm769EEEEEELm0ELm16ELb0EEESK_E7ProcessEPNS2_23CmifDomainClientMessageISB_E15ProxyBaseObjectENS2_24OutRawClientArgumentTypeILm16ELm8EEENS2_24BufferClientArgumentTypeEj = 0x0005ae98;
_ZN2nn2sf4cmif6client34CmifDomainProxyClientCoreProcessorINS0_4hipc6client38Hipc2ClientSessionManagedProxyKindBaseINS5_18Hipc2ProxyKindBaseILNS4_6detail11MessageTypeE4EEEEENS1_6detail14CoreMethodInfoINSt3__15tupleIJNSC_18OutRawArgumentInfoILm16ELm8ELl8EEENSG_ILm1ELm1ELl0EEENSC_18BufferArgumentInfoILi0ELi25ELm769EEEEEELm0ELm24ELb0EEESL_E7ProcessEPNS2_23CmifDomainClientMessageISB_E15ProxyBaseObjectENS2_24OutRawClientArgumentTypeILm16ELm8EEENSS_ILm1ELm1EEENS2_24BufferClientArgumentTypeEj = 0x0005b078;
_ZN2nn2sf4cmif6client34CmifDomainProxyClientCoreProcessorINS0_4hipc6client38Hipc2ClientSessionManagedProxyKindBaseINS5_18Hipc2ProxyKindBaseILNS4_6detail11MessageTypeE4EEEEENS1_6detail14CoreMethodInfoINSt3__15tupleIJNSC_17InRawArgumentInfoILm16ELm1ELl0EEEEEELm16ELm0ELb0EEESI_E7ProcessEPNS2_23CmifDomainClientMessageISB_E15ProxyBaseObjectENS2_23InRawClientArgumentTypeILm16ELm1EvEEj = 0x0005b264;
_ZN2nn2sf4cmif6client34CmifDomainProxyClientCoreProcessorINS0_4hipc6client38Hipc2ClientSessionManagedProxyKindBaseINS5_18Hipc2ProxyKindBaseILNS4_6detail11MessageTypeE4EEEEENS1_6detail14CoreMethodInfoINSt3__15tupleIJNSC_18OutRawArgumentInfoILm128ELm4ELl0EEEEEELm0ELm128ELb0EEESI_E7ProcessEPNS2_23CmifDomainClientMessageISB_E15ProxyBaseObjectENS2_24OutRawClientArgumentTypeILm128ELm4EEEj = 0x0005b3ac;
_ZN2nn2sf4cmif6client34CmifDomainProxyClientCoreProcessorINS0_4hipc6client38Hipc2ClientSessionManagedProxyKindBaseINS5_18Hipc2ProxyKindBaseILNS4_6detail11MessageTypeE4EEEEENS1_6detail14CoreMethodInfoINSt3__15tupleIJNSC_17InRawArgumentInfoILm4ELm4ELl0EEENSC_18BufferArgumentInfoILi0ELi25ELm769EEEEEELm4ELm0ELb0EEESK_E7ProcessEPNS2_23CmifDomainClientMessageISB_E15ProxyBaseObjectENS2_23InRawClientArgumentTypeILm4ELm4EvEENS2_24BufferClientArgumentTypeEj = 0x0005b4fc;
_ZN2nn2sf4cmif6client34CmifDomainProxyClientCoreProcessorINS0_4hipc6client38Hipc2ClientSessionManagedProxyKindBaseINS5_18Hipc2ProxyKindBaseILNS4_6detail11MessageTypeE4EEEEENS1_6detail14CoreMethodInfoINSt3__15tupleIJNSC_17InRawArgumentInfoILm8ELm8ELl0EEENSG_ILm8ELm8ELl8EEEEEELm16ELm0ELb0EEESJ_E7ProcessEPNS2_23CmifDomainClientMessageISB_E15ProxyBaseObjectENS2_23InRawClientArgumentTypeILm8ELm8EvEESR_j = 0x0005b6c8;
_ZN2nn2sf4cmif6client34CmifDomainProxyClientCoreProcessorINS0_4hipc6client38Hipc2ClientSessionManagedProxyKindBaseINS5_18Hipc2ProxyKindBaseILNS4_6detail11MessageTypeE4EEEEENS1_6detail14CoreMethodInfoINSt3__15tupleIJNSC_21OutObjectArgumentInfoILi0ELi0EEENSC_18BufferArgumentInfoILi0ELi25ELm769EEENSC_17InRawArgumentInfoILm8ELm8ELl0EEEEEELm8ELm0ELb0EEESM_E21ProcessWithOutObjectsEPNS2_23CmifDomainClientMessageISB_E15ProxyBaseObjectENS2_27OutObjectClientArgumentTypeENS2_24BufferClientArgumentTypeENS2_23InRawClientArgumentTypeILm8ELm8EvEEjPNS0_13SharedPointerINS0_14IServiceObjectEEE = 0x0005b974;
_ZN2nn2sf4cmif6client34CmifDomainProxyClientCoreProcessorINS0_4hipc6client38Hipc2ClientSessionManagedProxyKindBaseINS5_18Hipc2ProxyKindBaseILNS4_6detail11MessageTypeE4EEEEENS1_6detail14CoreMethodInfoINSt3__15tupleIJNSC_18OutRawArgumentInfoILm1ELm1ELl0EEENSC_17InRawArgumentInfoILm8ELm8ELl0EEEEEELm8ELm1ELb0EEESK_E7ProcessEPNS2_23CmifDomainClientMessageISB_E15ProxyBaseObjectENS2_24OutRawClientArgumentTypeILm1ELm1EEENS2_23InRawClientArgumentTypeILm8ELm8EvEEj = 0x0005bbd0;
_ZN2nn2sf4cmif6client34CmifDomainProxyClientCoreProcessorINS0_4hipc6client38Hipc2ClientSessionManagedProxyKindBaseINS5_18Hipc2ProxyKindBaseILNS4_6detail11MessageTypeE4EEEEENS1_6detail14CoreMethodInfoINSt3__15tupleIJNSC_17InRawArgumentInfoILm8ELm8ELl8EEENSG_ILm8ELm8ELl16EEENSG_ILm1ELm1ELl0EEENSC_18BufferArgumentInfoILi0ELi5ELm0EEENSG_ILm8ELm8ELl24EEENSK_ILi1ELi5ELm0EEENSG_ILm8ELm8ELl32EEEEEELm40ELm0ELb0EEESP_E7ProcessEPNS2_23CmifDomainClientMessageISB_E15ProxyBaseObjectENS2_23InRawClientArgumentTypeILm8ELm8EvEESX_NSW_ILm1ELm1EvEENS2_24BufferClientArgumentTypeESX_SZ_SX_j = 0x0005be58;
_ZN2nn2fs6detail24FileServiceObjectAdapterC1EONS_2sf13SharedPointerINS_5fssrv2sf5IFileEEE = 0x0005c084;
_ZN2nn2fs6detail24FileServiceObjectAdapterC2EONS_2sf13SharedPointerINS_5fssrv2sf5IFileEEE = 0x0005c084;
_ZN2nn2fs6detail24FileServiceObjectAdapterD2Ev = 0x0005c0b4;
_ZN2nn2fs6detail24FileServiceObjectAdapterD1Ev = 0x0005c0b4;
_ZN2nn2fs6detail24FileServiceObjectAdapterD0Ev = 0x0005c0dc;
_ZN2nn2fs6detail24FileServiceObjectAdapter6DoReadEPmlPvmRKNS0_10ReadOptionE = 0x0005c124;
_ZN2nn2fs6detail24FileServiceObjectAdapter7DoWriteElPKvmRKNS0_11WriteOptionE = 0x0005c184;
_ZN2nn2fs6detail24FileServiceObjectAdapter7DoFlushEv = 0x0005c1bc;
_ZN2nn2fs6detail24FileServiceObjectAdapter9DoSetSizeEl = 0x0005c1e0;
_ZN2nn2fs6detail24FileServiceObjectAdapter9DoGetSizeEPl = 0x0005c204;
_ZN2nn2fs6detail24FileServiceObjectAdapter14DoOperateRangeENS0_3fsa5IFile11OperationIdEll = 0x0005c228;
_ZN2nn2fs6detail29DirectoryServiceObjectAdapterC2EONS_2sf13SharedPointerINS_5fssrv2sf10IDirectoryEEE = 0x0005c234;
_ZN2nn2fs6detail29DirectoryServiceObjectAdapterC1EONS_2sf13SharedPointerINS_5fssrv2sf10IDirectoryEEE = 0x0005c234;
_ZN2nn2fs6detail29DirectoryServiceObjectAdapterD1Ev = 0x0005c264;
_ZN2nn2fs6detail29DirectoryServiceObjectAdapterD2Ev = 0x0005c264;
_ZN2nn2fs6detail29DirectoryServiceObjectAdapterD0Ev = 0x0005c28c;
_ZN2nn2fs6detail29DirectoryServiceObjectAdapter6DoReadEPlPNS0_14DirectoryEntryEl = 0x0005c2d4;
_ZN2nn2fs6detail29DirectoryServiceObjectAdapter15DoGetEntryCountEPl = 0x0005c310;
_ZN2nn2fs6detail30FileSystemServiceObjectAdapterC2EONS_2sf13SharedPointerINS_5fssrv2sf11IFileSystemEEE = 0x0005c334;
_ZN2nn2fs6detail30FileSystemServiceObjectAdapterC1EONS_2sf13SharedPointerINS_5fssrv2sf11IFileSystemEEE = 0x0005c334;
_ZN2nn2fs6detail30FileSystemServiceObjectAdapterD2Ev = 0x0005c364;
_ZN2nn2fs6detail30FileSystemServiceObjectAdapterD1Ev = 0x0005c364;
_ZN2nn2fs6detail30FileSystemServiceObjectAdapterD0Ev = 0x0005c38c;
_ZN2nn2fs6detail30FileSystemServiceObjectAdapter12DoCreateFileEPKcli = 0x0005c3d4;
_ZN2nn2fs6detail30FileSystemServiceObjectAdapter12DoDeleteFileEPKc = 0x0005c4a0;
_ZN2nn2fs6detail30FileSystemServiceObjectAdapter17DoCreateDirectoryEPKc = 0x0005c554;
_ZN2nn2fs6detail30FileSystemServiceObjectAdapter17DoDeleteDirectoryEPKc = 0x0005c608;
_ZN2nn2fs6detail30FileSystemServiceObjectAdapter28DoDeleteDirectoryRecursivelyEPKc = 0x0005c6bc;
_ZN2nn2fs6detail30FileSystemServiceObjectAdapter27DoCleanDirectoryRecursivelyEPKc = 0x0005c770;
_ZN2nn2fs6detail30FileSystemServiceObjectAdapter12DoRenameFileEPKcS4_ = 0x0005c824;
_ZN2nn2fs6detail30FileSystemServiceObjectAdapter17DoRenameDirectoryEPKcS4_ = 0x0005c95c;
_ZN2nn2fs6detail30FileSystemServiceObjectAdapter14DoGetEntryTypeEPNS0_18DirectoryEntryTypeEPKc = 0x0005ca94;
_ZN2nn2fs6detail30FileSystemServiceObjectAdapter18DoGetFreeSpaceSizeEPlPKc = 0x0005cb58;
_ZN2nn2fs6detail30FileSystemServiceObjectAdapter19DoGetTotalSpaceSizeEPlPKc = 0x0005cc1c;
_ZN2nn2fs6detail30FileSystemServiceObjectAdapter10DoOpenFileEPNSt3__110unique_ptrINS0_3fsa5IFileENS3_14default_deleteIS6_EEEEPKcNS0_8OpenModeE = 0x0005cce0;
_ZN2nn2fs6detail30FileSystemServiceObjectAdapter15DoOpenDirectoryEPNSt3__110unique_ptrINS0_3fsa10IDirectoryENS3_14default_deleteIS6_EEEEPKcNS0_17OpenDirectoryModeE = 0x0005ce48;
_ZN2nn2fs6detail30FileSystemServiceObjectAdapter8DoCommitEv = 0x0005cfb0;
_ZN2nn2fs6detail30FileSystemServiceObjectAdapter21DoGetFileTimeStampRawEPNS0_16FileTimeStampRawEPKc = 0x0005cfd4;
_ZN2nn2fs17GetGameCardHandleEPj = 0x0005d098;
_ZN2nn2fs34OpenGameCardDetectionEventNotifierEPNSt3__110unique_ptrINS0_14IEventNotifierENS1_14default_deleteIS3_EEEE = 0x0005d1c8;
_ZN2nn2fs18IsGameCardInsertedEv = 0x0005d308;
_ZN2nn2fs21OpenGameCardPartitionEPNSt3__110unique_ptrINS0_8IStorageENS1_14default_deleteIS3_EEEEjNS0_20GameCardPartitionRawE = 0x0005d40c;
_ZN2nn2fs13EraseGameCardENS0_12GameCardSizeEm = 0x0005d554;
_ZN2nn2fs22MountGameCardPartitionEPKcjNS0_17GameCardPartitionE = 0x0005d680;
_ZN2nn2fs30GetGameCardUpdatePartitionInfoEPNS0_27GameCardUpdatePartitionInfoEj = 0x0005d8b4;
_ZN2nn2fs22FinalizeGameCardDriverEv = 0x0005d9f8;
_ZN2nn2fs20GetGameCardAttributeEPNS0_17GameCardAttributeEj = 0x0005dae8;
_ZN2nn2fs28GetGameCardDeviceCertificateEPvmj = 0x0005dc14;
_ZN2nn2fs19GetGameCardAsicInfoEPNS_2gc14RmaInformationEPKvm = 0x0005dd54;
_ZN2nn2fs16GetGameCardIdSetEPNS_2gc13GameCardIdSetE = 0x0005debc;
_ZN2nn2fs14GetGameCardCidEPvm = 0x0005dffc;
_ZN2nn2fs15WriteToGameCardElPvm = 0x0005e170;
_ZN2nn2fs25SetVerifyWriteEnalbleFlagEb = 0x0005e2b0;
_ZN2nn2fs20GetGameCardImageHashEPvmj = 0x0005e3d4;
_ZN2nn2fs30GetGameCardDeviceIdForProdCardEPvmS1_m = 0x0005e514;
_ZN2nn2fs26EraseAndWriteParamDirectlyEPvm = 0x0005e660;
_ZN2nn2fs17ReadParamDirectlyEPvm = 0x0005e790;
_ZN2nn2fs18ForceEraseGameCardEv = 0x0005e8c0;
_ZN2nn2fs20GetGameCardErrorInfoEPNS0_17GameCardErrorInfoE = 0x0005e9d4;
_ZN2nn2fs26GetGameCardErrorReportInfoEPNS0_23GameCardErrorReportInfoE = 0x0005eb0c;
_ZN2nn2fs34CheckGameCardPartitionAvailabilityEjNS0_17GameCardPartitionE = 0x0005ec44;
_ZN2nn2fs19GetGameCardDeviceIdEPvm = 0x0005ed24;
_ZN2nn2fs9MountHostEPKcS2_ = 0x0005ef50;
_ZN2nn2fs13MountHostRootEv = 0x0005f1d8;
_ZN2nn2fs15UnmountHostRootEv = 0x0005f374;
_ZN2nn2fs6detail18OpenHostFileSystemEPNSt3__110unique_ptrINS0_3fsa11IFileSystemENS2_14default_deleteIS5_EEEEPKcSB_ = 0x0005f380;
_ZN2nn2fs6detail27InitializeFileSystemLibraryEv = 0x0005f6c0;
_ZN2nn2fs17IsArchivedProgramEPbNS_2os9ProcessIdE = 0x0005f704;
_ZN2nn2fs9MountLogoEPKcS2_NS_3ncm9ProgramIdE = 0x0005f7c0;
_ZN2nn2fs12SetAllocatorEPFPvmEPFvS1_mE = 0x0005fa44;
_ZN2nn2fs6detail8AllocateEm = 0x0005fb48;
_ZN2nn2fs6detail10DeallocateEPvm = 0x0005fb9c;
_ZN2nn2fs15GetMmcSpeedModeEPNS0_12MmcSpeedModeE = 0x0005fc00;
_ZN2nn2fs9GetMmcCidEPvm = 0x0005fd64;
_ZN2nn2fs8EraseMmcENS0_12MmcPartitionE = 0x0005fec4;
_ZN2nn2fs19GetMmcPartitionSizeEPlNS0_12MmcPartitionE = 0x0005ffe8;
_ZN2nn2fs17GetMmcPatrolCountEPj = 0x00060144;
_ZN2nn2fs23GetAndClearMmcErrorInfoEPNS0_16StorageErrorInfoEPmPcm = 0x00060298;
_ZN2nn2fs17GetMmcExtendedCsdEPvm = 0x0006041c;
_ZN2nn2fs15RegisterProgramEmmhPKvmS2_m = 0x0006057c;
_ZN2nn2fs17UnregisterProgramEm = 0x00060628;
_ZN2nn2fs29SetEnabledProgramVerificationEb = 0x000606a4;
_ZN2nn2fs19SetCurrentPosixTimeENS_4time9PosixTimeE = 0x00060720;
_ZN2nn2fs11GetRightsIdEPNS0_8RightsIdENS_3ncm9ProgramIdENS3_9StorageIdE = 0x000607d4;
_ZN2nn2fs11GetRightsIdEPNS0_8RightsIdEPKc = 0x000608dc;
_ZN2nn2fs11GetRightsIdEPNS0_8RightsIdEPhPKc = 0x00060a40;
_ZN2nn2fs19RegisterExternalKeyERKNS0_8RightsIdERKNS_3spl9AccessKeyE = 0x00060bb0;
_ZN2nn2fs24UnregisterAllExternalKeyEv = 0x00060c6c;
_ZN2nn2fs22QueryMountRomCacheSizeEPm = 0x00060d18;
_ZN2nn2fs22QueryMountRomCacheSizeEPmNS_13ApplicationIdE = 0x00060f90;
_ZN2nn2fs8MountRomEPKcPvm = 0x00061210;
_ZN2nn2fs8MountRomEPKcNS_13ApplicationIdEPvm = 0x000613a8;
_ZN2nn2fs19CanMountRomForDebugEv = 0x00061544;
_ZN2nn2fs11CanMountRomENS_13ApplicationIdE = 0x000615d8;
_ZN2nn2fs26ReadOnlyFileSystemTemplateINSt3__110unique_ptrINS0_3fsa11IFileSystemENS2_14default_deleteIS5_EEEEED2Ev = 0x00061a34;
_ZN2nn2fs26ReadOnlyFileSystemTemplateINSt3__110unique_ptrINS0_3fsa11IFileSystemENS2_14default_deleteIS5_EEEEED0Ev = 0x00061a60;
_ZN2nn2fs26ReadOnlyFileSystemTemplateINSt3__110unique_ptrINS0_3fsa11IFileSystemENS2_14default_deleteIS5_EEEEE12DoCreateFileEPKcli = 0x00061aa8;
_ZN2nn2fs26ReadOnlyFileSystemTemplateINSt3__110unique_ptrINS0_3fsa11IFileSystemENS2_14default_deleteIS5_EEEEE12DoDeleteFileEPKc = 0x00061ab4;
_ZN2nn2fs26ReadOnlyFileSystemTemplateINSt3__110unique_ptrINS0_3fsa11IFileSystemENS2_14default_deleteIS5_EEEEE17DoCreateDirectoryEPKc = 0x00061ac0;
_ZN2nn2fs26ReadOnlyFileSystemTemplateINSt3__110unique_ptrINS0_3fsa11IFileSystemENS2_14default_deleteIS5_EEEEE17DoDeleteDirectoryEPKc = 0x00061acc;
_ZN2nn2fs26ReadOnlyFileSystemTemplateINSt3__110unique_ptrINS0_3fsa11IFileSystemENS2_14default_deleteIS5_EEEEE28DoDeleteDirectoryRecursivelyEPKc = 0x00061ad8;
_ZN2nn2fs26ReadOnlyFileSystemTemplateINSt3__110unique_ptrINS0_3fsa11IFileSystemENS2_14default_deleteIS5_EEEEE27DoCleanDirectoryRecursivelyEPKc = 0x00061ae4;
_ZN2nn2fs26ReadOnlyFileSystemTemplateINSt3__110unique_ptrINS0_3fsa11IFileSystemENS2_14default_deleteIS5_EEEEE12DoRenameFileEPKcSB_ = 0x00061af0;
_ZN2nn2fs26ReadOnlyFileSystemTemplateINSt3__110unique_ptrINS0_3fsa11IFileSystemENS2_14default_deleteIS5_EEEEE17DoRenameDirectoryEPKcSB_ = 0x00061afc;
_ZN2nn2fs26ReadOnlyFileSystemTemplateINSt3__110unique_ptrINS0_3fsa11IFileSystemENS2_14default_deleteIS5_EEEEE14DoGetEntryTypeEPNS0_18DirectoryEntryTypeEPKc = 0x00061b08;
_ZN2nn2fs26ReadOnlyFileSystemTemplateINSt3__110unique_ptrINS0_3fsa11IFileSystemENS2_14default_deleteIS5_EEEEE18DoGetFreeSpaceSizeEPlPKc = 0x00061b48;
_ZN2nn2fs26ReadOnlyFileSystemTemplateINSt3__110unique_ptrINS0_3fsa11IFileSystemENS2_14default_deleteIS5_EEEEE19DoGetTotalSpaceSizeEPlPKc = 0x00061b54;
_ZN2nn2fs26ReadOnlyFileSystemTemplateINSt3__110unique_ptrINS0_3fsa11IFileSystemENS2_14default_deleteIS5_EEEEE10DoOpenFileEPNS3_INS4_5IFileENS6_ISA_EEEEPKcNS0_8OpenModeE = 0x00061b60;
_ZN2nn2fs26ReadOnlyFileSystemTemplateINSt3__110unique_ptrINS0_3fsa11IFileSystemENS2_14default_deleteIS5_EEEEE15DoOpenDirectoryEPNS3_INS4_10IDirectoryENS6_ISA_EEEEPKcNS0_17OpenDirectoryModeE = 0x00061c48;
_ZN2nn2fs26ReadOnlyFileSystemTemplateINSt3__110unique_ptrINS0_3fsa11IFileSystemENS2_14default_deleteIS5_EEEEE8DoCommitEv = 0x00061cb4;
_ZN2nn2fs28QueryMountRomOnFileCacheSizeEPmNS0_10FileHandleE = 0x00061e28;
_ZN2nn2fs14MountRomOnFileEPKcNS0_10FileHandleEPvm = 0x00061fe8;
_ZN2nn2fs13MountSaveDataEPKcNS0_6UserIdE = 0x000621c8;
_ZN2nn2fs13MountSaveDataEPKcNS_3ncm13ApplicationIdENS0_6UserIdE = 0x0006249c;
_ZN2nn2fs21MountSaveDataReadOnlyEPKcNS_3ncm13ApplicationIdENS0_6UserIdE = 0x000625d8;
_ZN2nn2fs18IsSaveDataExistingERKNS0_6UserIdE = 0x00062714;
_ZN2nn2fs18IsSaveDataExistingENS_3ncm13ApplicationIdERKNS0_6UserIdE = 0x00062724;
_ZN2nn2fs21MountTemporaryStorageEPKc = 0x00062840;
_ZN2nn2fs17MountCacheStorageEPKc = 0x00062958;
_ZN2nn2fs17MountCacheStorageEPKcNS_3ncm13ApplicationIdE = 0x00062a70;
_ZN2nn2fs19SetSaveDataRootPathEPKc = 0x00062d28;
_ZN2nn2fs21MountSaveDataForDebugEPKc = 0x00062e90;
_ZN2nn2fs14DeleteSaveDataEm = 0x00062eb0;
_ZN2nn2fs14DeleteSaveDataENS0_15SaveDataSpaceIdEm = 0x00062f64;
_ZN2nn2fs30RegisterSaveDataAtomicDeletionEPmi = 0x00063020;
_ZN2nn2fs16SaveDataIterator16ReadSaveDataInfoEPlPNS0_12SaveDataInfoEl = 0x000630e0;
_ZN2nn2fs16SaveDataIteratorC1EONS_2sf13SharedPointerINS_5fssrv2sf19ISaveDataInfoReaderEEE = 0x00063198;
_ZN2nn2fs16SaveDataIteratorC2EONS_2sf13SharedPointerINS_5fssrv2sf19ISaveDataInfoReaderEEE = 0x00063198;
_ZN2nn2fs20OpenSaveDataIteratorEPNSt3__110unique_ptrINS0_16SaveDataIteratorENS1_14default_deleteIS3_EEEENS0_15SaveDataSpaceIdE = 0x000631b8;
_ZN2nn2fs14CreateSaveDataENS_3ncm13ApplicationIdENS0_6UserIdEmllj = 0x00063340;
_ZN2nn2fs18CreateBcatSaveDataENS_3ncm13ApplicationIdEl = 0x00063468;
_ZN2nn2fs20CreateDeviceSaveDataENS_3ncm13ApplicationIdEmllj = 0x00063570;
_ZN2nn2fs22CreateTemporaryStorageENS_3ncm13ApplicationIdEmlj = 0x00063684;
_ZN2nn2fs18CreateCacheStorageENS_3ncm13ApplicationIdEmllj = 0x0006378c;
_ZN2nn2fs20CreateSystemSaveDataENS0_15SaveDataSpaceIdEmNS0_6UserIdEmllj = 0x000638a0;
_ZN2nn2fs20CreateSystemSaveDataEmNS0_6UserIdEmllj = 0x000639b4;
_ZN2nn2fs20CreateSystemSaveDataEmNS0_6UserIdEllj = 0x00063a08;
_ZN2nn2fs20CreateSystemSaveDataEmmllj = 0x00063a58;
_ZN2nn2fs20CreateSystemSaveDataEmllj = 0x00063aa4;
_ZN2nn2fs20CreateSystemSaveDataENS0_15SaveDataSpaceIdEmmllj = 0x00063aec;
_ZN2nn2fs14ExtendSaveDataENS0_15SaveDataSpaceIdEmll = 0x00063b2c;
_ZN2nn2fs22QuerySaveDataTotalSizeEPlll = 0x00063c00;
_ZN2nn2fs18GetSaveDataOwnerIdEPmm = 0x00063ccc;
_ZN2nn2fs18GetSaveDataOwnerIdEPmNS0_15SaveDataSpaceIdEm = 0x00063dd4;
_ZN2nn2fs16GetSaveDataFlagsEPjm = 0x00063eec;
_ZN2nn2fs16GetSaveDataFlagsEPjNS0_15SaveDataSpaceIdEm = 0x00063f30;
_ZN2nn2fs16SetSaveDataFlagsEmNS0_15SaveDataSpaceIdEj = 0x00063f74;
_ZN2nn2fs20GetSaveDataTimeStampEPNS_4time9PosixTimeEm = 0x0006406c;
_ZN2nn2fs20GetSaveDataTimeStampEPNS_4time9PosixTimeENS0_15SaveDataSpaceIdEm = 0x000640b0;
_ZN2nn2fs24GetSaveDataAvailableSizeEPlm = 0x000640f4;
_ZN2nn2fs24GetSaveDataAvailableSizeEPlNS0_15SaveDataSpaceIdEm = 0x00064138;
_ZN2nn2fs22GetSaveDataJournalSizeEPlm = 0x0006417c;
_ZN2nn2fs22GetSaveDataJournalSizeEPlNS0_15SaveDataSpaceIdEm = 0x000641c0;
_ZN2nn2fs14VerifySaveDataEPbmPvm = 0x00064204;
_ZN2nn2fs23CorruptSaveDataForDebugEm = 0x000642fc;
_ZN2nn2fs27DisableAutoSaveDataCreationEv = 0x000643b0;
_ZN2nn2fs25OpenSaveDataThumbnailFileEPNSt3__110unique_ptrINS0_3fsa5IFileENS1_14default_deleteIS4_EEEEmRNS0_6UserIdE = 0x00064444;
_ZN2nn2fs25ReadSaveDataThumbnailFileEmNS0_6UserIdEPvmS2_m = 0x00064584;
_ZN2nn2fs31ReadSaveDataThumbnailFileHeaderEmNS0_6UserIdEPvm = 0x000648d8;
_ZN2nn2fs26WriteSaveDataThumbnailFileEmNS0_6UserIdEPKvmS3_m = 0x00064a64;
_ZN2nn2fs32WriteSaveDataThumbnailFileHeaderEmNS0_6UserIdEPKvm = 0x00064d6c;
_ZN2nn2fs36CorruptSaveDataThumbnailFileForDebugEmNS0_6UserIdE = 0x00064f80;
_ZN2nn2fs11MountSdCardEPKc = 0x000650b8;
_ZN2nn2fs19MountSdCardForDebugEPKc = 0x000652e4;
_ZN2nn2fs32OpenSdCardDetectionEventNotifierEPNSt3__110unique_ptrINS0_14IEventNotifierENS1_14default_deleteIS3_EEEE = 0x000652fc;
_ZN2nn2fs16IsSdCardInsertedEv = 0x0006543c;
_ZN2nn2fs18GetSdCardSpeedModeEPNS0_15SdCardSpeedModeE = 0x00065540;
_ZN2nn2fs12GetSdCardCidEPvm = 0x000656a4;
_ZN2nn2fs21GetSdCardUserAreaSizeEPl = 0x00065804;
_ZN2nn2fs26GetSdCardProtectedAreaSizeEPl = 0x00065958;
_ZN2nn2fs26GetAndClearSdCardErrorInfoEPNS0_16StorageErrorInfoEPmPcm = 0x00065aac;
_ZN2nn2fs12FormatSdCardEv = 0x00065c30;
_ZN2nn2fs18FormatSdCardDryRunEv = 0x00065cdc;
_ZN2nn2fs16IsExFatSupportedEv = 0x00065d88;
_ZN2nn2fs23SetSdCardEncryptionSeedERKNS0_14EncryptionSeedE = 0x00065e30;
_ZN2nn2fs21SetSpeedEmulationModeENS0_18SpeedEmulationModeE = 0x00065ee4;
_ZN2nn2fs21GetSpeedEmulationModeEPNS0_18SpeedEmulationModeE = 0x00066008;
_ZN2nn2fs29QueryMountSystemDataCacheSizeEPmNS_3ncm12SystemDataIdE = 0x0006616c;
_ZN2nn2fs15MountSystemDataEPKcNS_3ncm12SystemDataIdE = 0x00066284;
_ZN2nn2fs15MountSystemDataEPKcNS_3ncm12SystemDataIdEPvm = 0x00066308;
_ZN2nn2fs19MountSystemSaveDataEPKcm = 0x0006639c;
_ZN2nn2fs19MountSystemSaveDataEPKcmNS0_6UserIdE = 0x000663c8;
_ZN2nn2fs19MountSystemSaveDataEPKcNS0_15SaveDataSpaceIdEm = 0x000663fc;
_ZN2nn2fs19MountSystemSaveDataEPKcNS0_15SaveDataSpaceIdEmNS0_6UserIdE = 0x0006641c;
_ZN2nn2fs6detail27StorageServiceObjectAdapterC1EONS_2sf13SharedPointerINS_5fssrv2sf8IStorageEEE = 0x00066644;
_ZN2nn2fs6detail27StorageServiceObjectAdapterC2EONS_2sf13SharedPointerINS_5fssrv2sf8IStorageEEE = 0x00066644;
_ZN2nn2fs6detail27StorageServiceObjectAdapterD2Ev = 0x00066674;
_ZN2nn2fs6detail27StorageServiceObjectAdapterD1Ev = 0x00066674;
_ZN2nn2fs6detail27StorageServiceObjectAdapterD0Ev = 0x0006669c;
_ZN2nn2fs6detail27StorageServiceObjectAdapter4ReadElPvm = 0x000666e4;
_ZN2nn2fs6detail27StorageServiceObjectAdapter5WriteElPKvm = 0x00066718;
_ZN2nn2fs6detail27StorageServiceObjectAdapter5FlushEv = 0x0006674c;
_ZN2nn2fs6detail27StorageServiceObjectAdapter7SetSizeEl = 0x00066770;
_ZN2nn2fs6detail27StorageServiceObjectAdapter7GetSizeEPl = 0x00066794;
_ZN2nn2sf13SharedPointerINS_3tma11IHtcManagerEED2Ev = 0x000667b8;
_ZN2nn3htc10InitializeEv = 0x000667d0;
_ZN2nn3htc8FinalizeEv = 0x0006685c;
_ZN2nn3htc28GetEnvironmentVariableLengthEPmPKc = 0x000668b4;
_ZN2nn3htc22GetEnvironmentVariableEPmPcmPKc = 0x00066998;
_ZN2nn3htc23BindHostConnectionEventEPNS_2os11SystemEventE = 0x00066a94;
_ZN2nn3htc26BindHostDisconnectionEventEPNS_2os11SystemEventE = 0x00066b30;
_ZN2nn3htc32BindHostConnectionEventForSystemEPNS_2os11SystemEventE = 0x00066bcc;
_ZN2nn3htc35BindHostDisconnectionEventForSystemEPNS_2os11SystemEventE = 0x00066c68;
_ZN2nn3htc18GetBridgeIpAddressEPcm = 0x00066d04;
_ZN2nn3htc13GetBridgePortEPcm = 0x00066d74;
_ZN2nn3htc22CreateHtcManagerByHipcEv = 0x00066e04;
_ZN2nn2sf4hipc6client24Hipc2ClientCoreProcessorILNS1_6detail11MessageTypeE4ENS0_4cmif6detail14CoreMethodInfoINSt3__15tupleIJNS7_18OutRawArgumentInfoILm4ELm4ELl0EEENS7_18BufferArgumentInfoILi0ELi6ELm0EEENSD_ILi1ELi5ELm0EEEEEELm0ELm4ELb0EEESG_E7ProcessEPNS2_26Hipc2ClientProxyBaseObjectENS6_6client24OutRawClientArgumentTypeILm4ELm4EEENSL_24BufferClientArgumentTypeESO_j = 0x00067108;
_ZN2nn2sf4hipc6client24Hipc2ClientCoreProcessorILNS1_6detail11MessageTypeE4ENS0_4cmif6detail14CoreMethodInfoINSt3__15tupleIJNS7_18OutRawArgumentInfoILm4ELm4ELl0EEENS7_18BufferArgumentInfoILi0ELi5ELm0EEEEEELm0ELm4ELb0EEESF_E7ProcessEPNS2_26Hipc2ClientProxyBaseObjectENS6_6client24OutRawClientArgumentTypeILm4ELm4EEENSK_24BufferClientArgumentTypeEj = 0x00067288;
_ZN2nn2sf4hipc6client24Hipc2ClientCoreProcessorILNS1_6detail11MessageTypeE4ENS0_4cmif6detail14CoreMethodInfoINSt3__15tupleIJNS7_21OutHandleArgumentInfoILi0ELi1EEEEEELm0ELm0ELb0EEESD_E7ProcessEPNS2_26Hipc2ClientProxyBaseObjectENS6_6client27OutHandleClientArgumentTypeEj = 0x000673f0;
_ZN2nn2sf4hipc6client24Hipc2ClientCoreProcessorILNS1_6detail11MessageTypeE4ENS0_4cmif6detail14CoreMethodInfoINSt3__15tupleIJNS7_17InRawArgumentInfoILm1ELm1ELl0EEEEEELm1ELm0ELb0EEESD_E7ProcessEPNS2_26Hipc2ClientProxyBaseObjectENS6_6client23InRawClientArgumentTypeILm1ELm1EvEEj = 0x0006753c;
_ZN2nn3htc34GetTargetEnvironmentVariableLengthEPmPKc = 0x0006766c;
_ZN2nn3htc28GetTargetEnvironmentVariableEPmPcmPKc = 0x00067c14;
_ZN2nn3htc43WaitUntilTargetEnvironmentVariableAvailableENS_8TimeSpanE = 0x00067d0c;
_ZN2nn2sf13SharedPointerINS_3htc4tenv15IServiceManagerEED2Ev = 0x00067d9c;
_ZNK2nn6result6detail19ResultAutoConvertercvT_INS_2sf13SharedPointerINS_3htc4tenv8IServiceEEEEEv = 0x00067db4;
_ZN2nn2sf4cmif6client34CmifDomainProxyClientCoreProcessorINS0_4hipc6client38Hipc2ClientSessionManagedProxyKindBaseINS5_18Hipc2ProxyKindBaseILNS4_6detail11MessageTypeE4EEEEENS1_6detail14CoreMethodInfoINSt3__15tupleIJNSC_21OutObjectArgumentInfoILi0ELi0EEENSC_17InRawArgumentInfoILm8ELm8ELl0EEEEEELm8ELm0ELb1EEESK_E21ProcessWithOutObjectsEPNS2_23CmifDomainClientMessageISB_E15ProxyBaseObjectENS2_27OutObjectClientArgumentTypeENS2_23InRawClientArgumentTypeILm8ELm8EvEEjPNS0_13SharedPointerINS0_14IServiceObjectEEE = 0x00067ef0;
_ZN2nn2sf4cmif6client34CmifDomainProxyClientCoreProcessorINS0_4hipc6client38Hipc2ClientSessionManagedProxyKindBaseINS5_18Hipc2ProxyKindBaseILNS4_6detail11MessageTypeE4EEEEENS1_6detail14CoreMethodInfoINSt3__15tupleIJNSC_18OutRawArgumentInfoILm8ELm8ELl0EEENSC_18BufferArgumentInfoILi0ELi6ELm0EEENSC_17InRawArgumentInfoILm64ELm1ELl0EEEEEELm64ELm8ELb0EEESM_E7ProcessEPNS2_23CmifDomainClientMessageISB_E15ProxyBaseObjectENS2_24OutRawClientArgumentTypeILm8ELm8EEENS2_24BufferClientArgumentTypeENS2_23InRawClientArgumentTypeILm64ELm1EvEEj = 0x0006827c;
_ZN2nn2sf4cmif6client34CmifDomainProxyClientCoreProcessorINS0_4hipc6client38Hipc2ClientSessionManagedProxyKindBaseINS5_18Hipc2ProxyKindBaseILNS4_6detail11MessageTypeE4EEEEENS1_6detail14CoreMethodInfoINSt3__15tupleIJNSC_18OutRawArgumentInfoILm8ELm8ELl0EEENSC_17InRawArgumentInfoILm64ELm1ELl0EEEEEELm64ELm8ELb0EEESK_E7ProcessEPNS2_23CmifDomainClientMessageISB_E15ProxyBaseObjectENS2_24OutRawClientArgumentTypeILm8ELm8EEENS2_23InRawClientArgumentTypeILm64ELm1EvEEj = 0x00068468;
_ZN2nn6result6detail27ResultToReturnTypeConverterINS_2sf13SharedPointerINS_3htc4tenv8IServiceEEEvE7ConvertENS_6ResultE = 0x000685cc;
_ZN2nn4init5StartEmmPFvvES2_ = 0x00068668;
_ZN2nn4lmem12SetFillValueENS0_8FillTypeEj = 0x000686c8;
_ZN2nn4lmem12GetFillValueENS0_8FillTypeE = 0x000686cc;
_ZN2nn4lmem12GetTotalSizeEPNS0_6detail8HeapHeadE = 0x000686d0;
_ZN2nn4lmem15GetStartAddressEPNS0_6detail8HeapHeadE = 0x0006871c;
_ZN2nn4lmem10HasAddressEPNS0_6detail8HeapHeadEPv = 0x00068760;
_ZN2nn4lmem13CreateExpHeapEPvmi = 0x000687b4;
_ZN2nn4lmem14DestroyExpHeapEPNS0_6detail8HeapHeadE = 0x000687f0;
_ZN2nn4lmem19AllocateFromExpHeapEPNS0_6detail8HeapHeadEm = 0x00068820;
_ZN2nn4lmem19AllocateFromExpHeapEPNS0_6detail8HeapHeadEmi = 0x00068878;
_ZN2nn4lmem13FreeToExpHeapEPNS0_6detail8HeapHeadEPv = 0x000688dc;
_ZN2nn4lmem18ResizeExpHeapBlockEPNS0_6detail8HeapHeadEPvm = 0x00068930;
_ZN2nn4lmem13AdjustExpHeapEPNS0_6detail8HeapHeadE = 0x00068994;
_ZN2nn4lmem23GetExpHeapTotalFreeSizeEPNS0_6detail8HeapHeadE = 0x000689f0;
_ZN2nn4lmem25GetExpHeapAllocatableSizeEPNS0_6detail8HeapHeadEi = 0x00068a3c;
_ZN2nn4lmem24SetExpHeapAllocationModeEPNS0_6detail8HeapHeadENS0_14AllocationModeE = 0x00068a90;
_ZN2nn4lmem24GetExpHeapAllocationModeEPNS0_6detail8HeapHeadE = 0x00068ae4;
_ZN2nn4lmem30SetExpHeapUseMarginOfAlignmentEPNS0_6detail8HeapHeadEb = 0x00068b30;
_ZN2nn4lmem30GetExpHeapUseMarginOfAlignmentEPNS0_6detail8HeapHeadE = 0x00068b84;
_ZN2nn4lmem17SetExpHeapGroupIdEPNS0_6detail8HeapHeadEt = 0x00068bd0;
_ZN2nn4lmem17GetExpHeapGroupIdEPNS0_6detail8HeapHeadE = 0x00068c24;
_ZN2nn4lmem19GetExpHeapBlockSizeEPKv = 0x00068c70;
_ZN2nn4lmem24GetExpHeapGroupIdOfBlockEPKv = 0x00068c74;
_ZN2nn4lmem36GetExpHeapAllocationDirectionOfBlockEPKv = 0x00068c78;
_ZN2nn4lmem12CheckExpHeapEPNS0_6detail8HeapHeadEi = 0x00068c90;
_ZN2nn4lmem17CheckExpHeapBlockEPNS0_6detail8HeapHeadEPKvi = 0x00068ce4;
_ZN2nn4lmem21VisitExpHeapAllBlocksEPNS0_6detail8HeapHeadEPFvPvS3_mEm = 0x00068d48;
_ZN2nn4lmem11DumpExpHeapEPNS0_6detail8HeapHeadE = 0x00068db0;
_ZN2nn4lmem15CreateFrameHeapEPvmi = 0x00068dfc;
_ZN2nn4lmem15CreateFrameHeapEPvmiPNS0_6detail8HeapHeadE = 0x00068e38;
_ZN2nn4lmem16DestroyFrameHeapEPNS0_6detail8HeapHeadE = 0x00068e74;
_ZN2nn4lmem15AdjustFrameHeapEPNS0_6detail8HeapHeadENS0_10AdjustModeE = 0x00068ea4;
_ZN2nn4lmem21AllocateFromFrameHeapEPNS0_6detail8HeapHeadEm = 0x00068f08;
_ZN2nn4lmem21AllocateFromFrameHeapEPNS0_6detail8HeapHeadEmi = 0x00068f60;
_ZN2nn4lmem15FreeToFrameHeapEPNS0_6detail8HeapHeadENS0_8FreeModeE = 0x00068fc4;
_ZN2nn4lmem20ResizeFrameHeapBlockEPNS0_6detail8HeapHeadEPvm = 0x00069018;
_ZN2nn4lmem27GetFrameHeapAllocatableSizeEPNS0_6detail8HeapHeadEi = 0x0006907c;
_ZN2nn4lmem17GetFrameHeapStateEPNS0_6detail8HeapHeadE = 0x000690d0;
_ZN2nn4lmem21RestoreFrameHeapStateEPNS0_6detail8HeapHeadERKNS0_14FrameHeapStateE = 0x0006912c;
_ZN2nn4lmem13DumpFrameHeapEPNS0_6detail8HeapHeadE = 0x00069180;
_ZN2nn4lmem14CreateUnitHeapEPvmmi = 0x000691cc;
_ZN2nn4lmem14CreateUnitHeapEPvmmiiNS0_13InfoPlacementE = 0x00069218;
_ZN2nn4lmem14CreateUnitHeapEPvmmiiPNS0_6detail8HeapHeadE = 0x00069260;
_ZN2nn4lmem15DestroyUnitHeapEPNS0_6detail8HeapHeadE = 0x000692b0;
_ZN2nn4lmem18InvalidateUnitHeapEPNS0_6detail8HeapHeadE = 0x000692e0;
_ZN2nn4lmem18ExtendUnitHeapAreaEPNS0_6detail8HeapHeadEm = 0x0006932c;
_ZN2nn4lmem20AllocateFromUnitHeapEPNS0_6detail8HeapHeadE = 0x00069380;
_ZN2nn4lmem14FreeToUnitHeapEPNS0_6detail8HeapHeadEPv = 0x000693cc;
_ZN2nn4lmem19GetUnitHeapUnitSizeEPNS0_6detail8HeapHeadE = 0x00069420;
_ZN2nn4lmem27GetUnitHeapAllocatableCountEPNS0_6detail8HeapHeadE = 0x00069424;
_ZN2nn4lmem25GetUnitHeapAllocatedCountEPNS0_6detail8HeapHeadE = 0x00069470;
_ZN2nn4lmem20GetUnitHeapAlignmentEPNS0_6detail8HeapHeadE = 0x000694bc;
_ZN2nn4lmem23GetRequiredUnitHeapSizeEmiib = 0x000694c0;
_ZN2nn4lmem12DumpUnitHeapEPNS0_6detail8HeapHeadE = 0x000694c8;
_ZN2nn4lmem6detail12InitHeapHeadEPNS1_8HeapHeadEjPvS4_i = 0x00069514;
_ZN2nn4lmem6detail12FinalizeHeapEPNS1_8HeapHeadE = 0x00069524;
_ZN2nn4lmem6detail12DumpHeapHeadEPKNS1_8HeapHeadE = 0x00069528;
_ZN2nn4lmem6detail14SetHeapFillValEij = 0x0006952c;
_ZN2nn4lmem6detail14GetHeapFillValEi = 0x00069544;
_ZN2nn4lmem6detail10HasAddressEPNS1_8HeapHeadEPv = 0x00069554;
_ZN2nn4lmem6detail16GetHeapTotalSizeEPNS1_8HeapHeadE = 0x000695b8;
_ZN2nn4lmem6detail13CreateExpHeapEPvmi = 0x0006961c;
_ZN2nn4lmem6detail14DestroyExpHeapEPNS1_8HeapHeadE = 0x000696b0;
_ZN2nn4lmem6detail16AllocFromExpHeapEPNS1_8HeapHeadEmi = 0x000696b4;
_ZN2nn4lmem6detail24ResizeExpHeapMemoryBlockEPNS1_8HeapHeadEPvm = 0x00069850;
_ZN2nn4lmem6detail13FreeToExpHeapEPNS1_8HeapHeadEPv = 0x00069ad0;
_ZN2nn4lmem6detail23GetExpHeapTotalFreeSizeEPNS1_8HeapHeadE = 0x00069b3c;
_ZN2nn4lmem6detail25GetExpHeapAllocatableSizeEPNS1_8HeapHeadEi = 0x00069b64;
_ZN2nn4lmem6detail19SetExpHeapAllocModeEPNS1_8HeapHeadEt = 0x00069be0;
_ZN2nn4lmem6detail19GetExpHeapAllocModeEPNS1_8HeapHeadE = 0x00069bf8;
_ZN2nn4lmem6detail30SetUseExpHeapMarginOfAlignmentEPNS1_8HeapHeadEb = 0x00069c04;
_ZN2nn4lmem6detail30GetUseExpHeapMarginOfAlignmentEPNS1_8HeapHeadE = 0x00069c18;
_ZN2nn4lmem6detail17SetExpHeapGroupIdEPNS1_8HeapHeadEt = 0x00069c20;
_ZN2nn4lmem6detail17GetExpHeapGroupIdEPNS1_8HeapHeadE = 0x00069c30;
_ZN2nn4lmem6detail25GetExpHeapMemoryBlockSizeEPKv = 0x00069c38;
_ZN2nn4lmem6detail25GetMemoryBlockHeapGroupIdEPKv = 0x00069c40;
_ZN2nn4lmem6detail26GetMemoryBlockHeapAllocDirEPKv = 0x00069c48;
_ZN2nn4lmem6detail13AdjustExpHeapEPNS1_8HeapHeadE = 0x00069c54;
_ZN2nn4lmem6detail12CheckExpHeapEPNS1_8HeapHeadEj = 0x00069cd0;
_ZN2nn4lmem6detail23CheckExpHeapMemoryBlockEPKvPNS1_8HeapHeadEj = 0x00069e74;
_ZN2nn4lmem6detail21VisitExpHeapAllocatedEPNS1_8HeapHeadEPFvPvS3_mEm = 0x0006a018;
_ZN2nn4lmem6detail11DumpExpHeapEPNS1_8HeapHeadE = 0x0006a068;
_ZN2nn4lmem6detail17GetNextBlockFrontEPNS1_8HeapHeadE = 0x0006a260;
_ZN2nn4lmem6detail16GetNextBlockRearEPNS1_8HeapHeadE = 0x0006a268;
_ZN2nn4lmem6detail15CreateFrameHeapEPvmi = 0x0006a270;
_ZN2nn4lmem6detail15CreateFrameHeapEPvmiPNS1_8HeapHeadE = 0x0006a2d8;
_ZN2nn4lmem6detail16DestroyFrameHeapEPNS1_8HeapHeadE = 0x0006a338;
_ZN2nn4lmem6detail18AllocFromFrameHeapEPNS1_8HeapHeadEmi = 0x0006a33c;
_ZN2nn4lmem6detail15FreeToFrameHeapEPNS1_8HeapHeadENS0_8FreeModeE = 0x0006a3d8;
_ZN2nn4lmem6detail30GetAllocatableSizeForFrameHeapEPNS1_8HeapHeadEi = 0x0006a3f4;
_ZN2nn4lmem6detail17GetFrameHeapStateEPNS1_8HeapHeadE = 0x0006a420;
_ZN2nn4lmem6detail21RestoreFrameHeapStateEPNS1_8HeapHeadERKNS0_14FrameHeapStateE = 0x0006a42c;
_ZN2nn4lmem6detail15AdjustFrameHeapEPNS1_8HeapHeadENS0_10AdjustModeE = 0x0006a440;
_ZN2nn4lmem6detail29ResizeForMemoryBlockFrameHeapEPNS1_8HeapHeadEPvm = 0x0006a4bc;
_ZN2nn4lmem6detail13DumpFrameHeapEPNS1_8HeapHeadE = 0x0006a508;
_ZN2nn4lmem6detail14CreateUnitHeapEPvmmitNS0_13InfoPlacementEPNS1_8HeapHeadE = 0x0006a50c;
_ZN2nn4lmem6detail15DestroyUnitHeapEPNS1_8HeapHeadE = 0x0006a6bc;
_ZN2nn4lmem6detail18InvalidateUnitHeapEPNS1_8HeapHeadE = 0x0006a6cc;
_ZN2nn4lmem6detail18ExtendUnitHeapAreaEPNS1_8HeapHeadEm = 0x0006a6d4;
_ZN2nn4lmem6detail17AllocFromUnitHeapEPNS1_8HeapHeadE = 0x0006a760;
_ZN2nn4lmem6detail14FreeToUnitHeapEPNS1_8HeapHeadEPv = 0x0006a784;
_ZN2nn4lmem6detail19GetUnitHeapUnitSizeEPNS1_8HeapHeadE = 0x0006a7a4;
_ZN2nn4lmem6detail27GetUnitHeapAllocatableCountEPNS1_8HeapHeadE = 0x0006a7ac;
_ZN2nn4lmem6detail25GetUnitHeapAllocatedCountEPNS1_8HeapHeadE = 0x0006a7d0;
_ZN2nn4lmem6detail20GetUnitHeapAlignmentEPNS1_8HeapHeadE = 0x0006a7d8;
_ZN2nn4lmem6detail23GetRequiredUnitHeapSizeEmiib = 0x0006a7e0;
_ZN2nn4lmem6detail12DumpUnitHeapEPNS1_8HeapHeadE = 0x0006a824;
_ZN2nn7nlibsdk23LockFreePlaceHolderPoolIPvvE4InitEm = 0x00079b4c;
_Z19nnmem_nlib_snprintfILm32EEiPmRAT__cPKcz = 0x0007ae18;
_Z26nnmem_nlib_thread_exit_cppv = 0x0007afcc;
_ZN2nn7nlibsdk4heap12TlsHeapCache15ReleaseAllCacheEv = 0x0007b814;
_ZN2nn7nlibsdk4heap14TlsHeapCentral22UncacheSmallMemoryListEPNS1_12TlsHeapCacheEPv = 0x0007b870;
_ZN2nn7nlibsdk4heap12TlsHeapCache8FinalizeEv = 0x0007b940;
_ZN2nn7nlibsdk4heap12TlsHeapCache10CheckCacheEv = 0x0007ba14;
_ZN2nn7nlibsdk4heap12TlsHeapCache22GetAllocSizeFunc_Mode0EPS2_PKv = 0x0007ba1c;
_ZN2nn7nlibsdk4heap14TlsHeapCentral15GetClassFromPtrEPKv = 0x0007badc;
_ZN2nn7nlibsdk4heap12TlsHeapCacheC1EPNS1_14TlsHeapCentralEj = 0x0007bb90;
_ZN2nn7nlibsdk4heap12TlsHeapCacheC2EPNS1_14TlsHeapCentralEj = 0x0007bb90;
_ZN2nn7nlibsdk4heap12TlsHeapCache15AllocFunc_Mode0INSt3__117integral_constantIbLb0EEEEEPvPS2_m = 0x0007bcf0;
_ZN2nn7nlibsdk4heap12TlsHeapCache19AllocFuncAlgn_Mode0INSt3__117integral_constantIbLb0EEEEEPvPS2_mm = 0x0007be10;
_ZN2nn7nlibsdk4heap12TlsHeapCache14FreeFunc_Mode0INSt3__117integral_constantIbLb0EEEEEiPS2_Pv = 0x0007bfec;
_ZN2nn7nlibsdk4heap12TlsHeapCache18FreeFuncSize_Mode0INSt3__117integral_constantIbLb0EEEEEiPS2_Pvm = 0x0007c0dc;
_ZN2nn7nlibsdk4heap12TlsHeapCache17ReallocFunc_Mode0INSt3__117integral_constantIbLb0EEEEEiPS2_PvmPS8_ = 0x0007c1cc;
_ZN2nn7nlibsdk4heap12TlsHeapCache15AllocFunc_Mode0INSt3__117integral_constantIbLb1EEEEEPvPS2_m = 0x0007c33c;
_ZN2nn7nlibsdk4heap12TlsHeapCache19AllocFuncAlgn_Mode0INSt3__117integral_constantIbLb1EEEEEPvPS2_mm = 0x0007c548;
_ZN2nn7nlibsdk4heap12TlsHeapCache14FreeFunc_Mode0INSt3__117integral_constantIbLb1EEEEEiPS2_Pv = 0x0007c804;
_ZN2nn7nlibsdk4heap12TlsHeapCache18FreeFuncSize_Mode0INSt3__117integral_constantIbLb1EEEEEiPS2_Pvm = 0x0007c9b0;
_ZN2nn7nlibsdk4heap12TlsHeapCache17ReallocFunc_Mode0INSt3__117integral_constantIbLb1EEEEEiPS2_PvmPS8_ = 0x0007cb64;
_ZN2nn7nlibsdk4heap14TlsHeapCentral18FreeSpanToSpanPageEPNS1_4SpanEPNS1_8SpanPageE = 0x0007ccd4;
_ZN2nn7nlibsdk4heap14TlsHeapCentral21AllocSpanFromSpanPageEPNS1_8SpanPageE = 0x0007cd5c;
_ZN2nn7nlibsdk4heap14TlsHeapCentral22DestroySpanPageIfEmptyEPNS1_8SpanPageEb = 0x0007cde4;
_ZN2nn7nlibsdk4heap14TlsHeapCentral9FreePagesEPNS1_4SpanE = 0x0007d37c;
_ZN2nn7nlibsdk4heap14TlsHeapCentralC1Ev = 0x0007d464;
_ZN2nn7nlibsdk4heap14TlsHeapCentralC2Ev = 0x0007d464;
_ZN2nn7nlibsdk4heap14TlsHeapCentralD2Ev = 0x0007d46c;
_ZN2nn7nlibsdk4heap14TlsHeapCentralD1Ev = 0x0007d46c;
_ZN2nn7nlibsdk4heap14TlsHeapCentral8AllocPhyEPvm = 0x0007d480;
_ZN2nn7nlibsdk4heap14TlsHeapCentral7FreePhyEPvm = 0x0007d580;
_ZN2nn7nlibsdk4heap14TlsHeapCentral4InitEPvmb = 0x0007d678;
_ZN2nn7nlibsdk4heap14TlsHeapCentral10AllocPagesEm = 0x0007daa8;
_ZN2nn7nlibsdk4heap14TlsHeapCentral12MakeFreeSpanEm = 0x0007e0c8;
_ZN2nn7nlibsdk4heap14TlsHeapCentral14SearchFreeSpanEm = 0x0007e130;
_ZN2nn7nlibsdk4heap14TlsHeapCentral9SplitSpanEPNS1_4SpanEmS4_ = 0x0007e290;
_ZN2nn7nlibsdk4heap14TlsHeapCentral22AllocPagesWithBigAlignEmm = 0x0007e62c;
_ZN2nn7nlibsdk4heap14TlsHeapCentral17MergeIntoFreeListERPNS1_4SpanE = 0x0007f1c0;
_ZN2nn7nlibsdk4heap15DoubleFreeErrorEPKv = 0x0007f644;
_ZN2nn7nlibsdk4heap14TlsHeapCentral13AllocSpanPageEv = 0x0007f648;
_ZN2nn7nlibsdk4heap14TlsHeapCentral14MergeFreeSpansEPNS1_4SpanES4_m = 0x0007fb78;
_ZN2nn7nlibsdk4heap14TlsHeapCentral17CacheSmallMemory_EPhmb = 0x0007fcb4;
_ZN2nn7nlibsdk4heap14TlsHeapCentral21CacheSmallMemoryList_EPNS1_12TlsHeapCacheEPhmPPvim = 0x00080354;
_ZN2nn7nlibsdk4heap14TlsHeapCentral19UncacheSmallMemory_EPv = 0x0008099c;
_ZN2nn7nlibsdk4heap14TlsHeapCentral18ReallocLargeMemoryEPvmPS3_ = 0x00080b3c;
_ZN2nn7nlibsdk4heap14TlsHeapCentral14GetPhyFreeSizeEPm = 0x00081168;
_ZN2nn7nlibsdk4heap14TlsHeapCentral12GetMemStats_EPNS1_15TlsHeapMemStatsE = 0x000811b4;
_ZN2nn7nlibsdk4heap14TlsHeapCentral5Dump_E15NMallocDumpModei = 0x00081328;
_ZN2nn7nlibsdk4heap14TlsHeapCentral18WalkAllocatedPtrs_EPFiPvmS3_ES3_ = 0x0008148c;
_ZN2nn7nlibsdk4heap14TlsHeapCentral14CheckSpanList_Ev = 0x00081680;
_ZN2nn7nlibsdk4heap14TlsHeapCentral12CalcHeapHashEP8HeapHash = 0x00081874;
_ZN2nn7nlibsdk4heap14TlsHeapCentral7IsCleanEv = 0x00081a10;
_ZN2nn7nlibsdk4heap18NotNMallocPtrErrorEPKv = 0x00081b48;
_ZN2nn7nlibsdk4heap19DataCorruptionErrorEPKv = 0x00081b4c;
_ZN2nn7nlibsdk4heap11CentralHeap4InitEPvmj = 0x00081b50;
_ZN2nn7nlibsdk4heap11CentralHeap8FinalizeEv = 0x00081cb0;
_ZN2nn7nlibsdk4heap11CentralHeap9MakeCacheEPNS1_10CachedHeapE = 0x00081d10;
_ZN2nn7nlibsdk4heap11CentralHeap5AllocEmm = 0x00081de8;
_ZN2nn7nlibsdk4heap11CentralHeap4FreeEPv = 0x00081f88;
_ZN2nn7nlibsdk4heap11CentralHeap12FreeWithSizeEPvm = 0x00082084;
_ZN2nn7nlibsdk4heap11CentralHeap12GetAllocSizeEPKv = 0x00082174;
_ZN2nn7nlibsdk4heap11CentralHeap7ReallocEPvmPS3_ = 0x00082234;
_ZN2nn7nlibsdk4heap11CentralHeap6QueryVEiSt9__va_list = 0x00082434;
_ZN2nn7nlibsdk4heap11CentralHeap5QueryEiz = 0x00082b14;
_ZN2nn7nlibsdk4heap11CentralHeap17WalkAllocatedPtrsEPFiPvmS3_ES3_ = 0x00082ba8;
_ZN2nn7nlibsdk4heap10CachedHeap5AllocEm = 0x00082c10;
_ZN2nn7nlibsdk4heap10CachedHeap5AllocEmm = 0x00082c1c;
_ZN2nn7nlibsdk4heap10CachedHeap12GetAllocSizeEPKv = 0x00082c28;
_ZN2nn7nlibsdk4heap10CachedHeap4FreeEPv = 0x00082c34;
_ZN2nn7nlibsdk4heap10CachedHeap12FreeWithSizeEPvm = 0x00082c40;
_ZN2nn7nlibsdk4heap10CachedHeap7ReallocEPvmPS3_ = 0x00082c4c;
_ZN2nn7nlibsdk4heap10CachedHeap15ReleaseAllCacheEv = 0x00082c58;
_ZN2nn7nlibsdk4heap10CachedHeap10CheckCacheEv = 0x00082c68;
_ZN2nn7nlibsdk4heap10CachedHeap5QueryEiz = 0x00082c98;
_ZN2nn7nlibsdk4heap10CachedHeap8FinalizeEv = 0x00082da4;
_ZN2nn7nlibsdk4heap10CachedHeap5ResetEPNS1_12TlsHeapCacheE = 0x00082dd0;
_ZN2nn7nlibsdk4heap10CachedHeap7ReleaseEv = 0x00082e04;
_ZN2nn7nlibsdk4heap10CachedHeap6QueryVEiSt9__va_list = 0x00082e14;
_ZN2nn3mem17StandardAllocatorC2Ev = 0x00082ee0;
_ZN2nn3mem17StandardAllocatorC1Ev = 0x00082ee0;
_ZN2nn3mem17StandardAllocatorC1EPvm = 0x00082f00;
_ZN2nn3mem17StandardAllocatorC2EPvm = 0x00082f00;
_ZN2nn3mem17StandardAllocator10InitializeEPvm = 0x00082f24;
_ZN2nn3mem17StandardAllocatorC2EPvmb = 0x00082f2c;
_ZN2nn3mem17StandardAllocatorC1EPvmb = 0x00082f2c;
_ZN2nn3mem17StandardAllocator10InitializeEPvmb = 0x00082f50;
_ZN2nn3mem17StandardAllocator8FinalizeEv = 0x00083044;
_ZN2nn3mem17StandardAllocator8AllocateEmm = 0x000830a0;
_ZN2nn3mem17StandardAllocator8AllocateEm = 0x00083190;
_ZN2nn3mem17StandardAllocator4FreeEPv = 0x00083198;
_ZN2nn3mem17StandardAllocator10ReallocateEPvm = 0x000831f8;
_ZNK2nn3mem17StandardAllocator9GetSizeOfEPKv = 0x00083324;
_ZNK2nn3mem17StandardAllocator16GetTotalFreeSizeEv = 0x000833dc;
_ZNK2nn3mem17StandardAllocator18GetAllocatableSizeEv = 0x00083420;
_ZNK2nn3mem17StandardAllocator16ClearThreadCacheEv = 0x00083464;
_ZNK2nn3mem17StandardAllocator19WalkAllocatedBlocksEPFiPvmS2_ES2_ = 0x000834b8;
_ZNK2nn3mem17StandardAllocator4DumpEv = 0x00083530;
_ZNK2nn3mem17StandardAllocator4HashEv = 0x0008357c;
_ZN2nn3mem19NumberLineAllocator10InitializeEPFPvmS2_ES2_PFvS2_S2_ES2_ = 0x0008369c;
_ZN2nn3mem22NumberLineAllocatorPrvD2Ev = 0x00083814;
_ZN2nn3mem19NumberLineAllocator10InitializeEPFPvmS2_ES2_PFvS2_S2_ES2_b = 0x00083930;
_ZN2nn3mem19NumberLineAllocator8FinalizeEv = 0x0008393c;
_ZN2nn3mem19NumberLineAllocator8AddRangeEii = 0x0008398c;
_ZN2nn3mem22NumberLineAllocatorPrv8AddRangeEjj = 0x00083a08;
_ZN2nn3mem19NumberLineAllocator11RemoveRangeEii = 0x00083ed4;
_ZN2nn3mem22NumberLineAllocatorPrv11RemoveRangeEjj = 0x00083f50;
_ZN2nn3mem19NumberLineAllocator8AllocateEPii = 0x00084428;
_ZN2nn3mem19NumberLineAllocator8AllocateEPiiPvPFvS3_E = 0x00084b3c;
_ZN2nn3mem19NumberLineAllocator8AllocateEPiii = 0x00084c04;
_ZN2nn3mem19NumberLineAllocator8AllocateEPiiiPvPFvS3_E = 0x00085480;
_ZN2nn3mem19NumberLineAllocator4FreeEi = 0x00085554;
_ZN2nn3mem22NumberLineAllocatorPrv4FreeEj = 0x000855b8;
_ZN2nn3mem19NumberLineAllocator12FindUserDataEPPvi = 0x000858e0;
_ZN2nn3mem19NumberLineAllocator9GetSizeOfEi = 0x000859f8;
_ZN2nn3mem19NumberLineAllocator16GetTotalFreeSizeEv = 0x00085b04;
_ZN2nn3mem19NumberLineAllocator18GetAllocatableSizeEv = 0x00085bec;
_ZN2nn3mem19NumberLineAllocator4DumpEmi = 0x00085cdc;
_ZN2nn3mem22NumberLineAllocatorPrv10CompactionEv = 0x00085d20;
_ZN2nn2os11SetHostArgcEi = 0x00086228;
_ZN2nn2os11GetHostArgcEv = 0x00086238;
_ZN2nn2os11SetHostArgvEPPc = 0x00086248;
_ZN2nn2os11GetHostArgvEv = 0x00086258;
_ZN2nn2os17InitializeBarrierEPNS0_11BarrierTypeEi = 0x00086268;
_ZN2nn2os15FinalizeBarrierEPNS0_11BarrierTypeE = 0x000862a4;
_ZN2nn2os12AwaitBarrierEPNS0_11BarrierTypeE = 0x000862ac;
_ZN2nn2os14FlushDataCacheEPKvm = 0x00086384;
_ZN2nn2os20FlushEntireDataCacheEv = 0x000863bc;
_ZN2nn2os27InitializeConditionVariableEPNS0_21ConditionVariableTypeE = 0x000863c0;
_ZN2nn2os25FinalizeConditionVariableEPNS0_21ConditionVariableTypeE = 0x000863ec;
_ZN2nn2os23SignalConditionVariableEPNS0_21ConditionVariableTypeE = 0x000863f4;
_ZN2nn2os26BroadcastConditionVariableEPNS0_21ConditionVariableTypeE = 0x000863fc;
_ZN2nn2os21WaitConditionVariableEPNS0_21ConditionVariableTypeEPNS0_9MutexTypeE = 0x00086404;
_ZN2nn2os26TimedWaitConditionVariableEPNS0_21ConditionVariableTypeEPNS0_9MutexTypeENS_8TimeSpanE = 0x00086484;
_ZN2nn2os19GetCurrentStackInfoEPmS1_ = 0x00086564;
_ZN2nn2os27GetCurrentStackInfoForDebugEPmS1_ = 0x000865b0;
_ZN2nn2os15QueryMemoryInfoEPNS0_10MemoryInfoE = 0x000865fc;
_ZN2nn2os23QueryMemoryInfoForDebugEPNS0_10MemoryInfoE = 0x00086600;
_ZN2nn2os16GetIdleTickCountEv = 0x00086604;
_ZN2nn2os14IsMemoryLockedEmm = 0x0008665c;
_ZN2nn2os14IsMemoryLockedEPvm = 0x00086678;
_ZN2nn2os15InitializeEventEPNS0_9EventTypeEbNS0_14EventClearModeE = 0x00086694;
_ZN2nn2os13FinalizeEventEPNS0_9EventTypeE = 0x000866f0;
_ZN2nn2os11SignalEventEPNS0_9EventTypeE = 0x000866f8;
_ZN2nn2os10ClearEventEPNS0_9EventTypeE = 0x0008679c;
_ZN2nn2os9WaitEventEPNS0_9EventTypeE = 0x000867cc;
_ZN2nn2os12TryWaitEventEPNS0_9EventTypeE = 0x00086868;
_ZN2nn2os14TimedWaitEventEPNS0_9EventTypeENS_8TimeSpanE = 0x000868b8;
_ZN2nn2os25InitializeMultiWaitHolderEPNS0_19MultiWaitHolderTypeEPNS0_9EventTypeE = 0x00086990;
_ZN2nn2os20InitializeLightEventEPNS0_14LightEventTypeEbNS0_14EventClearModeE = 0x000869b8;
_ZN2nn2os18FinalizeLightEventEPNS0_14LightEventTypeE = 0x00086a1c;
_ZN2nn2os16SignalLightEventEPNS0_14LightEventTypeE = 0x00086a28;
_ZN2nn2os15ClearLightEventEPNS0_14LightEventTypeE = 0x00086adc;
_ZN2nn2os14WaitLightEventEPNS0_14LightEventTypeE = 0x00086b58;
_ZN2nn2os17TryWaitLightEventEPNS0_14LightEventTypeE = 0x00086c8c;
_ZN2nn2os19TimedWaitLightEventEPNS0_14LightEventTypeENS_8TimeSpanE = 0x00086cd8;
_ZN2nn2os15InitializeFiberEPNS0_9FiberTypeEPFS2_PvES3_S3_mi = 0x00086e68;
_ZN2nn2os13FinalizeFiberEPNS0_9FiberTypeE = 0x00086fa8;
_ZN2nn2os13SwitchToFiberEPNS0_9FiberTypeE = 0x00086fe8;
_ZN2nn2os6detail16GetCurrentThreadEv = 0x00087108;
_ZN2nn2os6detail18FiberImplByHorizon6SwitchEPNS0_9FiberTypeES4_ = 0x00087114;
_ZN2nn2os15GetCurrentFiberEv = 0x00087120;
_ZN2nn2os20InitializeTimerEventEPNS0_14TimerEventTypeENS0_14EventClearModeE = 0x00087130;
_ZN2nn2os18FinalizeTimerEventEPNS0_14TimerEventTypeE = 0x00087180;
_ZN2nn2os22StartOneShotTimerEventEPNS0_14TimerEventTypeENS_8TimeSpanE = 0x00087188;
_ZN2nn2os23StartPeriodicTimerEventEPNS0_14TimerEventTypeENS_8TimeSpanES3_ = 0x00087208;
_ZN2nn2os14StopTimerEventEPNS0_14TimerEventTypeE = 0x0008728c;
_ZN2nn2os16SignalTimerEventEPNS0_14TimerEventTypeE = 0x000872f0;
_ZN2nn2os15ClearTimerEventEPNS0_14TimerEventTypeE = 0x000873a4;
_ZN2nn2os14WaitTimerEventEPNS0_14TimerEventTypeE = 0x00087458;
_ZN2nn2os17TryWaitTimerEventEPNS0_14TimerEventTypeE = 0x000875d0;
_ZN2nn2os25InitializeMultiWaitHolderEPNS0_19MultiWaitHolderTypeEPNS0_14TimerEventTypeE = 0x000876b0;
_ZN2nn2os24InitializeInterruptEventEPNS0_18InterruptEventTypeEiNS0_14EventClearModeE = 0x000876d8;
_ZN2nn2os22FinalizeInterruptEventEPNS0_18InterruptEventTypeE = 0x00087708;
_ZN2nn2os19ClearInterruptEventEPNS0_18InterruptEventTypeE = 0x00087714;
_ZN2nn2os18WaitInterruptEventEPNS0_18InterruptEventTypeE = 0x0008771c;
_ZN2nn2os21TryWaitInterruptEventEPNS0_18InterruptEventTypeE = 0x00087724;
_ZN2nn2os23TimedWaitInterruptEventEPNS0_18InterruptEventTypeENS_8TimeSpanE = 0x0008772c;
_ZN2nn2os25InitializeMultiWaitHolderEPNS0_19MultiWaitHolderTypeEPNS0_18InterruptEventTypeE = 0x00087734;
_ZN2nn2os17CreateSystemEventEPNS0_15SystemEventTypeENS0_14EventClearModeEb = 0x0008775c;
_ZN2nn2os17AttachSystemEventEPNS0_15SystemEventTypeEjbjbNS0_14EventClearModeE = 0x000877b4;
_ZN2nn2os33AttachReadableHandleToSystemEventEPNS0_15SystemEventTypeEjbNS0_14EventClearModeE = 0x000877e4;
_ZN2nn2os33AttachWritableHandleToSystemEventEPNS0_15SystemEventTypeEjbNS0_14EventClearModeE = 0x00087820;
_ZN2nn2os33DetachReadableHandleOfSystemEventEPNS0_15SystemEventTypeE = 0x00087864;
_ZN2nn2os33DetachWritableHandleOfSystemEventEPNS0_15SystemEventTypeE = 0x00087868;
_ZN2nn2os18DestroySystemEventEPNS0_15SystemEventTypeE = 0x0008786c;
_ZN2nn2os15WaitSystemEventEPNS0_15SystemEventTypeE = 0x000878ac;
_ZN2nn2os18TryWaitSystemEventEPNS0_15SystemEventTypeE = 0x000878e8;
_ZN2nn2os20TimedWaitSystemEventEPNS0_15SystemEventTypeENS_8TimeSpanE = 0x00087924;
_ZN2nn2os17SignalSystemEventEPNS0_15SystemEventTypeE = 0x00087960;
_ZN2nn2os16ClearSystemEventEPNS0_15SystemEventTypeE = 0x0008799c;
_ZN2nn2os30GetReadableHandleOfSystemEventEPKNS0_15SystemEventTypeE = 0x000879d8;
_ZN2nn2os30GetWritableHandleOfSystemEventEPKNS0_15SystemEventTypeE = 0x000879dc;
_ZN2nn2os30GetReadableHandleOfSystemEventEPNS0_15SystemEventTypeE = 0x000879e0;
_ZN2nn2os30GetWritableHandleOfSystemEventEPNS0_15SystemEventTypeE = 0x000879e4;
_ZN2nn2os25InitializeMultiWaitHolderEPNS0_19MultiWaitHolderTypeEPNS0_15SystemEventTypeE = 0x000879e8;
_ZN2nn2os22InitializeMessageQueueEPNS0_16MessageQueueTypeEPmm = 0x00087a5c;
_ZN2nn2os20FinalizeMessageQueueEPNS0_16MessageQueueTypeE = 0x00087ac0;
_ZN2nn2os16SendMessageQueueEPNS0_16MessageQueueTypeEm = 0x00087ac8;
_ZN2nn2os19TrySendMessageQueueEPNS0_16MessageQueueTypeEm = 0x00087b84;
_ZN2nn2os21TimedSendMessageQueueEPNS0_16MessageQueueTypeEmNS_8TimeSpanE = 0x00087c30;
_ZN2nn2os15JamMessageQueueEPNS0_16MessageQueueTypeEm = 0x00087d68;
_ZN2nn2os18TryJamMessageQueueEPNS0_16MessageQueueTypeEm = 0x00087e18;
_ZN2nn2os20TimedJamMessageQueueEPNS0_16MessageQueueTypeEmNS_8TimeSpanE = 0x00087ec4;
_ZN2nn2os19ReceiveMessageQueueEPmPNS0_16MessageQueueTypeE = 0x00087ff0;
_ZN2nn2os22TryReceiveMessageQueueEPmPNS0_16MessageQueueTypeE = 0x0008809c;
_ZN2nn2os24TimedReceiveMessageQueueEPmPNS0_16MessageQueueTypeENS_8TimeSpanE = 0x00088148;
_ZN2nn2os16PeekMessageQueueEPmPKNS0_16MessageQueueTypeE = 0x00088270;
_ZN2nn2os19TryPeekMessageQueueEPmPKNS0_16MessageQueueTypeE = 0x000882d8;
_ZN2nn2os21TimedPeekMessageQueueEPmPKNS0_16MessageQueueTypeENS_8TimeSpanE = 0x00088340;
_ZN2nn2os25InitializeMultiWaitHolderEPNS0_19MultiWaitHolderTypeEPNS0_16MessageQueueTypeENS0_20MessageQueueWaitTypeE = 0x00088424;
_ZN2nn2os19InitializeMultiWaitEPNS0_13MultiWaitTypeE = 0x00088494;
_ZN2nn2os17FinalizeMultiWaitEPNS0_13MultiWaitTypeE = 0x000884d4;
_ZN2nn2os7WaitAnyEPNS0_13MultiWaitTypeE = 0x000884dc;
_ZN2nn2os10TryWaitAnyEPNS0_13MultiWaitTypeE = 0x000884ec;
_ZN2nn2os12TimedWaitAnyEPNS0_13MultiWaitTypeENS_8TimeSpanE = 0x000884fc;
_ZN2nn2os23FinalizeMultiWaitHolderEPNS0_19MultiWaitHolderTypeE = 0x00088510;
_ZN2nn2os19LinkMultiWaitHolderEPNS0_13MultiWaitTypeEPNS0_19MultiWaitHolderTypeE = 0x00088514;
_ZN2nn2os21UnlinkMultiWaitHolderEPNS0_19MultiWaitHolderTypeE = 0x00088538;
_ZN2nn2os24UnlinkAllMultiWaitHolderEPNS0_13MultiWaitTypeE = 0x0008856c;
_ZN2nn2os22MoveAllMultiWaitHolderEPNS0_13MultiWaitTypeES2_ = 0x000885a8;
_ZN2nn2os26SetMultiWaitHolderUserDataEPNS0_19MultiWaitHolderTypeEm = 0x00088610;
_ZN2nn2os26GetMultiWaitHolderUserDataEPKNS0_19MultiWaitHolderTypeE = 0x00088618;
_ZN2nn2os25InitializeMultiWaitHolderEPNS0_19MultiWaitHolderTypeEj = 0x00088620;
_ZN2nn2os15InitializeMutexEPNS0_9MutexTypeEbi = 0x0008864c;
_ZN2nn2os13FinalizeMutexEPNS0_9MutexTypeE = 0x00088698;
_ZN2nn2os9LockMutexEPNS0_9MutexTypeE = 0x000886a0;
_ZN2nn2os12TryLockMutexEPNS0_9MutexTypeE = 0x0008870c;
_ZN2nn2os11UnlockMutexEPNS0_9MutexTypeE = 0x0008878c;
_ZN2nn2os28IsMutexLockedByCurrentThreadEPKNS0_9MutexTypeE = 0x000887ac;
_ZN2nn2os19GenerateRandomBytesEPvm = 0x000887c4;
_ZN2nn2os26InitializeReaderWriterLockEPNS0_20ReaderWriterLockTypeE = 0x0008883c;
_ZN2nn2os24FinalizeReaderWriterLockEPNS0_20ReaderWriterLockTypeE = 0x00088884;
_ZN2nn2os15AcquireReadLockEPNS0_20ReaderWriterLockTypeE = 0x0008888c;
_ZN2nn2os18TryAcquireReadLockEPNS0_20ReaderWriterLockTypeE = 0x00088914;
_ZN2nn2os15ReleaseReadLockEPNS0_20ReaderWriterLockTypeE = 0x00088974;
_ZN2nn2os16AcquireWriteLockEPNS0_20ReaderWriterLockTypeE = 0x000889dc;
_ZN2nn2os19TryAcquireWriteLockEPNS0_20ReaderWriterLockTypeE = 0x00088a8c;
_ZN2nn2os16ReleaseWriteLockEPNS0_20ReaderWriterLockTypeE = 0x00088b24;
_ZN2nn2os14IsReadLockHeldEPKNS0_20ReaderWriterLockTypeE = 0x00088b90;
_ZN2nn2os30IsWriteLockHeldByCurrentThreadEPKNS0_20ReaderWriterLockTypeE = 0x00088ba0;
_ZN2nn2os19InitializeSemaphoreEPNS0_13SemaphoreTypeEii = 0x00088bb8;
_ZN2nn2os17FinalizeSemaphoreEPNS0_13SemaphoreTypeE = 0x00088c04;
_ZN2nn2os16AcquireSemaphoreEPNS0_13SemaphoreTypeE = 0x00088c0c;
_ZN2nn2os19TryAcquireSemaphoreEPNS0_13SemaphoreTypeE = 0x00088c68;
_ZN2nn2os21TimedAcquireSemaphoreEPNS0_13SemaphoreTypeENS_8TimeSpanE = 0x00088cbc;
_ZN2nn2os16ReleaseSemaphoreEPNS0_13SemaphoreTypeE = 0x00088d88;
_ZN2nn2os16ReleaseSemaphoreEPNS0_13SemaphoreTypeEi = 0x00088df0;
_ZN2nn2os24GetCurrentSemaphoreCountEPKNS0_13SemaphoreTypeE = 0x00088e5c;
_ZN2nn2os25InitializeMultiWaitHolderEPNS0_19MultiWaitHolderTypeEPNS0_13SemaphoreTypeE = 0x00088e64;
_ZN2nn2os12CreateThreadEPNS0_10ThreadTypeEPFvPvES3_S3_mii = 0x00088e8c;
_ZN2nn2os12CreateThreadEPNS0_10ThreadTypeEPFvPvES3_S3_mi = 0x00088ee8;
_ZN2nn2os13DestroyThreadEPNS0_10ThreadTypeE = 0x00088f3c;
_ZN2nn2os11StartThreadEPNS0_10ThreadTypeE = 0x00088f54;
_ZN2nn2os13SetThreadNameEPNS0_10ThreadTypeEPKc = 0x00088f6c;
_ZN2nn2os20SetThreadNamePointerEPNS0_10ThreadTypeEPKc = 0x00089150;
_ZN2nn2os20GetThreadNamePointerEPKNS0_10ThreadTypeE = 0x00089174;
_ZN2nn2os16GetCurrentThreadEv = 0x0008917c;
_ZN2nn2os20ChangeThreadPriorityEPNS0_10ThreadTypeEi = 0x00089188;
_ZN2nn2os17GetThreadPriorityEPKNS0_10ThreadTypeE = 0x000891e8;
_ZN2nn2os24GetThreadCurrentPriorityEPKNS0_10ThreadTypeE = 0x000891f0;
_ZN2nn2os11YieldThreadEv = 0x00089208;
_ZN2nn2os11SleepThreadENS_8TimeSpanE = 0x00089218;
_ZN2nn2os10WaitThreadEPNS0_10ThreadTypeE = 0x0008921c;
_ZN2nn2os20GetCurrentCoreNumberEv = 0x00089234;
_ZN2nn2os25GetCurrentProcessorNumberEv = 0x00089244;
_ZN2nn2os25InitializeMultiWaitHolderEPNS0_19MultiWaitHolderTypeEPNS0_10ThreadTypeE = 0x00089254;
_ZN2nn2os17SetThreadCoreMaskEPNS0_10ThreadTypeEim = 0x0008927c;
_ZN2nn2os17GetThreadCoreMaskEPiPmPKNS0_10ThreadTypeE = 0x000892a4;
_ZN2nn2os26GetThreadAvailableCoreMaskEv = 0x000892cc;
_ZN2nn2os11GetThreadIdEPKNS0_10ThreadTypeE = 0x000892dc;
_ZN2nn2os9QuickExitEv = 0x000892f4;
_ZN2nn2os6detail13ThreadManager9QuickExitEv = 0x0008930c;
_ZN2nn2os6detail26ThreadManagerImplByHorizon9QuickExitEv = 0x00089318;
_ZN2nn2os13SuspendThreadEPNS0_10ThreadTypeE = 0x00089328;
_ZN2nn2os12ResumeThreadEPNS0_10ThreadTypeE = 0x00089340;
_ZN2nn2os21GetThreadSuspendCountEPKNS0_10ThreadTypeE = 0x00089358;
_ZN2nn2os16GetThreadContextEPNS0_24ThreadContextInfoAarch64EPKNS0_10ThreadTypeE = 0x00089360;
_ZN2nn2os15AllocateTlsSlotEPNS0_7TlsSlotEPFvmE = 0x00089380;
_ZN2nn2os18SdkAllocateTlsSlotEPNS0_7TlsSlotEPFvmE = 0x000893c0;
_ZN2nn2os11FreeTlsSlotENS0_7TlsSlotE = 0x00089400;
_ZN2nn2os11GetTlsValueENS0_7TlsSlotE = 0x00089414;
_ZN2nn2os11SetTlsValueENS0_7TlsSlotEm = 0x00089428;
_ZN2nn2os19GetUsedTlsSlotCountEv = 0x0008943c;
_ZN2nn2os13GetSystemTickEv = 0x0008944c;
_ZN2nn2os22GetSystemTickFrequencyEv = 0x00089454;
_ZN2nn2os17ConvertToTimeSpanENS0_4TickE = 0x00089460;
_ZN2nn2os13ConvertToTickENS_8TimeSpanE = 0x00089478;
_ZN2nn2os17SetMemoryHeapSizeEm = 0x00089490;
_ZN2nn2os20GetMemoryHeapAddressEv = 0x000894bc;
_ZN2nn2os17GetMemoryHeapSizeEv = 0x000894cc;
_ZN2nn2os19AllocateMemoryBlockEPmm = 0x000894dc;
_ZN2nn2os15FreeMemoryBlockEmm = 0x00089510;
_ZN2nn2os19SetMemoryPermissionEmmNS0_16MemoryPermissionE = 0x00089570;
_ZN2nn2os18SetMemoryAttributeEmmNS0_15MemoryAttributeE = 0x00089574;
_ZN2nn2os18CreateSharedMemoryEPNS0_16SharedMemoryTypeEmNS0_16MemoryPermissionES3_ = 0x00089578;
_ZN2nn2os18AttachSharedMemoryEPNS0_16SharedMemoryTypeEmjb = 0x000895d4;
_ZN2nn2os19DestroySharedMemoryEPNS0_16SharedMemoryTypeE = 0x00089614;
_ZN2nn2os17UnmapSharedMemoryEPNS0_16SharedMemoryTypeE = 0x000896ac;
_ZN2nn2os15MapSharedMemoryEPNS0_16SharedMemoryTypeENS0_16MemoryPermissionE = 0x00089708;
_ZN2nn2os22GetSharedMemoryAddressEPKNS0_16SharedMemoryTypeE = 0x0008987c;
_ZN2nn2os19GetSharedMemorySizeEPKNS0_16SharedMemoryTypeE = 0x00089884;
_ZN2nn2os21GetSharedMemoryHandleEPKNS0_16SharedMemoryTypeE = 0x0008988c;
_ZN2nn2os20CreateTransferMemoryEPNS0_18TransferMemoryTypeEPvmNS0_16MemoryPermissionE = 0x00089894;
_ZN2nn2os20AttachTransferMemoryEPNS0_18TransferMemoryTypeEmjb = 0x000898f0;
_ZN2nn2os20DetachTransferMemoryEPNS0_18TransferMemoryTypeE = 0x00089930;
_ZN2nn2os21DestroyTransferMemoryEPNS0_18TransferMemoryTypeE = 0x0008994c;
_ZN2nn2os19UnmapTransferMemoryEPNS0_18TransferMemoryTypeE = 0x000899e4;
_ZN2nn2os17MapTransferMemoryEPPvPNS0_18TransferMemoryTypeENS0_16MemoryPermissionE = 0x00089a40;
_ZN2nn2os17CloseNativeHandleEj = 0x00089bb0;
_ZN2nn2os23SetUserExceptionHandlerEPFvPNS0_17UserExceptionInfoEEPvmS2_ = 0x00089bfc;
_ZN2nn2os37EnableUserExceptionHandlerOnDebuggingEb = 0x00089c5c;
_ZN2nn2os27DefaultUserExceptionHandlerEPNS0_17UserExceptionInfoE = 0x00089c70;
_ZN2nn2os32SetMemoryAllocatorForThreadLocalEPFPvmmEPFvS1_mE = 0x00089cb8;
_ZN2nn2os40MemoryAllocatorForThreadLocalInitializedEv = 0x00089d08;
_ZN2nn2os17GetLastThreadInfoEPPNS0_10ThreadTypeEPNS0_20SdkLastThreadContextEPj = 0x00089d4c;
_ZN2nn2os18GetThreadStackInfoEPmS1_PKNS0_10ThreadTypeE = 0x00089df8;
_ZN2nn2dd23GetCurrentProcessHandleEv = 0x00089e5c;
_ZN2nn2os23GetCurrentProcessHandleEv = 0x00089e64;
_ZN2nn2os6detail13ThreadManager11ExitProcessEv = 0x00089e84;
_ZN2nn2os6detail26ThreadManagerImplByHorizon15ExitProcessImplEv = 0x00089e90;
_ZN2nn2os30InitializeVirtualAddressMemoryEv = 0x00089edc;
_ZN2nn2os21AllocateAddressRegionEPmm = 0x00089eec;
_ZN2nn2os14AllocateMemoryEPmm = 0x00089f20;
_ZN2nn2os19AllocateMemoryPagesEmm = 0x00089f54;
_ZN2nn2os17FreeAddressRegionEm = 0x00089f88;
_ZN2nn2os15FreeMemoryPagesEmm = 0x00089fb4;
_ZN2nn2os36GetVirtualAddressMemoryResourceUsageEv = 0x00089fe8;
_ZN2nn2os29IsVirtualAddressMemoryEnabledEv = 0x00089ff8;
_ZN2nn2os6detail14NotImplementedEPKci = 0x0008a254;
_ZN2nn2os6detail26ExpandUnsignedValueToAsciiEPcmi = 0x0008a274;
_ZN2nn2os6detail23CreateInterProcessEventEPNS1_21InterProcessEventTypeENS0_14EventClearModeE = 0x0008a2dc;
_ZN2nn2os6detail24DestroyInterProcessEventEPNS1_21InterProcessEventTypeE = 0x0008a344;
_ZN2nn2os6detail23AttachInterProcessEventEPNS1_21InterProcessEventTypeEjbjbNS0_14EventClearModeE = 0x0008a3a8;
_ZN2nn2os6detail39DetachReadableHandleOfInterProcessEventEPNS1_21InterProcessEventTypeE = 0x0008a3d8;
_ZN2nn2os6detail39DetachWritableHandleOfInterProcessEventEPNS1_21InterProcessEventTypeE = 0x0008a3ec;
_ZN2nn2os6detail21WaitInterProcessEventEPNS1_21InterProcessEventTypeE = 0x0008a400;
_ZN2nn2os6detail24TryWaitInterProcessEventEPNS1_21InterProcessEventTypeE = 0x0008a410;
_ZN2nn2os6detail26TimedWaitInterProcessEventEPNS1_21InterProcessEventTypeENS_8TimeSpanE = 0x0008a420;
_ZN2nn2os6detail23SignalInterProcessEventEPNS1_21InterProcessEventTypeE = 0x0008a438;
_ZN2nn2os6detail22ClearInterProcessEventEPNS1_21InterProcessEventTypeE = 0x0008a440;
_ZN2nn2os6detail36GetReadableHandleOfInterProcessEventEPKNS1_21InterProcessEventTypeE = 0x0008a454;
_ZN2nn2os6detail36GetWritableHandleOfInterProcessEventEPKNS1_21InterProcessEventTypeE = 0x0008a45c;
_ZN2nn2os6detail23SetupThreadObjectUnsafeEPNS0_10ThreadTypeEPFvPvES4_S4_mi = 0x0008a464;
_ZN2nn2os6detail13ThreadManager13CleanupThreadEv = 0x0008a504;
_ZN2nn2os6detail13ThreadManager22CreateAliasStackUnsafeEPNS0_10ThreadTypeE = 0x0008a580;
_ZN2nn2os6detail13ThreadManager22DeleteAliasStackUnsafeEPNS0_10ThreadTypeE = 0x0008a64c;
_ZN2nn2os6detail13ThreadManager12CreateThreadEPNS0_10ThreadTypeEPFvPvES5_S5_mii = 0x0008a680;
_ZN2nn2os6detail13ThreadManager12CreateThreadEPNS0_10ThreadTypeEPFvPvES5_S5_mi = 0x0008a91c;
_ZN2nn2os6detail13ThreadManager11StartThreadEPNS0_10ThreadTypeE = 0x0008a938;
_ZN2nn2os6detail13ThreadManager10WaitThreadEPNS0_10ThreadTypeE = 0x0008a98c;
_ZN2nn2os6detail13ThreadManager13DestroyThreadEPNS0_10ThreadTypeE = 0x0008a9ec;
_ZN2nn2os6detail13ThreadManager13SuspendThreadEPNS0_10ThreadTypeE = 0x0008aaf8;
_ZN2nn2os6detail13ThreadManager12ResumeThreadEPNS0_10ThreadTypeE = 0x0008ab54;
_ZN2nn2os6detail13ThreadManager16GetThreadContextEPNS0_24ThreadContextInfoAarch64EPKNS0_10ThreadTypeE = 0x0008abb8;
_ZN2nn2os6detail13ThreadManager26SetZeroToAllThreadsTlsSafeEi = 0x0008ac04;
_ZN2nn2os6detail13ThreadManager26SetInitialThreadNameUnsafeEPNS0_10ThreadTypeE = 0x0008ac64;
_ZN2nn2os6detail13ThreadManagerC1Ev = 0x0008ace0;
_ZN2nn2os6detail13ThreadManagerC2Ev = 0x0008ace0;
_ZNK2nn2os6detail10TlsManager25SearchUnusedTlsSlotUnsafeEb = 0x0008ada4;
_ZN2nn2os6detail10TlsManagerC1Ev = 0x0008b048;
_ZN2nn2os6detail10TlsManagerC2Ev = 0x0008b048;
_ZN2nn2os6detail10TlsManager20InvokeTlsDestructorsEv = 0x0008b080;
_ZN2nn2os6detail10TlsManager15AllocateTlsSlotEPNS0_7TlsSlotEPFvmEb = 0x0008b130;
_ZN2nn2os6detail10TlsManager11FreeTlsSlotENS0_7TlsSlotE = 0x0008b224;
_ZNK2nn2os6detail11TickManager17ConvertToTimeSpanENS0_4TickE = 0x0008b2b4;
_ZNK2nn2os6detail11TickManager13ConvertToTickENS_8TimeSpanE = 0x0008b300;
_ZN2nn2os6detail17MemoryHeapManager39ConcatenatePreviousFreeMemoryNodeUnsafeENS_4util13IntrusiveListINS1_14FreeMemoryNodeENS3_29IntrusiveListMemberNodeTraitsIS5_XadL_ZNS5_6m_nodeEEES5_EEE8iteratorE = 0x0008b364;
_ZN2nn2os6detail17MemoryHeapManager19FindFreeSpaceUnsafeEm = 0x0008b3c8;
_ZN2nn2os6detail17MemoryHeapManager25SplitFreeMemoryNodeUnsafeENS_4util13IntrusiveListINS1_14FreeMemoryNodeENS3_29IntrusiveListMemberNodeTraitsIS5_XadL_ZNS5_6m_nodeEEES5_EEE8iteratorEm = 0x0008b414;
_ZN2nn2os6detail17MemoryHeapManager20AddToFreeSpaceUnsafeEmm = 0x0008b450;
_ZN2nn2os6detail17MemoryHeapManager29IsRegionAllocatedMemoryUnsafeEmm = 0x0008b53c;
_ZN2nn2os6detail17MemoryHeapManager11SetHeapSizeEm = 0x0008b58c;
_ZN2nn2os6detail17MemoryHeapManager16AllocateFromHeapEPmm = 0x0008b7d4;
_ZN2nn2os6detail17MemoryHeapManager13ReleaseToHeapEmm = 0x0008b908;
_ZNK2nn2os6detail13TimeoutHelper19GetLeftTimeOnTargetEv = 0x0008bacc;
_ZN2nn2os6detail12SaturatedAddENS_8TimeSpanES2_ = 0x0008bafc;
_ZN2nn2os6detail15StopTimerUnsafeEPNS0_14TimerEventTypeE = 0x0008bb10;
_ZN2nn2os6detail48UpdateSignalStateAndRecalcNextTimeToWakeupUnsafeEPNS0_14TimerEventTypeENS_8TimeSpanE = 0x0008bb1c;
_ZN2nn2os6detail13MultiWaitImpl22RecalcMultiWaitTimeoutEPNS_8TimeSpanES3_ = 0x0008bbfc;
_ZN2nn2os6detail13MultiWaitImpl21ConstructObjectsArrayEPjPPNS1_19MultiWaitHolderBaseEi = 0x0008bc84;
_ZN2nn2os6detail13MultiWaitImpl38AddToEachObjectListAndCheckObjectStateEv = 0x0008bd14;
_ZN2nn2os6detail13MultiWaitImpl24RemoveFromEachObjectListEv = 0x0008bd90;
_ZN2nn2os6detail13MultiWaitImpl19InternalWaitAnyImplEbNS_8TimeSpanE = 0x0008bdd0;
_ZN2nn2os6detail13MultiWaitImpl11WaitAnyImplEbNS_8TimeSpanE = 0x0008c084;
_ZN2nn2os6detail13MultiWaitImpl21NotifyAndWakeupThreadEPNS1_19MultiWaitHolderBaseE = 0x0008c15c;
_ZNK2nn2os6detail23MultiWaitHolderOfThread10IsSignaledEv = 0x0008c1a8;
_ZN2nn2os6detail23MultiWaitHolderOfThread15AddToObjectListEv = 0x0008c1f0;
_ZN2nn2os6detail23MultiWaitHolderOfThread20RemoveFromObjectListEv = 0x0008c240;
_ZNK2nn2os6detail31MultiWaitHolderOfUserWaitObject15GetNativeHandleEPj = 0x0008c2a0;
_ZNK2nn2os6detail19MultiWaitHolderBase23GetAbsoluteTimeToWakeupEv = 0x0008c2a8;
_ZNK2nn2os6detail26MultiWaitHolderOfSemaphore10IsSignaledEv = 0x0008c2b0;
_ZN2nn2os6detail26MultiWaitHolderOfSemaphore15AddToObjectListEv = 0x0008c2f8;
_ZN2nn2os6detail26MultiWaitHolderOfSemaphore20RemoveFromObjectListEv = 0x0008c348;
_ZNK2nn2os6detail22MultiWaitHolderOfEvent10IsSignaledEv = 0x0008c3a4;
_ZN2nn2os6detail22MultiWaitHolderOfEvent15AddToObjectListEv = 0x0008c3e4;
_ZN2nn2os6detail22MultiWaitHolderOfEvent20RemoveFromObjectListEv = 0x0008c434;
_ZNK2nn2os6detail27MultiWaitHolderOfTimerEvent10IsSignaledEv = 0x0008c490;
_ZN2nn2os6detail27MultiWaitHolderOfTimerEvent15AddToObjectListEv = 0x0008c4dc;
_ZN2nn2os6detail27MultiWaitHolderOfTimerEvent20RemoveFromObjectListEv = 0x0008c52c;
_ZNK2nn2os6detail27MultiWaitHolderOfTimerEvent23GetAbsoluteTimeToWakeupEv = 0x0008c588;
_ZNK2nn2os6detail31MultiWaitHolderOfInterruptEvent10IsSignaledEv = 0x0008c5d8;
_ZNK2nn2os6detail31MultiWaitHolderOfInterruptEvent15GetNativeHandleEPj = 0x0008c5e0;
_ZN2nn2os6detail33MultiWaitHolderOfNativeWaitObject15AddToObjectListEv = 0x0008c5f4;
_ZN2nn2os6detail33MultiWaitHolderOfNativeWaitObject20RemoveFromObjectListEv = 0x0008c5f8;
_ZNK2nn2os6detail34MultiWaitHolderOfInterProcessEvent10IsSignaledEv = 0x0008c5fc;
_ZNK2nn2os6detail34MultiWaitHolderOfInterProcessEvent15GetNativeHandleEPj = 0x0008c604;
_ZNK2nn2os6detail36MultiWaitHolderOfMessageQueueNotFull10IsSignaledEv = 0x0008c618;
_ZN2nn2os6detail36MultiWaitHolderOfMessageQueueNotFull15AddToObjectListEv = 0x0008c660;
_ZN2nn2os6detail36MultiWaitHolderOfMessageQueueNotFull20RemoveFromObjectListEv = 0x0008c6b0;
_ZNK2nn2os6detail37MultiWaitHolderOfMessageQueueNotEmpty10IsSignaledEv = 0x0008c70c;
_ZN2nn2os6detail37MultiWaitHolderOfMessageQueueNotEmpty15AddToObjectListEv = 0x0008c754;
_ZN2nn2os6detail37MultiWaitHolderOfMessageQueueNotEmpty20RemoveFromObjectListEv = 0x0008c7a4;
_ZNK2nn2os6detail29MultiWaitHolderOfNativeHandle10IsSignaledEv = 0x0008c804;
_ZNK2nn2os6detail29MultiWaitHolderOfNativeHandle15GetNativeHandleEPj = 0x0008c80c;
_ZN2nn2os6detail21AddressSpaceAllocatorC2Emmm = 0x0008c81c;
_ZN2nn2os6detail21AddressSpaceAllocatorC1Emmm = 0x0008c81c;
_ZN2nn2os6detail21AddressSpaceAllocator30GetNextNonOverlappedNodeUnsafeEmm = 0x0008c868;
_ZN2nn2os6detail21AddressSpaceAllocator13AllocateSpaceEmm = 0x0008c8c8;
_ZN2nn2os6detail21AddressSpaceAllocator15CheckGuardSpaceEmmm = 0x0008c9c4;
_ZN2nn2os6detail10RngManager17GenerateRandomU64Ev = 0x0008ca5c;
_ZN2nn2os6detail11VammManagerC1Ev = 0x0008cab0;
_ZN2nn2os6detail11VammManagerC2Ev = 0x0008cab0;
_ZN2nn2os6detail24VammManagerImplByHorizon21GetReservedRegionImplEPmS3_ = 0x0008cae0;
_ZN2nn2os6detail11VammManager19InitializeIfEnabledEv = 0x0008cb80;
_ZNK2nn2os6detail11VammManager29IsVirtualAddressMemoryEnabledEv = 0x0008cbf8;
_ZN2nn2os6detail20AddressRegionManagerC2Emm = 0x0008cc3c;
_ZN2nn2os6detail11VammManager21AllocateAddressRegionEPmm = 0x0008cd5c;
_ZN2nn2os6detail11VammManager14AllocateMemoryEPmm = 0x0008cf30;
_ZN2nn2os6detail11VammManager19AllocateMemoryPagesEmm = 0x0008d47c;
_ZN2nn2os6detail11VammManager17FreeAddressRegionEm = 0x0008d630;
_ZN2nn2os6detail11VammManager15FreeMemoryPagesEmm = 0x0008d740;
_ZN2nn2os6detail11VammManager36GetVirtualAddressMemoryResourceUsageEv = 0x0008d904;
_ZN2nn2os6detail18DebugImplByHorizon19GetCurrentStackInfoEPmS3_ = 0x0008dcc4;
_ZN2nn2os6detail18DebugImplByHorizon15QueryMemoryInfoEPNS0_10MemoryInfoE = 0x0008dd6c;
_ZN2nn2os6detail38ExamineWholeAddressSpaceHasNoAttributeEmm = 0x0008de48;
_ZN2nn2os6detail18FiberImplByHorizon10InitializeEPNS0_9FiberTypeEPFvS4_E = 0x0008ded0;
_ZN2nn2os6detail18FiberImplByHorizon13MapAliasStackEPKvS4_m = 0x0008dee8;
_ZN2nn2os6detail18FiberImplByHorizon15UnmapAliasStackEPKvS4_m = 0x0008df04;
_ZN2nn2os6detail20DispatchFiberContextEPPNS1_22FiberContextForHorizonES4_ = 0x0008df20;
_ZN2nn2os6detail17CallFiberFunctionEPFPNS0_9FiberTypeEPvES4_ = 0x0008df98;
_ZN2nn2os6detail25SharedMemoryImplByHorizon6CreateEPjmNS0_16MemoryPermissionES4_ = 0x0008dfb4;
_ZN2nn2os6detail25SharedMemoryImplByHorizon5CloseEj = 0x0008e088;
_ZN2nn2os6detail25SharedMemoryImplByHorizon3MapEPPvjS3_mNS0_16MemoryPermissionE = 0x0008e0d0;
_ZN2nn2os6detail25SharedMemoryImplByHorizon5UnmapEjPvm = 0x0008e194;
_ZN2nn2os6detail27TransferMemoryImplByHorizon6CreateEPjPvmNS0_16MemoryPermissionE = 0x0008e1dc;
_ZN2nn2os6detail27TransferMemoryImplByHorizon5CloseEj = 0x0008e2b4;
_ZN2nn2os6detail27TransferMemoryImplByHorizon3MapEPPvjS3_mNS0_16MemoryPermissionE = 0x0008e2fc;
_ZN2nn2os6detail27TransferMemoryImplByHorizon5UnmapEjPvm = 0x0008e3f0;
_ZN2nn2os6detail22MultiWaitImplByHorizon20WaitSynchronizationNEiPjil = 0x0008e438;
_ZN2nn2os6detail22MultiWaitImplByHorizon10CancelWaitEv = 0x0008e4cc;
_ZN2nn2os6detail26ThreadManagerImplByHorizonC2EPNS0_10ThreadTypeE = 0x0008e514;
_ZN2nn2os6detail26ThreadManagerImplByHorizonC1EPNS0_10ThreadTypeE = 0x0008e514;
_ZNK2nn2os6detail26ThreadManagerImplByHorizon13MapAliasStackEPKvS4_m = 0x0008e5f8;
_ZNK2nn2os6detail26ThreadManagerImplByHorizon15UnmapAliasStackEPKvS4_m = 0x0008e72c;
_ZN2nn2os6detail26ThreadManagerImplByHorizon12CreateThreadEPNS0_10ThreadTypeEPFvS4_Ei = 0x0008e754;
_ZN2nn2os6detail26ThreadManagerImplByHorizon11StartThreadEPKNS0_10ThreadTypeE = 0x0008e9a0;
_ZN2nn2os6detail26ThreadManagerImplByHorizon19DestroyThreadUnsafeEPNS0_10ThreadTypeE = 0x0008e9e8;
_ZN2nn2os6detail26ThreadManagerImplByHorizon17WaitForExitThreadEPNS0_10ThreadTypeE = 0x0008ea38;
_ZN2nn2os6detail26ThreadManagerImplByHorizon11YieldThreadEv = 0x0008eadc;
_ZN2nn2os6detail26ThreadManagerImplByHorizon14ChangePriorityEPNS0_10ThreadTypeEi = 0x0008eae4;
_ZNK2nn2os6detail26ThreadManagerImplByHorizon18GetCurrentPriorityEPKNS0_10ThreadTypeE = 0x0008eb34;
_ZNK2nn2os6detail26ThreadManagerImplByHorizon11GetThreadIdEPKNS0_10ThreadTypeE = 0x0008eb88;
_ZN2nn2os6detail26ThreadManagerImplByHorizon19SuspendThreadUnsafeEPNS0_10ThreadTypeE = 0x0008ebf4;
_ZN2nn2os6detail26ThreadManagerImplByHorizon18ResumeThreadUnsafeEPNS0_10ThreadTypeE = 0x0008ec40;
_ZN2nn2os6detail26ThreadManagerImplByHorizon22GetThreadContextUnsafeEPNS0_24ThreadContextInfoAarch64EPKNS0_10ThreadTypeE = 0x0008ec8c;
_ZNK2nn2os6detail26ThreadManagerImplByHorizon20GetCurrentCoreNumberEv = 0x0008ed48;
_ZNK2nn2os6detail26ThreadManagerImplByHorizon17SetThreadCoreMaskEPNS0_10ThreadTypeEim = 0x0008ed4c;
_ZNK2nn2os6detail26ThreadManagerImplByHorizon17GetThreadCoreMaskEPiPmPKNS0_10ThreadTypeE = 0x0008ed9c;
_ZNK2nn2os6detail26ThreadManagerImplByHorizon26GetThreadAvailableCoreMaskEv = 0x0008ee14;
_ZN2nn2os6detail27InterruptEventImplByHorizonC1EiNS0_14EventClearModeE = 0x0008ee6c;
_ZN2nn2os6detail27InterruptEventImplByHorizonC2EiNS0_14EventClearModeE = 0x0008ee6c;
_ZN2nn2os6detail27InterruptEventImplByHorizonD1Ev = 0x0008eedc;
_ZN2nn2os6detail27InterruptEventImplByHorizonD2Ev = 0x0008eedc;
_ZN2nn2os6detail27InterruptEventImplByHorizon5ClearEv = 0x0008ef24;
_ZN2nn2os6detail27InterruptEventImplByHorizon4WaitEv = 0x0008ef6c;
_ZN2nn2os6detail27InterruptEventImplByHorizon7TryWaitEv = 0x0008eff4;
_ZN2nn2os6detail27InterruptEventImplByHorizon9TimedWaitENS_8TimeSpanE = 0x0008f068;
_ZN2nn2os6detail30InterProcessEventImplByHorizon6CreateEPjS3_ = 0x0008f150;
_ZN2nn2os6detail30InterProcessEventImplByHorizon5CloseEj = 0x0008f1fc;
_ZN2nn2os6detail30InterProcessEventImplByHorizon6SignalEj = 0x0008f248;
_ZN2nn2os6detail30InterProcessEventImplByHorizon5ClearEj = 0x0008f290;
_ZN2nn2os6detail30InterProcessEventImplByHorizon4WaitEjb = 0x0008f2d8;
_ZN2nn2os6detail30InterProcessEventImplByHorizon7TryWaitEjb = 0x0008f390;
_ZN2nn2os6detail30InterProcessEventImplByHorizon9TimedWaitEjbNS_8TimeSpanE = 0x0008f3f8;
_ZN2nn2os6detail30MemoryHeapManagerImplByHorizon11SetHeapSizeEPmm = 0x0008f514;
_ZN2nn2os6detail23SetMemoryPermissionImplEmmNS0_16MemoryPermissionE = 0x0008f5a0;
_ZN2nn2os6detail22SetMemoryAttributeImplEmmNS0_15MemoryAttributeE = 0x0008f69c;
_ZN2nn2os6detail38InternalConditionVariableImplByHorizonC2Ev = 0x0008f77c;
_ZN2nn2os6detail38InternalConditionVariableImplByHorizonC1Ev = 0x0008f77c;
_ZN2nn2os6detail38InternalConditionVariableImplByHorizon6SignalEv = 0x0008f784;
_ZN2nn2os6detail38InternalConditionVariableImplByHorizon9BroadcastEv = 0x0008f78c;
_ZN2nn2os6detail38InternalConditionVariableImplByHorizon4WaitEPNS1_23InternalCriticalSectionE = 0x0008f794;
_ZN2nn2os6detail38InternalConditionVariableImplByHorizon9TimedWaitEPNS1_23InternalCriticalSectionERKNS1_13TimeoutHelperE = 0x0008f7fc;
_ZN2nn2os6detail17OsResourceManagerC2Ev = 0x0008fa78;
_ZN2nn2os6detail29AslrSpaceManagerImplByHorizon22GetAslrSpaceEndAddressEv = 0x0008fb80;
_ZN2nn2os6detail30StackGuardManagerImplByHorizon23GetStackGuardEndAddressEv = 0x0008fc04;
_ZN2nn2os6detail36InternalCriticalSectionImplByHorizonC1Ev = 0x0008fc88;
_ZN2nn2os6detail36InternalCriticalSectionImplByHorizonC2Ev = 0x0008fc88;
_ZN2nn2os6detail36InternalCriticalSectionImplByHorizon5EnterEv = 0x0008fc90;
_ZN2nn2os6detail36InternalCriticalSectionImplByHorizon8TryEnterEv = 0x0008fd20;
_ZN2nn2os6detail36InternalCriticalSectionImplByHorizon5LeaveEv = 0x0008fd50;
_ZN2nn2os6detail10RngManagerC1Ev = 0x0008fd84;
_ZN2nn2os6detail10RngManagerC2Ev = 0x0008fd84;
_ZN2nn2os6detail20InitializeRandomImplEPNS_4util6TinyMtE = 0x0008fdf4;
_ZN2nn2os6detail18NotifyDebuggerImplE22nnosNotificationReasonmm = 0x0008fe60;
_ZN2nn2os6detail9BreakImplE15nnosBreakReasonmm = 0x0008fe70;
_ZN2nn2os6detail20UserExceptionHandlerEv = 0x0008fea4;
_ZN2nn6result6detail17OnUnhandledResultENS_6ResultE = 0x000901f8;
_ZN2nn2ro10InitializeEv = 0x00090260;
_ZN2nn2ro8FinalizeEv = 0x00090438;
_ZN2nn2ro13GetBufferSizeEPmPKv = 0x000905cc;
_ZN2nn2ro18RegisterModuleInfoEPNS0_16RegistrationInfoEPKv = 0x000905f8;
_ZN2nn2ro20UnregisterModuleInfoEPNS0_16RegistrationInfoE = 0x000906fc;
_ZN2nn2ro10LoadModuleEPNS0_6ModuleEPKvPvmi = 0x000907e4;
_ZN2nn2ro12LookupSymbolEPmPKc = 0x00090a5c;
_ZN2nn2ro18LookupModuleSymbolEPmPKNS0_6ModuleEPKc = 0x00090b70;
_ZN2nn2ro12UnloadModuleEPNS0_6ModuleE = 0x00090bc0;
_ZN2nn2sf13SharedPointerINS_2ro6detail12IRoInterfaceEED2Ev = 0x00090d24;
_ZN2nn2sf4hipc6client24Hipc2ClientCoreProcessorILNS1_6detail11MessageTypeE4ENS0_4cmif6detail14CoreMethodInfoINSt3__15tupleIJNS7_18OutRawArgumentInfoILm8ELm8ELl0EEENS7_17InRawArgumentInfoILm8ELm8ELl0EEENSD_ILm8ELm8ELl8EEENSD_ILm8ELm8ELl16EEENSD_ILm8ELm8ELl24EEENSD_ILm8ELm8ELl32EEEEEELm40ELm8ELb1EEESJ_E7ProcessEPNS2_26Hipc2ClientProxyBaseObjectENS6_6client24OutRawClientArgumentTypeILm8ELm8EEENSO_23InRawClientArgumentTypeILm8ELm8EvEESS_SS_SS_SS_j = 0x00090ec4;
_ZN2nn2sf4hipc6client24Hipc2ClientCoreProcessorILNS1_6detail11MessageTypeE4ENS0_4cmif6detail14CoreMethodInfoINSt3__15tupleIJNS7_17InRawArgumentInfoILm8ELm8ELl0EEENSB_ILm8ELm8ELl8EEEEEELm16ELm0ELb1EEESE_E7ProcessEPNS2_26Hipc2ClientProxyBaseObjectENS6_6client23InRawClientArgumentTypeILm8ELm8EvEESL_j = 0x00090ff8;
_ZN2nn2sf4hipc6client24Hipc2ClientCoreProcessorILNS1_6detail11MessageTypeE4ENS0_4cmif6detail14CoreMethodInfoINSt3__15tupleIJNS7_17InRawArgumentInfoILm8ELm8ELl0EEENSB_ILm8ELm8ELl8EEENSB_ILm8ELm8ELl16EEEEEELm24ELm0ELb1EEESF_E7ProcessEPNS2_26Hipc2ClientProxyBaseObjectENS6_6client23InRawClientArgumentTypeILm8ELm8EvEESM_SM_j = 0x000910f8;
_ZN2nn2sf4hipc6client24Hipc2ClientCoreProcessorILNS1_6detail11MessageTypeE4ENS0_4cmif6detail14CoreMethodInfoINSt3__15tupleIJNS7_17InRawArgumentInfoILm8ELm8ELl0EEENS7_20InHandleArgumentInfoILi0ELi1EEEEEELm8ELm0ELb1EEESF_E7ProcessEPNS2_26Hipc2ClientProxyBaseObjectENS6_6client23InRawClientArgumentTypeILm8ELm8EvEENSK_26InHandleClientArgumentTypeEj = 0x00091200;
_ZN2nn2ro6detail16GetExceptionInfoEPNS1_13ExceptionInfoEm = 0x00091350;
_ZN2nn2ro6detail4BindEPNS1_8RoModuleEj = 0x0009155c;
_ZN2nn2ro6detail8RoModule8BindLazyEj = 0x00091658;
_ZN2nn2ro6detail18LookupGlobalManualEPKc = 0x00091754;
_ZNK2nn2ro6detail8RoModule6LookupEPKc = 0x00091954;
_ZN2nn2ro6detail8RoModule10InitializeEmPKNS1_3Elf5Elf643DynE = 0x00091a4c;
_ZN2nn2ro6detail8RoModule8CallInitEv = 0x00091c40;
_ZN2nn2ro6detail8RoModule8CallFiniEv = 0x00091c50;
_ZNK2nn2ro6detail8RoModule10ResolveSymEPmNS1_3Elf5Elf643SymE = 0x00091c60;
_ZN2nn2ro6detail8RoModule10RelocationEb = 0x00091ddc;
_ZN2nn2ro6detail8RoModule13BindVariablesEPKS2_ = 0x00092288;
_ZN2nn2ro6detail8RoModule15RestoreFunctionEm = 0x000925e4;
_ZN2nn2ro6detail8RoModule15RestoreVariableEPKcmm = 0x000926b4;
_ZN2nn2ro6detail8RoModule15RevertReferenceEPS2_m = 0x00092904;
_ZN2nn2ro9BindEntryEv = 0x00092a5c;
_ZN2nn2sf26GetNewDeleteMemoryResourceEv = 0x00092ad8;
_ZN2nn2sf30GetGlobalDefaultMemoryResourceEv = 0x00092b1c;
_ZN2nn2sf30SetGlobalDefaultMemoryResourceEPNS_14MemoryResourceE = 0x00092b2c;
_ZN2nn2sf24GetCurrentMemoryResourceEv = 0x00092b44;
_ZN2nn2sf24SetCurrentMemoryResourceEPNS_14MemoryResourceE = 0x00092bdc;
_ZN2nn2sf33GetCurrentEffectiveMemoryResourceEv = 0x00092c8c;
_ZN2nn2sf33ScopedCurrentMemoryResourceSetterC1EPNS_14MemoryResourceE = 0x00092ce8;
_ZN2nn2sf33ScopedCurrentMemoryResourceSetterC2EPNS_14MemoryResourceE = 0x00092ce8;
_ZN2nn2sf33ScopedCurrentMemoryResourceSetterD1Ev = 0x00092d20;
_ZN2nn2sf33ScopedCurrentMemoryResourceSetterD2Ev = 0x00092d20;
_ZN2nn2sf6detail19DefaultAllocateImplEmmm = 0x00092d34;
_ZN2nn2sf6detail21DefaultDeallocateImplEPvmmm = 0x00092db4;
_ZN2nn14MemoryResourceD2Ev = 0x00092df8;
_ZN2nn2sf4cmif6server23CmifServerDomainManager14EntryAllocatorC1EPNSt3__115aligned_storageILm48ELm8EE4typeEi = 0x00092e34;
_ZN2nn2sf4cmif6server23CmifServerDomainManager14EntryAllocatorC2EPNSt3__115aligned_storageILm48ELm8EE4typeEi = 0x00092e34;
_ZN2nn2sf4cmif6server23CmifServerDomainManager14EntryAllocatorD1Ev = 0x00092ec8;
_ZN2nn2sf4cmif6server23CmifServerDomainManager14EntryAllocatorD2Ev = 0x00092ec8;
_ZN2nn2sf4cmif6server23CmifServerDomainManager6DomainC1EPS3_ = 0x00092f30;
_ZN2nn2sf4cmif6server23CmifServerDomainManager6DomainC2EPS3_ = 0x00092f30;
_ZN2nn2sf4cmif6server23CmifServerDomainManager6DomainD1Ev = 0x00092f5c;
_ZN2nn2sf4cmif6server23CmifServerDomainManager6DomainD2Ev = 0x00092f5c;
_ZN2nn2sf4cmif6server23CmifServerDomainManager14EntryAllocator15DeallocateEntryEPNS3_5EntryE = 0x00093030;
_ZN2nn2sf4cmif6server23CmifServerDomainManager6Domain11DisposeImplEv = 0x00093074;
_ZN2nn2sf4cmif6server23CmifServerDomainManager6Domain12ReserveEntryEPNS1_18CmifDomainObjectIdEi = 0x000930a8;
_ZN2nn2sf4cmif6server23CmifServerDomainManager14EntryAllocator13AllocateEntryEv = 0x00093160;
_ZThn8_N2nn2sf4cmif6server23CmifServerDomainManager6Domain12ReserveEntryEPNS1_18CmifDomainObjectIdEi = 0x000931ac;
_ZN2nn2sf4cmif6server23CmifServerDomainManager6Domain14UnReserveEntryEPKNS1_18CmifDomainObjectIdEi = 0x00093264;
_ZThn8_N2nn2sf4cmif6server23CmifServerDomainManager6Domain14UnReserveEntryEPKNS1_18CmifDomainObjectIdEi = 0x00093304;
_ZN2nn2sf4cmif6server23CmifServerDomainManager6Domain14RegisterObjectENS1_18CmifDomainObjectIdEONS2_20CmifServerObjectInfoE = 0x000933a4;
_ZThn8_N2nn2sf4cmif6server23CmifServerDomainManager6Domain14RegisterObjectENS1_18CmifDomainObjectIdEONS2_20CmifServerObjectInfoE = 0x00093458;
_ZN2nn2sf4cmif6server23CmifServerDomainManager6Domain16UnregisterObjectENS1_18CmifDomainObjectIdE = 0x0009350c;
_ZThn8_N2nn2sf4cmif6server23CmifServerDomainManager6Domain16UnregisterObjectENS1_18CmifDomainObjectIdE = 0x00093648;
_ZN2nn2sf4cmif6server23CmifServerDomainManager6Domain9GetObjectENS1_18CmifDomainObjectIdE = 0x00093654;
_ZThn8_N2nn2sf4cmif6server23CmifServerDomainManager6Domain9GetObjectENS1_18CmifDomainObjectIdE = 0x00093738;
_ZN2nn2sf4cmif6server23CmifServerDomainManagerC2EPNSt3__115aligned_storageILm48ELm8EE4typeEi = 0x0009381c;
_ZN2nn2sf4cmif6server23CmifServerDomainManager12CreateDomainEv = 0x000938d0;
_ZN2nn2sf4cmif6server23CmifServerDomainManager6Domain12AddReferenceEv = 0x00093924;
_ZN2nn2sf4cmif6server23CmifServerDomainManager6Domain7ReleaseEv = 0x0009392c;
_ZN2nn2sf14IServiceObject12GetProxyInfoEv = 0x0009397c;
_ZN2nn2sf4cmif6server23CmifServerDomainManager6Domain9GetDomainEv = 0x00093984;
_ZN2nn2sf4hipc6client24HipcClientSessionManager19ConvertToDomainImplEPNS0_4cmif18CmifDomainObjectIdENS_3svc6HandleE = 0x0009398c;
_ZN2nn2sf4hipc6client24HipcClientSessionManager16CreateNewSessionEPNS_3svc6HandleE = 0x000939e8;
_ZN2nn2sf4hipc6client22QueryPointerBufferSizeEPtNS_3svc6HandleE = 0x00093a48;
_ZN2nn2sf4hipc6client22ConvertSessionToDomainEPNS0_4cmif18CmifDomainObjectIdENS_3svc6HandleE = 0x00093a9c;
_ZN2nn2sf4hipc6client16DuplicateSessionEPNS_3svc6HandleES4_ = 0x00093af0;
_ZN2nn2sf4hipc6client18DuplicateSessionExEPNS_3svc6HandleES4_j = 0x00093bb8;
_ZNK2nn2sf4hipc6client22Hipc2ClientMessageBase19GetOutNativeHandlesEPNS0_12NativeHandleE = 0x00094300;
_ZN2nn2sf4hipc6detail25HipcMessageBufferAccessor6GetTagEPvm = 0x000943f4;
_ZN2nn2sf4hipc6detail25HipcMessageBufferAccessor15SetHeadPointersERKNS2_21HipcMessageHeaderInfoE = 0x00094424;
_ZN2nn2sf4hipc6detail25HipcMessageBufferAccessor11SetupHeaderEPvmRKNS2_21HipcMessageHeaderInfoE = 0x0009457c;
_ZN2nn2sf4hipc6detail25HipcMessageBufferAccessor11ParseHeaderEPNS2_21HipcMessageHeaderInfoEPvm = 0x0009475c;
_ZN2nn2sf4hipc6detail25HipcMessageBufferAccessor6SetTagEt = 0x00094838;
_ZNK2nn2sf4hipc6detail25HipcMessageBufferAccessor6GetTagEv = 0x00094844;
_ZN2nn2sf4hipc6detail25HipcMessageBufferAccessor12SetProcessIdEm = 0x00094850;
_ZNK2nn2sf4hipc6detail25HipcMessageBufferAccessor12GetProcessIdEv = 0x0009485c;
_ZN2nn2sf4hipc6detail25HipcMessageBufferAccessor13SetCopyHandleEij = 0x00094868;
_ZNK2nn2sf4hipc6detail25HipcMessageBufferAccessor13GetCopyHandleEi = 0x00094874;
_ZN2nn2sf4hipc6detail25HipcMessageBufferAccessor13SetMoveHandleEij = 0x00094880;
_ZNK2nn2sf4hipc6detail25HipcMessageBufferAccessor13GetMoveHandleEi = 0x0009488c;
_ZN2nn2sf4hipc6detail25HipcMessageBufferAccessor10SetPointerEimmi = 0x00094898;
_ZNK2nn2sf4hipc6detail25HipcMessageBufferAccessor10GetPointerEi = 0x000948d0;
_ZNK2nn2sf4hipc6detail25HipcMessageBufferAccessor22GetPointerReceiveIndexEi = 0x000948f8;
_ZN2nn2sf4hipc6detail25HipcMessageBufferAccessor7SetSendEimmj = 0x0009490c;
_ZNK2nn2sf4hipc6detail25HipcMessageBufferAccessor7GetSendEi = 0x00094960;
_ZN2nn2sf4hipc6detail25HipcMessageBufferAccessor10SetReceiveEimmj = 0x0009499c;
_ZNK2nn2sf4hipc6detail25HipcMessageBufferAccessor10GetReceiveEi = 0x000949f0;
_ZN2nn2sf4hipc6detail25HipcMessageBufferAccessor11SetExchangeEimmj = 0x00094a2c;
_ZNK2nn2sf4hipc6detail25HipcMessageBufferAccessor11GetExchangeEi = 0x00094a80;
_ZNK2nn2sf4hipc6detail25HipcMessageBufferAccessor13GetRawPointerEv = 0x00094abc;
_ZN2nn2sf4hipc6detail25HipcMessageBufferAccessor14SetReceiveListEimm = 0x00094ac4;
_ZNK2nn2sf4hipc6detail25HipcMessageBufferAccessor14GetReceiveListEi = 0x00094ae0;
_ZN2nn2sf4hipc6server6detail29HipcAllInOneServerManagerBaseC2EPNSt3__115aligned_storageILm48ELm8EE4typeEi = 0x00094b00;
_ZN2nn2sf4hipc6server6detail29HipcAllInOneServerManagerBaseD2Ev = 0x00094bf0;
_ZN2nn2sf4hipc6server6detail29HipcAllInOneServerManagerBaseD1Ev = 0x00094bf0;
_ZN2nn2sf4hipc6server6detail29HipcAllInOneServerManagerBase16RegisterPortImplEPNS4_15PortForAllInOneENS_3svc6HandleE = 0x00094cf4;
_ZN2nn2sf4hipc6server6detail29HipcAllInOneServerManagerBase14InitializePortEiNS_3svc6HandleE = 0x00094d5c;
_ZN2nn2sf4hipc6server6detail29HipcAllInOneServerManagerBase18InitializePortImplEiONS0_4cmif6server20CmifServerObjectInfoENS_3svc6HandleE = 0x00094d98;
_ZN2nn2sf4hipc6server6detail29HipcAllInOneServerManagerBase14InitializePortEiiPKc = 0x00094e7c;
_ZN2nn2sf4hipc6server6detail29HipcAllInOneServerManagerBase18InitializePortImplEiONS0_4cmif6server20CmifServerObjectInfoEiPKc = 0x00094ed4;
_ZN2nn2sf4hipc6server6detail29HipcAllInOneServerManagerBase5StartEv = 0x00095000;
_ZN2nn2sf4hipc6server6detail29HipcAllInOneServerManagerBase11RequestStopEv = 0x00095008;
_ZN2nn2sf4hipc6server6detail29HipcAllInOneServerManagerBase12WaitSignaledEv = 0x00095010;
_ZN2nn2sf4hipc6server6detail29HipcAllInOneServerManagerBase16ReceiveAsSessionEPNS_2os19MultiWaitHolderTypeE = 0x000950f4;
_ZN2nn2sf4hipc6server6detail29HipcAllInOneServerManagerBase16ReceiveAsSessionEPNS_2os19MultiWaitHolderTypeEPvm = 0x00095184;
_ZN2nn2sf4hipc6server6detail29HipcAllInOneServerManagerBase16ProcessAsSessionEPNS_2os19MultiWaitHolderTypeE = 0x00095214;
_ZN2nn2sf4hipc6server6detail29HipcAllInOneServerManagerBase16ProcessAsSessionEPNS_2os19MultiWaitHolderTypeEPvm = 0x000952c0;
_ZN2nn2sf4hipc6server6detail29HipcAllInOneServerManagerBase20ProcessInvokeRequestEPNS_2os19MultiWaitHolderTypeE = 0x0009536c;
_ZN2nn2sf4hipc6server6detail29HipcAllInOneServerManagerBase29ProcessInvokeRequestWithDeferEPNS_2os19MultiWaitHolderTypeE = 0x00095478;
_ZN2nn2sf4hipc6server6detail29HipcAllInOneServerManagerBase13ProcessAsPortEPNS_2os19MultiWaitHolderTypeE = 0x000955ec;
_ZN2nn2sf4hipc6server6detail29HipcAllInOneServerManagerBase27RegisterServerSessionToWaitEPNS2_17HipcServerSessionE = 0x0009574c;
_ZN2nn2sf4hipc6server6detail29HipcAllInOneServerManagerBase11ProcessAutoEPNS_2os19MultiWaitHolderTypeE = 0x000957ac;
_ZN2nn2sf4hipc6server6detail29HipcAllInOneServerManagerBase22WaitAndProcessAutoImplEv = 0x0009581c;
_ZN2nn2sf4hipc6server6detail29HipcAllInOneServerManagerBase18WaitAndProcessAutoEv = 0x000958cc;
_ZN2nn2sf4hipc6server6detail29HipcAllInOneServerManagerBase8LoopAutoEv = 0x000958d0;
_ZN2nn2sf4hipc6server6detail29HipcAllInOneServerManagerBase17AddUserWaitHolderEPNS_2os19MultiWaitHolderTypeE = 0x000958f8;
_ZN2nn2sf4hipc6server24HipcServerSessionManager20DestroyServerSessionEPNS2_21HipcServerSessionBaseE = 0x0009594c;
_ZN2nn2sf4hipc6server24HipcServerSessionManager31RegisterServerSessionToWaitBaseEPNS2_21HipcServerSessionBaseE = 0x000959b0;
_ZN2nn2sf4hipc6server24HipcServerSessionManager19CreateServerSessionEONS0_4cmif6server20CmifServerObjectInfoE = 0x000959bc;
_ZN2nn2sf4hipc6server24HipcServerSessionManager29AllocatePointerTransferBufferEPmPNS2_17HipcServerSessionE = 0x00095a38;
_ZN2nn2sf4hipc6server24HipcServerSessionManager31DeallocatePointerTransferBufferEPNS2_17HipcServerSessionEPvm = 0x00095a44;
_ZN2nn2sf4hipc6server24HipcServerSessionManager35GetHipcServerSessionManagerInternalEj = 0x00095a48;
_ZNK2nn2sf4cmif6server20CmifServerObjectInfo19FunctionForBoolTypeEv = 0x00095a4c;
_ZNK2nn2sf13SharedPointerINS0_14IServiceObjectEE19FunctionForBoolTypeEv = 0x00095a50;
_ZN2nn2sf4hipc6server21HipcServerSessionBase5ReplyEPvm = 0x00095a54;
_ZN2nn2sf4hipc6server28HipcServerSessionManagerBase12RegisterBaseEPNS2_21HipcServerSessionBaseENS_3svc6HandleE = 0x00095a70;
_ZN2nn2sf4hipc6server28HipcServerSessionManagerBase10AcceptBaseEPNS2_21HipcServerSessionBaseENS_3svc6HandleE = 0x00095ac8;
_ZN2nn2sf4hipc6server28HipcServerSessionManagerBase18ReceiveRequestBaseEPNS2_21HipcServerSessionBaseEPvmS6_m = 0x00095b3c;
_ZN2nn2sf4hipc6server28HipcServerSessionManagerBase14ProcessRequestEPNS2_21HipcServerSessionBaseEPvm = 0x00095c9c;
_ZN2nn2sf4hipc6server28HipcServerSessionManagerBase16CloseSessionBaseEPNS2_21HipcServerSessionBaseE = 0x00095e38;
_ZN2nn2sf4hipc6server24HipcServerSessionManager23ProcessInvokeMethodImplEONS0_4cmif6server20CmifServerObjectInfoEPNS2_17HipcServerSessionEPKNS1_6detail25HipcMessageBufferAccessorEPKNSA_21HipcMessageHeaderInfoEPvm = 0x00095e84;
_ZN2nn2sf4hipc6server24HipcServerSessionManager20ProcessManagerInvokeEPNS2_17HipcServerSessionEPKNS1_6detail25HipcMessageBufferAccessorEPKNS6_21HipcMessageHeaderInfoEPvm = 0x00095f24;
_ZN2nn2sf4hipc6server24HipcServerSessionManager24Process2InvokeMethodImplEONS0_4cmif6server20CmifServerObjectInfoEPNS2_17HipcServerSessionEPvmSA_m = 0x00095f2c;
_ZN2nn2sf4hipc6server24HipcServerSessionManager21Process2ManagerInvokeEPNS2_17HipcServerSessionEPvmS6_m = 0x0009606c;
_ZN2nn2sf4hipc6server24HipcServerSessionManager14ProcessMessageEPNS2_21HipcServerSessionBaseEPKNS1_6detail25HipcMessageBufferAccessorEPKNS6_21HipcMessageHeaderInfoEPvm = 0x00096074;
_ZN2nn2sf4hipc6server24HipcServerSessionManager15ProcessMessage2EPNS2_21HipcServerSessionBaseEPvmS6_m = 0x000961c0;
_ZN2nn2sf4hipc6server17HipcServerMessage17PrepareForProcessERKNS0_4cmif19CmifMessageMetaInfoE = 0x0009632c;
_ZNK2nn2sf4hipc6server17HipcServerMessage24OverwriteClientProcessIdEPm = 0x00096508;
_ZNK2nn2sf4hipc6server17HipcServerMessage10GetBuffersEPNS0_6detail14PointerAndSizeE = 0x00096534;
_ZNK2nn2sf4hipc6server17HipcServerMessage18GetInNativeHandlesEPNS0_12NativeHandleE = 0x00096684;
_ZNK2nn2sf4hipc6server17HipcServerMessage12GetInObjectsEPNS0_4cmif6server20CmifServerObjectInfoE = 0x00096774;
_ZN2nn2sf4hipc6server17HipcServerMessage22BeginPreparingForReplyEPNS0_6detail14PointerAndSizeE = 0x0009677c;
_ZN2nn2sf4hipc6server17HipcServerMessage10SetBuffersEPNS0_6detail14PointerAndSizeE = 0x0009687c;
_ZN2nn2sf4hipc6server17HipcServerMessage13SetOutObjectsEPNS0_4cmif6server20CmifServerObjectInfoE = 0x00096910;
_ZN2nn2sf4hipc6server17HipcServerMessage19SetOutNativeHandlesEPNS0_12NativeHandleE = 0x0009696c;
_ZN2nn2sf4hipc6server17HipcServerMessage27BeginPreparingForErrorReplyEPNS0_6detail14PointerAndSizeEm = 0x00096a3c;
_ZN2nn2sf4cmif6server17CmifServerMessage20EndPreparingForReplyEv = 0x00096ac8;
_ZN2nn2sf4hipc6server17HipcServerMessage12SetOutObjectEiONS0_4cmif6server20CmifServerObjectInfoE = 0x00096acc;
_ZN2nn2sf4hipc6server18Hipc2ServerMessage17PrepareForProcessERKNS0_4cmif19CmifMessageMetaInfoE = 0x00096bb0;
_ZNK2nn2sf4hipc6server18Hipc2ServerMessage24OverwriteClientProcessIdEPm = 0x00096ec4;
_ZNK2nn2sf4hipc6server18Hipc2ServerMessage10GetBuffersEPNS0_6detail14PointerAndSizeE = 0x00096ee4;
_ZNK2nn2sf4hipc6server18Hipc2ServerMessage18GetInNativeHandlesEPNS0_12NativeHandleE = 0x00097100;
_ZNK2nn2sf4hipc6server18Hipc2ServerMessage12GetInObjectsEPNS0_4cmif6server20CmifServerObjectInfoE = 0x000971f8;
_ZN2nn2sf4hipc6server18Hipc2ServerMessage22BeginPreparingForReplyEPNS0_6detail14PointerAndSizeE = 0x00097200;
_ZN2nn2sf4hipc6server18Hipc2ServerMessage10SetBuffersEPNS0_6detail14PointerAndSizeE = 0x00097324;
_ZN2nn2sf4hipc6server18Hipc2ServerMessage13SetOutObjectsEPNS0_4cmif6server20CmifServerObjectInfoE = 0x00097430;
_ZN2nn2sf4hipc6server18Hipc2ServerMessage19SetOutNativeHandlesEPNS0_12NativeHandleE = 0x0009748c;
_ZN2nn2sf4hipc6server18Hipc2ServerMessage27BeginPreparingForErrorReplyEPNS0_6detail14PointerAndSizeEm = 0x00097554;
_ZN2nn2sf4hipc6detail23MakeHipcMessageDataInfoERKNS2_21HipcMessageHeaderInfoE = 0x00097614;
_ZN2nn2sf4hipc6server18Hipc2ServerMessage12SetOutObjectEiONS0_4cmif6server20CmifServerObjectInfoE = 0x000977c0;
_ZN2nn2sf4hipc6server34HipcServerSessionManagerWithDomain20ProcessManagerInvokeEPNS2_17HipcServerSessionEPKNS1_6detail25HipcMessageBufferAccessorEPKNS6_21HipcMessageHeaderInfoEPvm = 0x00097898;
_ZN2nn2sf4hipc6server34HipcServerSessionManagerWithDomain21Process2ManagerInvokeEPNS2_17HipcServerSessionEPvmS6_m = 0x0009792c;
_ZN2nn2sf22UnmanagedServiceObjectINS0_4hipc6detail12IHipcManagerENS2_6server34HipcServerSessionManagerWithDomain15HipcManagerImplEE12AddReferenceEv = 0x000979c0;
_ZN2nn2sf22UnmanagedServiceObjectINS0_4hipc6detail12IHipcManagerENS2_6server34HipcServerSessionManagerWithDomain15HipcManagerImplEE7ReleaseEv = 0x000979c4;
_ZN2nn2sf4impl6detail17ImplTemplateBaseTINS0_4hipc6detail12IHipcManagerES6_NS0_6detail27UnmanagedEmplacedImplHolderINS4_6server34HipcServerSessionManagerWithDomain15HipcManagerImplEEESC_S6_E40_nn_sf_sync_ConvertCurrentObjectToDomainENS0_3OutINS0_4cmif18CmifDomainObjectIdEvEE = 0x000979c8;
_ZN2nn2sf4impl6detail17ImplTemplateBaseTINS0_4hipc6detail12IHipcManagerES6_NS0_6detail27UnmanagedEmplacedImplHolderINS4_6server34HipcServerSessionManagerWithDomain15HipcManagerImplEEESC_S6_E33_nn_sf_sync_CopyFromCurrentDomainENS0_3OutINS0_12NativeHandleEvEENS0_4cmif18CmifDomainObjectIdE = 0x00097aa0;
_ZN2nn2sf4impl6detail17ImplTemplateBaseTINS0_4hipc6detail12IHipcManagerES6_NS0_6detail27UnmanagedEmplacedImplHolderINS4_6server34HipcServerSessionManagerWithDomain15HipcManagerImplEEESC_S6_E30_nn_sf_sync_CloneCurrentObjectENS0_3OutINS0_12NativeHandleEvEE = 0x00097ac0;
_ZN2nn2sf4impl6detail17ImplTemplateBaseTINS0_4hipc6detail12IHipcManagerES6_NS0_6detail27UnmanagedEmplacedImplHolderINS4_6server34HipcServerSessionManagerWithDomain15HipcManagerImplEEESC_S6_E34_nn_sf_sync_QueryPointerBufferSizeENS0_3OutItvEE = 0x00097adc;
_ZN2nn2sf4impl6detail17ImplTemplateBaseTINS0_4hipc6detail12IHipcManagerES6_NS0_6detail27UnmanagedEmplacedImplHolderINS4_6server34HipcServerSessionManagerWithDomain15HipcManagerImplEEESC_S6_E32_nn_sf_sync_CloneCurrentObjectExENS0_3OutINS0_12NativeHandleEvEEj = 0x00097af0;
_ZN2nn2sf4cmif6server22CmifDomainServerObject14ProcessMessageEPNS0_14IServiceObjectEPNS2_17CmifServerMessageERKNS0_6detail14PointerAndSizeE = 0x00097b44;
_ZN2nn2sf4cmif6server22CmifDomainServerObject18ProcessMessageImplEPNS2_17CmifServerMessageEPNS2_16CmifServerDomainENS0_6detail14PointerAndSizeE = 0x00097b84;
_ZN2nn2sf4cmif6server22CmifDomainServerObject23CmifDomainServerMessage17PrepareForProcessERKNS1_19CmifMessageMetaInfoE = 0x00097d18;
_ZNK2nn2sf4cmif6server22CmifDomainServerObject23CmifDomainServerMessage24OverwriteClientProcessIdEPm = 0x00097e0c;
_ZNK2nn2sf4cmif6server22CmifDomainServerObject23CmifDomainServerMessage10GetBuffersEPNS0_6detail14PointerAndSizeE = 0x00097e30;
_ZNK2nn2sf4cmif6server22CmifDomainServerObject23CmifDomainServerMessage18GetInNativeHandlesEPNS0_12NativeHandleE = 0x00097e54;
_ZNK2nn2sf4cmif6server22CmifDomainServerObject23CmifDomainServerMessage12GetInObjectsEPNS2_20CmifServerObjectInfoE = 0x00097e78;
_ZN2nn2sf4cmif6server22CmifDomainServerObject23CmifDomainServerMessage22BeginPreparingForReplyEPNS0_6detail14PointerAndSizeE = 0x00097f1c;
_ZN2nn2sf4cmif6server22CmifDomainServerObject23CmifDomainServerMessage10SetBuffersEPNS0_6detail14PointerAndSizeE = 0x00097f88;
_ZN2nn2sf4cmif6server22CmifDomainServerObject23CmifDomainServerMessage13SetOutObjectsEPNS2_20CmifServerObjectInfoE = 0x00097f98;
_ZN2nn2sf4cmif6server22CmifDomainServerObject23CmifDomainServerMessage19SetOutNativeHandlesEPNS0_12NativeHandleE = 0x00098058;
_ZN2nn2sf4cmif6server22CmifDomainServerObject23CmifDomainServerMessage27BeginPreparingForErrorReplyEPNS0_6detail14PointerAndSizeEm = 0x00098068;
_ZN2nn2sf4cmif6server22CmifDomainServerObject23CmifDomainServerMessage20EndPreparingForReplyEv = 0x000980dc;
_ZN2nn2sf4hipc6server34HipcServerSessionManagerWithDomain15HipcManagerImpl21CopyFromCurrentDomainENS0_3OutINS0_12NativeHandleEvEENS0_4cmif18CmifDomainObjectIdE = 0x000980ec;
_ZN2nn2sf4hipc6server34HipcServerSessionManagerWithDomain15HipcManagerImpl22CloneCurrentObjectImplENS0_3OutINS0_12NativeHandleEvEEPNS2_24HipcServerSessionManagerE = 0x00098254;
_ZN2nn2sf4cmif6server6detail38CmifProcessFunctionTableGetterImplBaseINS0_4hipc6detail12IHipcManagerEE20ProcessServerMessageEPNS0_14IServiceObjectEPNS2_17CmifServerMessageERKNS0_6detail14PointerAndSizeE = 0x000983a4;
_ZN2nn2sf4cmif6server6detail34CmifProcessFunctionTableGetterImplINS0_4hipc6detail12IHipcManagerEE36Process_ConvertCurrentObjectToDomainEPPNS1_13CmifOutHeaderEPS7_PNS2_17CmifServerMessageEONS0_6detail14PointerAndSizeE = 0x00098538;
_ZN2nn2sf4cmif6server6detail34CmifProcessFunctionTableGetterImplINS0_4hipc6detail12IHipcManagerEE29Process_CopyFromCurrentDomainEPPNS1_13CmifOutHeaderEPS7_PNS2_17CmifServerMessageEONS0_6detail14PointerAndSizeE = 0x00098684;
_ZN2nn2sf4cmif6server6detail34CmifProcessFunctionTableGetterImplINS0_4hipc6detail12IHipcManagerEE26Process_CloneCurrentObjectEPPNS1_13CmifOutHeaderEPS7_PNS2_17CmifServerMessageEONS0_6detail14PointerAndSizeE = 0x000987f0;
_ZN2nn2sf4cmif6server6detail34CmifProcessFunctionTableGetterImplINS0_4hipc6detail12IHipcManagerEE30Process_QueryPointerBufferSizeEPPNS1_13CmifOutHeaderEPS7_PNS2_17CmifServerMessageEONS0_6detail14PointerAndSizeE = 0x00098944;
_ZN2nn2sf4cmif6server6detail34CmifProcessFunctionTableGetterImplINS0_4hipc6detail12IHipcManagerEE28Process_CloneCurrentObjectExEPPNS1_13CmifOutHeaderEPS7_PNS2_17CmifServerMessageEONS0_6detail14PointerAndSizeE = 0x00098a90;
_ZN2nn2sf4impl6detail21ServiceObjectImplBase12AddReferenceEv = 0x00098bfc;
_ZN2nn2sf4impl6detail21ServiceObjectImplBase7ReleaseEv = 0x00098c3c;
_ZN2nn2sf4impl6detail22ServiceObjectImplBase216AddReferenceImplEv = 0x00098c88;
_ZN2nn2sf4impl6detail22ServiceObjectImplBase211ReleaseImplEv = 0x00098cc4;
_ZN2nn2sf4hipc21CloseClientPortHandleENS_3svc6HandleE = 0x00098d04;
_ZN2nn2sf4hipc13ConnectToPortEPNS_3svc6HandleES3_ = 0x00098d4c;
_ZN2nn2sf4hipc24CloseClientSessionHandleENS_3svc6HandleE = 0x00098d68;
_ZN2nn2sf4hipc21GetMessageBufferOnTlsEv = 0x00098db0;
_ZN2nn2sf4hipc15SendSyncRequestENS_3svc6HandleEPvm = 0x00098db8;
_ZN2nn2sf4hipc16SendAsyncRequestEPNS_3svc6HandleES3_Pvm = 0x00098e1c;
_ZN2nn2sf4hipc23WaitClientRequestHandleENS_3svc6HandleEPvm = 0x00098e68;
_ZN2nn2sf4hipc24CloseClientRequestHandleENS_3svc6HandleE = 0x00098ee0;
_ZN2nn2sf4hipc10CreatePortEPNS_3svc6HandleES4_i = 0x00098f28;
_ZN2nn2sf4hipc21CloseServerPortHandleENS_3svc6HandleE = 0x00098f48;
_ZN2nn2sf4hipc25AttachWaitHolderForAcceptEPNS_2os19MultiWaitHolderTypeENS_3svc6HandleE = 0x00098f90;
_ZN2nn2sf4hipc13AcceptSessionEPNS_3svc6HandleES3_ = 0x00098f94;
_ZN2nn2sf4hipc13CreateSessionEPNS_3svc6HandleES4_ = 0x00098fb0;
_ZN2nn2sf4hipc24CloseServerSessionHandleENS_3svc6HandleE = 0x00098ff8;
_ZN2nn2sf4hipc26AttachWaitHolderForReceiveEPNS_2os19MultiWaitHolderTypeENS_3svc6HandleE = 0x00099040;
_ZN2nn2sf4hipc7ReceiveEPbNS_3svc6HandleEPvm = 0x00099044;
_ZN2nn2sf4hipc7ReceiveEPNS1_13ReceiveResultENS_3svc6HandleEPvm = 0x000990ec;
_ZN2nn2sf4hipc5ReplyENS_3svc6HandleEPvm = 0x000991b8;
_ZN2nn2sf4hipc24AttachWaitHolderForReplyEPNS_2os19MultiWaitHolderTypeENS_3svc6HandleE = 0x00099268;
_ZN2nn2sf4hipc31InitializeHipcServiceResolutionEv = 0x0009926c;
_ZN2nn2sf4hipc29FinalizeHipcServiceResolutionEv = 0x000992b0;
_ZN2nn2sf4hipc19RegisterHipcServiceEPNS_3svc6HandleEiPKc = 0x000992f4;
_ZN2nn2sf4hipc21UnregisterHipcServiceEPKc = 0x00099344;
_ZN2nn2sf4hipc23IsHipcServiceRegisteredEPKc = 0x00099398;
_ZN2nn2sf4hipc20ConnectToHipcServiceEPNS_3svc6HandleEPKc = 0x000993b8;
_ZN2nn2sf4hipc23TryConnectToHipcServiceEPbPNS_3svc6HandleEPKc = 0x000993f4;
_ZN2nn2sm10InitializeEv = 0x00099414;
_ZN2nn2sm8FinalizeEv = 0x000995e4;
_ZN2nn2sm16GetServiceHandleEPNS_3svc6HandleEPKcm = 0x000995ec;
_ZN2nn2sm15RegisterServiceEPNS_3svc6HandleEPKcmib = 0x0009971c;
_ZN2nn2sm17UnregisterServiceEPKcm = 0x00099850;
_ZN2nn2sf4hipc6client24Hipc2ClientCoreProcessorILNS1_6detail11MessageTypeE4ENS0_4cmif6detail14CoreMethodInfoINSt3__15tupleIJNS7_17InRawArgumentInfoILm8ELm8ELl0EEEEEELm8ELm0ELb1EEESD_E7ProcessEPNS2_26Hipc2ClientProxyBaseObjectENS6_6client23InRawClientArgumentTypeILm8ELm8EvEEj = 0x00099b00;
_ZN2nn2sf4hipc6client24Hipc2ClientCoreProcessorILNS1_6detail11MessageTypeE4ENS0_4cmif6detail14CoreMethodInfoINSt3__15tupleIJNS7_21OutHandleArgumentInfoILi0ELi2EEENS7_17InRawArgumentInfoILm8ELm1ELl0EEEEEELm8ELm0ELb0EEESF_E7ProcessEPNS2_26Hipc2ClientProxyBaseObjectENS6_6client27OutHandleClientArgumentTypeENSK_23InRawClientArgumentTypeILm8ELm1EvEEj = 0x00099bf4;
_ZN2nn2sf4hipc6client24Hipc2ClientCoreProcessorILNS1_6detail11MessageTypeE4ENS0_4cmif6detail14CoreMethodInfoINSt3__15tupleIJNS7_21OutHandleArgumentInfoILi0ELi2EEENS7_17InRawArgumentInfoILm8ELm1ELl0EEENSD_ILm4ELm4ELl12EEENSD_ILm1ELm1ELl8EEEEEELm16ELm0ELb0EEESH_E7ProcessEPNS2_26Hipc2ClientProxyBaseObjectENS6_6client27OutHandleClientArgumentTypeENSM_23InRawClientArgumentTypeILm8ELm1EvEENSO_ILm4ELm4EvEENSO_ILm1ELm1EvEEj = 0x00099d50;
_ZN2nn2sf4hipc6client24Hipc2ClientCoreProcessorILNS1_6detail11MessageTypeE4ENS0_4cmif6detail14CoreMethodInfoINSt3__15tupleIJNS7_17InRawArgumentInfoILm8ELm1ELl0EEEEEELm8ELm0ELb0EEESD_E7ProcessEPNS2_26Hipc2ClientProxyBaseObjectENS6_6client23InRawClientArgumentTypeILm8ELm1EvEEj = 0x00099ec8;
_ZN2nn2sm20InitializeForManagerEv = 0x00099fb0;
_ZN2nn2sm18FinalizeForManagerEv = 0x0009a0b0;
_ZN2nn2sm15RegisterProcessENS_2os9ProcessIdEPKvmS4_m = 0x0009a0d0;
_ZN2nn2sm17UnregisterProcessENS_2os9ProcessIdE = 0x0009a11c;
_ZN2nn2sf13SharedPointerINS_2sm6detail17IManagerInterfaceEED2Ev = 0x0009a150;
_ZN2nn2sf4hipc6client24Hipc2ClientCoreProcessorILNS1_6detail11MessageTypeE4ENS0_4cmif6detail14CoreMethodInfoINSt3__15tupleIJNS7_17InRawArgumentInfoILm8ELm8ELl0EEENS7_18BufferArgumentInfoILi0ELi5ELm0EEENSD_ILi1ELi5ELm0EEEEEELm8ELm0ELb0EEESG_E7ProcessEPNS2_26Hipc2ClientProxyBaseObjectENS6_6client23InRawClientArgumentTypeILm8ELm8EvEENSL_24BufferClientArgumentTypeESO_j = 0x0009a2a0;
_ZN2nn2sf4hipc6client24Hipc2ClientCoreProcessorILNS1_6detail11MessageTypeE4ENS0_4cmif6detail14CoreMethodInfoINSt3__15tupleIJNS7_17InRawArgumentInfoILm8ELm8ELl0EEEEEELm8ELm0ELb0EEESD_E7ProcessEPNS2_26Hipc2ClientProxyBaseObjectENS6_6client23InRawClientArgumentTypeILm8ELm8EvEEj = 0x0009a418;
_ZN2nn6socket4RecvEiPvmi = 0x0009a524;
_ZN2nn6socket8RecvFromEiPvmiP8sockaddrPj = 0x0009a528;
_ZN2nn6socket4SendEiPKvmi = 0x0009a52c;
_ZN2nn6socket6SendToEiPKvmiPK8sockaddrj = 0x0009a530;
_ZN2nn6socket6AcceptEiP8sockaddrPj = 0x0009a534;
_ZN2nn6socket4BindEiPK8sockaddrj = 0x0009a538;
_ZN2nn6socket7ConnectEiPK8sockaddrj = 0x0009a53c;
_ZN2nn6socket11GetPeerNameEiP8sockaddrPj = 0x0009a540;
_ZN2nn6socket11GetSockNameEiP8sockaddrPj = 0x0009a544;
_ZN2nn6socket10GetSockOptEiiiPvPj = 0x0009a548;
_ZN2nn6socket6ListenEii = 0x0009a54c;
_ZN2nn6socket10SetSockOptEiiiPKvj = 0x0009a550;
_ZN2nn6socket10SockAtMarkEi = 0x0009a554;
_ZN2nn6socket8ShutdownEii = 0x0009a558;
_ZN2nn6socket18ShutdownAllSocketsEb = 0x0009a55c;
_ZN2nn6socket6SocketEiii = 0x0009a564;
_ZN2nn6socket12SocketExemptEiii = 0x0009a568;
_ZN2nn6socket5WriteEiPKvm = 0x0009a56c;
_ZN2nn6socket4ReadEiPvm = 0x0009a570;
_ZN2nn6socket5CloseEi = 0x0009a574;
_ZN2nn6socket6SelectEiP6fd_setS2_S2_P7timeval = 0x0009a578;
_ZN2nn6socket4PollEP6pollfdmi = 0x0009a57c;
_ZN2nn6socket5FcntlEiiz = 0x0009a580;
_ZN2nn6socket8InetPtonEiPKcPv = 0x0009a61c;
_ZN2nn6socket8InetNtopEiPKvPcj = 0x0009a620;
_ZN2nn6socket8InetAtonEPKcP7in_addr = 0x0009a624;
_ZN2nn6socket8InetNtoaE7in_addr = 0x0009a628;
_ZN2nn6socket9InetHtonsEt = 0x0009a630;
_ZN2nn6socket9InetHtonlEj = 0x0009a634;
_ZN2nn6socket9InetNtohsEt = 0x0009a638;
_ZN2nn6socket9InetNtohlEj = 0x0009a63c;
_ZN2nn6socket12GetLastErrnoEv = 0x0009a640;
_ZN2nn6socket12SetLastErrnoEi = 0x0009a644;
_ZN2nn6socket7RecvMsgEiP6msghdri = 0x0009a648;
_ZN2nn6socket8RecvMMsgEiP7mmsghdrmiPNS_8TimeSpanE = 0x0009a64c;
_ZN2nn6socket7SendMsgEiPK6msghdri = 0x0009a650;
_ZN2nn6socket8SendMMsgEiPK7mmsghdrmi = 0x0009a654;
_ZN2nn6socket5IoctlEijPvm = 0x0009a658;
_ZN2nn6socket4OpenEPKci = 0x0009a65c;
_ZN2nn6socket10InitializeEPvmmi = 0x0009a660;
_ZN2nn6socket10InitializeERKNS0_6ConfigE = 0x0009a678;
_ZN2nn6socket8FinalizeEv = 0x0009a690;
_ZN2nn6socket11GetAddrInfoEPKcS2_PK8addrinfoPPS3_ = 0x0009a6a8;
_ZN2nn6socket11GetAddrInfoEPKcS2_PK8addrinfoPPS3_i = 0x0009a6ac;
_ZN2nn6socket28GetAddrInfoWithoutNsdResolveEPKcS2_PK8addrinfoPPS3_ = 0x0009a6b0;
_ZN2nn6socket28GetAddrInfoWithoutNsdResolveEPKcS2_PK8addrinfoPPS3_i = 0x0009a6b4;
_ZN2nn6socket12FreeAddrInfoEP8addrinfo = 0x0009a6b8;
_ZN2nn6socket11GetNameInfoEPK8sockaddrjPcjS4_ji = 0x0009a6bc;
_ZN2nn6socket11GetNameInfoEPK8sockaddrjPcjS4_jii = 0x0009a6c0;
_ZN2nn6socket13GetHostByNameEPKc = 0x0009a6c4;
_ZN2nn6socket13GetHostByNameEPKci = 0x0009a6c8;
_ZN2nn6socket30GetHostByNameWithoutNsdResolveEPKc = 0x0009a6cc;
_ZN2nn6socket30GetHostByNameWithoutNsdResolveEPKci = 0x0009a6d0;
_ZN2nn6socket13GetHostByAddrEPKvji = 0x0009a6d4;
_ZN2nn6socket13GetHostByAddrEPKvjii = 0x0009a6d8;
_ZN2nn6socket19RequestCancelHandleEv = 0x0009a6dc;
_ZN2nn6socket6CancelEi = 0x0009a6e0;
_ZN2nn6socket9GetHErrnoEv = 0x0009a6e4;
_ZN2nn6socket9HStrErrorEi = 0x0009a6e8;
_ZN2nn6socket11GAIStrErrorEi = 0x0009a6ec;
_ZN2nn6socket6SysctlEPimPvPmS2_m = 0x0009a6f0;
_ZN2nn6socket15DuplicateSocketEim = 0x0009a6f4;
_ZN2nn6socket21GetResourceStatisticsEPNS0_18ResourceStatisticsEm = 0x0009a6f8;
_ZN2nn2sf13SharedPointerINS_6socket2sf7IClientEED2Ev = 0x0009a8a4;
_ZN2nn6socket6detail5AllocEm = 0x0009a8bc;
_ZN2nn6socket6detail12AllocAlignedEmm = 0x0009a900;
_ZN2nn6socket6detail6CallocEmm = 0x0009a94c;
_ZN2nn6socket6detail7ReallocEPvm = 0x0009a9c4;
_ZN2nn6socket6detail4FreeEPv = 0x0009aaa4;
_ZN2nn6socket6detail15HeapIsAvailableEi = 0x0009aac8;
_ZN2nn6socket6detail17GetHeapGenerationEv = 0x0009aaf4;
_ZN2nn6socket6detail16InitializeCommonERKNS0_6ConfigE = 0x0009ab00;
_ZN2nn6socket6detail10InitializeEPvmmi = 0x0009adbc;
_ZN2nn6socket6detail10InitializeERKNS0_6ConfigE = 0x0009ae20;
_ZN2nn6socket6detail8FinalizeEv = 0x0009ae38;
_ZN2nn6socket6detail12SetLastErrnoEi = 0x0009aeb4;
_ZN2nn6socket6detail12GetLastErrnoEv = 0x0009aee8;
_ZN2nn6socket6detail4RecvEiPvmi = 0x0009af18;
_ZN2nn6socket6detail8RecvFromEiPvmiP8sockaddrPj = 0x0009b0a8;
_ZN2nn6socket6detail7RecvMsgEiP6msghdri = 0x0009b26c;
_ZN2nn6socket6detail8RecvMMsgEiP7mmsghdrmiPNS_8TimeSpanE = 0x0009b2c8;
_ZN2nn6socket6detail4SendEiPKvmi = 0x0009b5ac;
_ZN2nn6socket6detail6SendToEiPKvmiPK8sockaddrj = 0x0009b740;
_ZN2nn6socket6detail7SendMsgEiPK6msghdri = 0x0009b8f8;
_ZN2nn6socket6detail8SendMMsgEiPK7mmsghdrmi = 0x0009b954;
_ZN2nn6socket6detail6AcceptEiP8sockaddrPj = 0x0009be20;
_ZN2nn6socket6detail4BindEiPK8sockaddrj = 0x0009bfb0;
_ZN2nn6socket6detail7ConnectEiPK8sockaddrj = 0x0009c110;
_ZN2nn6socket6detail11GetPeerNameEiP8sockaddrPj = 0x0009c270;
_ZN2nn6socket6detail11GetSockNameEiP8sockaddrPj = 0x0009c3e0;
_ZN2nn6socket6detail10GetSockOptEiiiPvPj = 0x0009c550;
_ZN2nn6socket6detail6ListenEii = 0x0009c6d0;
_ZN2nn6socket6detail5FcntlEiiz = 0x0009c808;
_ZN2nn6socket6detail10SetSockOptEiiiPKvj = 0x0009c9d8;
_ZN2nn6socket6detail8ShutdownEii = 0x0009cb48;
_ZN2nn6socket6detail18ShutdownAllSocketsEb = 0x0009cc80;
_ZN2nn6socket6detail5WriteEiPKvm = 0x0009cdb0;
_ZN2nn6socket6detail4ReadEiPvm = 0x0009cf34;
_ZN2nn6socket6detail10SockAtMarkEi = 0x0009d0b8;
_ZN2nn6socket6detail5IoctlEijPvm = 0x0009d128;
_ZN2nn6socket6detail6SelectEiP6fd_setS3_S3_P7timeval = 0x0009d628;
_ZN2nn6socket6detail4PollEP6pollfdmi = 0x0009d838;
_ZN2nn6socket6detail6SocketEiii = 0x0009d9cc;
_ZN2nn6socket6detail12SocketExemptEiii = 0x0009db0c;
_ZN2nn6socket6detail4OpenEPKci = 0x0009dc4c;
_ZN2nn6socket6detail5CloseEi = 0x0009ddcc;
_ZN2nn6socket6detail6SysctlEPimPvPmS3_m = 0x0009defc;
_ZN2nn6socket6detail15DuplicateSocketEim = 0x0009e0c0;
_ZN2nn6socket6detail21GetResourceStatisticsEPNS0_18ResourceStatisticsEm = 0x0009e1f8;
_ZN2nn6socket6detail8InetNtopEiPKvPcj = 0x0009e36c;
_ZN2nn6socket6detail8InetPtonEiPKcPv = 0x0009e370;
_ZN2nn6socket6detail8InetAtonEPKcP7in_addr = 0x0009e374;
_ZN2nn6socket6detail8InetNtoaE7in_addr = 0x0009e378;
_ZN2nn6socket6detail9InetHtonsEt = 0x0009e380;
_ZN2nn6socket6detail9InetHtonlEj = 0x0009e38c;
_ZN2nn6socket6detail9InetNtohsEt = 0x0009e394;
_ZN2nn6socket6detail9InetNtohlEj = 0x0009e3a0;
_ZNK2nn2sf13SharedPointerINS_6socket2sf7IClientEE19FunctionForBoolTypeEv = 0x0009e3a8;
_ZN2nn6socket6detail10socketAtonEPKcP7in_addr = 0x0009e408;
_ZN2nn6socket6detail25CreateClientMonitorByHipcEPKc = 0x0009e590;
_ZN2nn6socket6detail25CreateClientServiceByHipcEiPKc = 0x0009e674;
_ZN2nn6socket6detail26DestroyClientMonitorByHipcEPNS_2sf13SharedPointerINS0_2sf7IClientEEE = 0x0009e838;
_ZN2nn6socket6detail26DestroyClientServiceByHipcEPNS_2sf13SharedPointerINS0_2sf7IClientEEE = 0x0009e890;
_ZN2nn2sf4hipc6client24Hipc2ClientCoreProcessorILNS1_6detail11MessageTypeE4ENS0_4cmif6detail14CoreMethodInfoINSt3__15tupleIJNS7_18OutRawArgumentInfoILm4ELm4ELl0EEENS7_17InRawArgumentInfoILm8ELm8ELl32EEENS7_20InHandleArgumentInfoILi0ELi1EEENSD_ILm8ELm8ELl40EEENSD_ILm32ELm4ELl0EEEEEELm48ELm4ELb1EEESJ_E7ProcessEPNS2_26Hipc2ClientProxyBaseObjectENS6_6client24OutRawClientArgumentTypeILm4ELm4EEENSO_23InRawClientArgumentTypeILm8ELm8EvEENSO_26InHandleClientArgumentTypeESS_NSR_ILm32ELm4EvEEj = 0x0009f098;
_ZN2nn2sf4hipc6client24Hipc2ClientCoreProcessorILNS1_6detail11MessageTypeE4ENS0_4cmif6detail14CoreMethodInfoINSt3__15tupleIJNS7_18OutRawArgumentInfoILm4ELm4ELl0EEENSB_ILm4ELm4ELl4EEENS7_17InRawArgumentInfoILm4ELm4ELl0EEENSE_ILm4ELm4ELl4EEENSE_ILm4ELm4ELl8EEEEEELm12ELm8ELb0EEESI_E7ProcessEPNS2_26Hipc2ClientProxyBaseObjectENS6_6client24OutRawClientArgumentTypeILm4ELm4EEESP_NSN_23InRawClientArgumentTypeILm4ELm4EvEESR_SR_j = 0x0009f210;
_ZN2nn2sf4hipc6client24Hipc2ClientCoreProcessorILNS1_6detail11MessageTypeE4ENS0_4cmif6detail14CoreMethodInfoINSt3__15tupleIJNS7_18OutRawArgumentInfoILm4ELm4ELl0EEENSB_ILm4ELm4ELl4EEENS7_18BufferArgumentInfoILi0ELi33ELm0EEENS7_17InRawArgumentInfoILm4ELm4ELl0EEEEEELm4ELm8ELb0EEESI_E7ProcessEPNS2_26Hipc2ClientProxyBaseObjectENS6_6client24OutRawClientArgumentTypeILm4ELm4EEESP_NSN_24BufferClientArgumentTypeENSN_23InRawClientArgumentTypeILm4ELm4EvEEj = 0x0009f330;
_ZN2nn2sf4hipc6client24Hipc2ClientCoreProcessorILNS1_6detail11MessageTypeE4ENS0_4cmif6detail14CoreMethodInfoINSt3__15tupleIJNS7_18OutRawArgumentInfoILm4ELm4ELl0EEENSB_ILm4ELm4ELl4EEENS7_17InRawArgumentInfoILm4ELm4ELl0EEENS7_18BufferArgumentInfoILi0ELi33ELm0EEENSG_ILi1ELi33ELm0EEENSG_ILi2ELi33ELm0EEENSG_ILi3ELi34ELm0EEENSG_ILi4ELi34ELm0EEENSG_ILi5ELi34ELm0EEENSE_ILm24ELm8ELl8EEEEEELm32ELm8ELb0EEESO_E7ProcessEPNS2_26Hipc2ClientProxyBaseObjectENS6_6client24OutRawClientArgumentTypeILm4ELm4EEESV_NST_23InRawClientArgumentTypeILm4ELm4EvEENST_24BufferClientArgumentTypeESY_SY_SY_SY_SY_NSW_ILm24ELm8EvEEj = 0x0009f530;
_ZN2nn2sf4hipc6client24Hipc2ClientCoreProcessorILNS1_6detail11MessageTypeE4ENS0_4cmif6detail14CoreMethodInfoINSt3__15tupleIJNS7_18OutRawArgumentInfoILm4ELm4ELl0EEENSB_ILm4ELm4ELl4EEENS7_18BufferArgumentInfoILi0ELi33ELm0EEENSE_ILi1ELi34ELm0EEENS7_17InRawArgumentInfoILm4ELm4ELl0EEENSH_ILm4ELm4ELl4EEEEEELm8ELm8ELb0EEESK_E7ProcessEPNS2_26Hipc2ClientProxyBaseObjectENS6_6client24OutRawClientArgumentTypeILm4ELm4EEESR_NSP_24BufferClientArgumentTypeESS_NSP_23InRawClientArgumentTypeILm4ELm4EvEESU_j = 0x0009f7cc;
_ZN2nn2sf4hipc6client24Hipc2ClientCoreProcessorILNS1_6detail11MessageTypeE4ENS0_4cmif6detail14CoreMethodInfoINSt3__15tupleIJNS7_18OutRawArgumentInfoILm4ELm4ELl0EEENSB_ILm4ELm4ELl4EEENS7_18BufferArgumentInfoILi0ELi33ELm0EEENSE_ILi1ELi34ELm0EEENSB_ILm4ELm4ELl8EEENSE_ILi2ELi33ELm0EEEEEELm0ELm12ELb0EEESJ_E7ProcessEPNS2_26Hipc2ClientProxyBaseObjectENS6_6client24OutRawClientArgumentTypeILm4ELm4EEESQ_NSO_24BufferClientArgumentTypeESR_SQ_SR_j = 0x0009f9e0;
_ZN2nn2sf4hipc6client24Hipc2ClientCoreProcessorILNS1_6detail11MessageTypeE4ENS0_4cmif6detail14CoreMethodInfoINSt3__15tupleIJNS7_18OutRawArgumentInfoILm4ELm4ELl0EEENSB_ILm4ELm4ELl4EEENS7_17InRawArgumentInfoILm4ELm4ELl0EEENS7_18BufferArgumentInfoILi0ELi34ELm0EEENSE_ILm4ELm4ELl4EEEEEELm8ELm8ELb0EEESJ_E7ProcessEPNS2_26Hipc2ClientProxyBaseObjectENS6_6client24OutRawClientArgumentTypeILm4ELm4EEESQ_NSO_23InRawClientArgumentTypeILm4ELm4EvEENSO_24BufferClientArgumentTypeESS_j = 0x0009fc08;
_ZN2nn2sf4hipc6client24Hipc2ClientCoreProcessorILNS1_6detail11MessageTypeE4ENS0_4cmif6detail14CoreMethodInfoINSt3__15tupleIJNS7_18OutRawArgumentInfoILm4ELm4ELl0EEENSB_ILm4ELm4ELl4EEENS7_17InRawArgumentInfoILm4ELm4ELl0EEENS7_18BufferArgumentInfoILi0ELi34ELm0EEENSE_ILm4ELm4ELl4EEENSG_ILi1ELi34ELm0EEENSB_ILm4ELm4ELl8EEEEEELm8ELm12ELb0EEESL_E7ProcessEPNS2_26Hipc2ClientProxyBaseObjectENS6_6client24OutRawClientArgumentTypeILm4ELm4EEESS_NSQ_23InRawClientArgumentTypeILm4ELm4EvEENSQ_24BufferClientArgumentTypeESU_SV_SS_j = 0x0009fe0c;
_ZN2nn2sf4hipc6client24Hipc2ClientCoreProcessorILNS1_6detail11MessageTypeE4ENS0_4cmif6detail14CoreMethodInfoINSt3__15tupleIJNS7_18OutRawArgumentInfoILm4ELm4ELl0EEENSB_ILm4ELm4ELl4EEENS7_17InRawArgumentInfoILm4ELm4ELl0EEENS7_18BufferArgumentInfoILi0ELi33ELm0EEENSE_ILm4ELm4ELl4EEEEEELm8ELm8ELb0EEESJ_E7ProcessEPNS2_26Hipc2ClientProxyBaseObjectENS6_6client24OutRawClientArgumentTypeILm4ELm4EEESQ_NSO_23InRawClientArgumentTypeILm4ELm4EvEENSO_24BufferClientArgumentTypeESS_j = 0x000a002c;
_ZN2nn2sf4hipc6client24Hipc2ClientCoreProcessorILNS1_6detail11MessageTypeE4ENS0_4cmif6detail14CoreMethodInfoINSt3__15tupleIJNS7_18OutRawArgumentInfoILm4ELm4ELl0EEENSB_ILm4ELm4ELl4EEENS7_17InRawArgumentInfoILm4ELm4ELl0EEENS7_18BufferArgumentInfoILi0ELi33ELm0EEENSE_ILm4ELm4ELl4EEENSG_ILi1ELi33ELm0EEEEEELm8ELm8ELb0EEESK_E7ProcessEPNS2_26Hipc2ClientProxyBaseObjectENS6_6client24OutRawClientArgumentTypeILm4ELm4EEESR_NSP_23InRawClientArgumentTypeILm4ELm4EvEENSP_24BufferClientArgumentTypeEST_SU_j = 0x000a0230;
_ZN2nn2sf4hipc6client24Hipc2ClientCoreProcessorILNS1_6detail11MessageTypeE4ENS0_4cmif6detail14CoreMethodInfoINSt3__15tupleIJNS7_18OutRawArgumentInfoILm4ELm4ELl0EEENSB_ILm4ELm4ELl4EEENS7_17InRawArgumentInfoILm4ELm4ELl0EEENS7_18BufferArgumentInfoILi0ELi34ELm0EEENSB_ILm4ELm4ELl8EEEEEELm4ELm12ELb0EEESJ_E7ProcessEPNS2_26Hipc2ClientProxyBaseObjectENS6_6client24OutRawClientArgumentTypeILm4ELm4EEESQ_NSO_23InRawClientArgumentTypeILm4ELm4EvEENSO_24BufferClientArgumentTypeESQ_j = 0x000a0444;
_ZN2nn2sf4hipc6client24Hipc2ClientCoreProcessorILNS1_6detail11MessageTypeE4ENS0_4cmif6detail14CoreMethodInfoINSt3__15tupleIJNS7_18OutRawArgumentInfoILm4ELm4ELl0EEENSB_ILm4ELm4ELl4EEENS7_17InRawArgumentInfoILm4ELm4ELl0EEENS7_18BufferArgumentInfoILi0ELi33ELm0EEEEEELm4ELm8ELb0EEESI_E7ProcessEPNS2_26Hipc2ClientProxyBaseObjectENS6_6client24OutRawClientArgumentTypeILm4ELm4EEESP_NSN_23InRawClientArgumentTypeILm4ELm4EvEENSN_24BufferClientArgumentTypeEj = 0x000a0650;
_ZN2nn2sf4hipc6client24Hipc2ClientCoreProcessorILNS1_6detail11MessageTypeE4ENS0_4cmif6detail14CoreMethodInfoINSt3__15tupleIJNS7_18OutRawArgumentInfoILm4ELm4ELl0EEENSB_ILm4ELm4ELl4EEENS7_17InRawArgumentInfoILm4ELm4ELl0EEENSE_ILm4ELm4ELl4EEENSE_ILm4ELm4ELl8EEENS7_18BufferArgumentInfoILi0ELi34ELm0EEENSB_ILm4ELm4ELl8EEEEEELm12ELm12ELb0EEESL_E7ProcessEPNS2_26Hipc2ClientProxyBaseObjectENS6_6client24OutRawClientArgumentTypeILm4ELm4EEESS_NSQ_23InRawClientArgumentTypeILm4ELm4EvEESU_SU_NSQ_24BufferClientArgumentTypeESS_j = 0x000a0850;
_ZN2nn2sf4hipc6client24Hipc2ClientCoreProcessorILNS1_6detail11MessageTypeE4ENS0_4cmif6detail14CoreMethodInfoINSt3__15tupleIJNS7_18OutRawArgumentInfoILm4ELm4ELl0EEENSB_ILm4ELm4ELl4EEENS7_17InRawArgumentInfoILm4ELm4ELl0EEENSE_ILm4ELm4ELl4EEEEEELm8ELm8ELb0EEESH_E7ProcessEPNS2_26Hipc2ClientProxyBaseObjectENS6_6client24OutRawClientArgumentTypeILm4ELm4EEESO_NSM_23InRawClientArgumentTypeILm4ELm4EvEESQ_j = 0x000a0a68;
_ZN2nn2sf4hipc6client24Hipc2ClientCoreProcessorILNS1_6detail11MessageTypeE4ENS0_4cmif6detail14CoreMethodInfoINSt3__15tupleIJNS7_18OutRawArgumentInfoILm4ELm4ELl0EEENSB_ILm4ELm4ELl4EEENS7_17InRawArgumentInfoILm4ELm4ELl0EEENSE_ILm4ELm4ELl4EEENS7_18BufferArgumentInfoILi0ELi33ELm0EEENSH_ILi1ELi33ELm0EEENSH_ILi2ELi33ELm0EEENSH_ILi3ELi33ELm0EEENSH_ILi4ELi34ELm0EEENSH_ILi5ELi34ELm0EEENSH_ILi6ELi34ELm0EEENSH_ILi7ELi34ELm0EEENSE_ILm4ELm4ELl8EEEEEELm12ELm8ELb0EEESR_E7ProcessEPNS2_26Hipc2ClientProxyBaseObjectENS6_6client24OutRawClientArgumentTypeILm4ELm4EEESY_NSW_23InRawClientArgumentTypeILm4ELm4EvEES10_NSW_24BufferClientArgumentTypeES11_S11_S11_S11_S11_S11_S11_S10_j = 0x000a0b80;
_ZN2nn2sf4hipc6client24Hipc2ClientCoreProcessorILNS1_6detail11MessageTypeE4ENS0_4cmif6detail14CoreMethodInfoINSt3__15tupleIJNS7_18OutRawArgumentInfoILm4ELm4ELl0EEENSB_ILm4ELm4ELl4EEENS7_17InRawArgumentInfoILm4ELm4ELl0EEENSE_ILm4ELm4ELl4EEENSE_ILm4ELm4ELl8EEENS7_18BufferArgumentInfoILi0ELi33ELm0EEEEEELm12ELm8ELb0EEESK_E7ProcessEPNS2_26Hipc2ClientProxyBaseObjectENS6_6client24OutRawClientArgumentTypeILm4ELm4EEESR_NSP_23InRawClientArgumentTypeILm4ELm4EvEEST_ST_NSP_24BufferClientArgumentTypeEj = 0x000a0e3c;
_ZN2nn2sf4hipc6client24Hipc2ClientCoreProcessorILNS1_6detail11MessageTypeE4ENS0_4cmif6detail14CoreMethodInfoINSt3__15tupleIJNS7_18OutRawArgumentInfoILm4ELm4ELl0EEENSB_ILm4ELm4ELl4EEENS7_17InRawArgumentInfoILm4ELm4ELl0EEEEEELm4ELm8ELb0EEESG_E7ProcessEPNS2_26Hipc2ClientProxyBaseObjectENS6_6client24OutRawClientArgumentTypeILm4ELm4EEESN_NSL_23InRawClientArgumentTypeILm4ELm4EvEEj = 0x000a1048;
_ZN2nn2sf4hipc6client24Hipc2ClientCoreProcessorILNS1_6detail11MessageTypeE4ENS0_4cmif6detail14CoreMethodInfoINSt3__15tupleIJNS7_18OutRawArgumentInfoILm4ELm4ELl0EEENSB_ILm4ELm4ELl4EEENS7_17InRawArgumentInfoILm4ELm4ELl0EEENS7_18BufferArgumentInfoILi0ELi34ELm0EEEEEELm4ELm8ELb0EEESI_E7ProcessEPNS2_26Hipc2ClientProxyBaseObjectENS6_6client24OutRawClientArgumentTypeILm4ELm4EEESP_NSN_23InRawClientArgumentTypeILm4ELm4EvEENSN_24BufferClientArgumentTypeEj = 0x000a1154;
_ZN2nn2sf4hipc6client24Hipc2ClientCoreProcessorILNS1_6detail11MessageTypeE4ENS0_4cmif6detail14CoreMethodInfoINSt3__15tupleIJNS7_18OutRawArgumentInfoILm4ELm4ELl0EEENSB_ILm4ELm4ELl4EEENS7_17InRawArgumentInfoILm4ELm4ELl0EEENSE_ILm8ELm8ELl8EEEEEELm16ELm8ELb0EEESH_E7ProcessEPNS2_26Hipc2ClientProxyBaseObjectENS6_6client24OutRawClientArgumentTypeILm4ELm4EEESO_NSM_23InRawClientArgumentTypeILm4ELm4EvEENSP_ILm8ELm8EvEEj = 0x000a1354;
_ZN2nn2sf4hipc6client24Hipc2ClientCoreProcessorILNS1_6detail11MessageTypeE4ENS0_4cmif6detail14CoreMethodInfoINSt3__15tupleIJNS7_18OutRawArgumentInfoILm4ELm4ELl0EEENSB_ILm4ELm4ELl4EEENS7_17InRawArgumentInfoILm8ELm8ELl0EEENS7_18BufferArgumentInfoILi0ELi34ELm0EEEEEELm8ELm8ELb1EEESI_E7ProcessEPNS2_26Hipc2ClientProxyBaseObjectENS6_6client24OutRawClientArgumentTypeILm4ELm4EEESP_NSN_23InRawClientArgumentTypeILm8ELm8EvEENSN_24BufferClientArgumentTypeEj = 0x000a1474;
_ZN2nn2sf4hipc6client24Hipc2ClientCoreProcessorILNS1_6detail11MessageTypeE4ENS0_4cmif6detail14CoreMethodInfoINSt3__15tupleIJNS7_18OutRawArgumentInfoILm4ELm4ELl0EEENSB_ILm4ELm4ELl4EEENS7_17InRawArgumentInfoILm4ELm4ELl0EEENS7_18BufferArgumentInfoILi0ELi34ELm0EEENSE_ILm4ELm4ELl4EEENSE_ILm4ELm4ELl8EEENSE_ILm16ELm8ELl16EEEEEELm32ELm8ELb0EEESL_E7ProcessEPNS2_26Hipc2ClientProxyBaseObjectENS6_6client24OutRawClientArgumentTypeILm4ELm4EEESS_NSQ_23InRawClientArgumentTypeILm4ELm4EvEENSQ_24BufferClientArgumentTypeESU_SU_NST_ILm16ELm8EvEEj = 0x000a1678;
_ZN2nn2sf4hipc6client24Hipc2ClientCoreProcessorILNS1_6detail11MessageTypeE4ENS0_4cmif6detail14CoreMethodInfoINSt3__15tupleIJNS7_18OutRawArgumentInfoILm4ELm4ELl0EEENSB_ILm4ELm4ELl4EEENS7_17InRawArgumentInfoILm4ELm4ELl0EEENS7_18BufferArgumentInfoILi0ELi33ELm0EEENSE_ILm4ELm4ELl4EEENSG_ILi1ELi33ELm0EEENSE_ILm4ELm4ELl8EEEEEELm12ELm8ELb0EEESL_E7ProcessEPNS2_26Hipc2ClientProxyBaseObjectENS6_6client24OutRawClientArgumentTypeILm4ELm4EEESS_NSQ_23InRawClientArgumentTypeILm4ELm4EvEENSQ_24BufferClientArgumentTypeESU_SV_SU_j = 0x000a18a0;
_ZN2nn2sf4cmif6client34CmifDomainProxyClientCoreProcessorINS0_4hipc6client38Hipc2ClientSessionManagedProxyKindBaseINS5_18Hipc2ProxyKindBaseILNS4_6detail11MessageTypeE4EEEEENS1_6detail14CoreMethodInfoINSt3__15tupleIJNSC_18OutRawArgumentInfoILm4ELm4ELl0EEENSC_17InRawArgumentInfoILm8ELm8ELl32EEENSC_20InHandleArgumentInfoILi0ELi1EEENSI_ILm8ELm8ELl40EEENSI_ILm32ELm4ELl0EEEEEELm48ELm4ELb1EEESO_E7ProcessEPNS2_23CmifDomainClientMessageISB_E15ProxyBaseObjectENS2_24OutRawClientArgumentTypeILm4ELm4EEENS2_23InRawClientArgumentTypeILm8ELm8EvEENS2_26InHandleClientArgumentTypeESY_NSX_ILm32ELm4EvEEj = 0x000a2258;
_ZN2nn2sf4cmif6client34CmifDomainProxyClientCoreProcessorINS0_4hipc6client38Hipc2ClientSessionManagedProxyKindBaseINS5_18Hipc2ProxyKindBaseILNS4_6detail11MessageTypeE4EEEEENS1_6detail14CoreMethodInfoINSt3__15tupleIJNSC_18OutRawArgumentInfoILm4ELm4ELl0EEENSG_ILm4ELm4ELl4EEENSC_17InRawArgumentInfoILm4ELm4ELl0EEENSJ_ILm4ELm4ELl4EEENSJ_ILm4ELm4ELl8EEEEEELm12ELm8ELb0EEESN_E7ProcessEPNS2_23CmifDomainClientMessageISB_E15ProxyBaseObjectENS2_24OutRawClientArgumentTypeILm4ELm4EEESV_NS2_23InRawClientArgumentTypeILm4ELm4EvEESX_SX_j = 0x000a2424;
_ZN2nn2sf4cmif6client34CmifDomainProxyClientCoreProcessorINS0_4hipc6client38Hipc2ClientSessionManagedProxyKindBaseINS5_18Hipc2ProxyKindBaseILNS4_6detail11MessageTypeE4EEEEENS1_6detail14CoreMethodInfoINSt3__15tupleIJNSC_18OutRawArgumentInfoILm4ELm4ELl0EEENSG_ILm4ELm4ELl4EEENSC_18BufferArgumentInfoILi0ELi33ELm0EEENSC_17InRawArgumentInfoILm4ELm4ELl0EEEEEELm4ELm8ELb0EEESN_E7ProcessEPNS2_23CmifDomainClientMessageISB_E15ProxyBaseObjectENS2_24OutRawClientArgumentTypeILm4ELm4EEESV_NS2_24BufferClientArgumentTypeENS2_23InRawClientArgumentTypeILm4ELm4EvEEj = 0x000a259c;
_ZN2nn2sf4cmif6client34CmifDomainProxyClientCoreProcessorINS0_4hipc6client38Hipc2ClientSessionManagedProxyKindBaseINS5_18Hipc2ProxyKindBaseILNS4_6detail11MessageTypeE4EEEEENS1_6detail14CoreMethodInfoINSt3__15tupleIJNSC_18OutRawArgumentInfoILm4ELm4ELl0EEENSG_ILm4ELm4ELl4EEENSC_17InRawArgumentInfoILm4ELm4ELl0EEENSC_18BufferArgumentInfoILi0ELi33ELm0EEENSL_ILi1ELi33ELm0EEENSL_ILi2ELi33ELm0EEENSL_ILi3ELi34ELm0EEENSL_ILi4ELi34ELm0EEENSL_ILi5ELi34ELm0EEENSJ_ILm24ELm8ELl8EEEEEELm32ELm8ELb0EEEST_E7ProcessEPNS2_23CmifDomainClientMessageISB_E15ProxyBaseObjectENS2_24OutRawClientArgumentTypeILm4ELm4EEES11_NS2_23InRawClientArgumentTypeILm4ELm4EvEENS2_24BufferClientArgumentTypeES14_S14_S14_S14_S14_NS12_ILm24ELm8EvEEj = 0x000a278c;
_ZN2nn2sf4cmif6client34CmifDomainProxyClientCoreProcessorINS0_4hipc6client38Hipc2ClientSessionManagedProxyKindBaseINS5_18Hipc2ProxyKindBaseILNS4_6detail11MessageTypeE4EEEEENS1_6detail14CoreMethodInfoINSt3__15tupleIJNSC_18OutRawArgumentInfoILm4ELm4ELl0EEENSG_ILm4ELm4ELl4EEENSC_18BufferArgumentInfoILi0ELi33ELm0EEENSJ_ILi1ELi34ELm0EEENSC_17InRawArgumentInfoILm4ELm4ELl0EEENSM_ILm4ELm4ELl4EEEEEELm8ELm8ELb0EEESP_E7ProcessEPNS2_23CmifDomainClientMessageISB_E15ProxyBaseObjectENS2_24OutRawClientArgumentTypeILm4ELm4EEESX_NS2_24BufferClientArgumentTypeESY_NS2_23InRawClientArgumentTypeILm4ELm4EvEES10_j = 0x000a2a0c;
_ZN2nn2sf4cmif6client34CmifDomainProxyClientCoreProcessorINS0_4hipc6client38Hipc2ClientSessionManagedProxyKindBaseINS5_18Hipc2ProxyKindBaseILNS4_6detail11MessageTypeE4EEEEENS1_6detail14CoreMethodInfoINSt3__15tupleIJNSC_18OutRawArgumentInfoILm4ELm4ELl0EEENSG_ILm4ELm4ELl4EEENSC_18BufferArgumentInfoILi0ELi33ELm0EEENSJ_ILi1ELi34ELm0EEENSG_ILm4ELm4ELl8EEENSJ_ILi2ELi33ELm0EEEEEELm0ELm12ELb0EEESO_E7ProcessEPNS2_23CmifDomainClientMessageISB_E15ProxyBaseObjectENS2_24OutRawClientArgumentTypeILm4ELm4EEESW_NS2_24BufferClientArgumentTypeESX_SW_SX_j = 0x000a2c10;
_ZN2nn2sf4cmif6client34CmifDomainProxyClientCoreProcessorINS0_4hipc6client38Hipc2ClientSessionManagedProxyKindBaseINS5_18Hipc2ProxyKindBaseILNS4_6detail11MessageTypeE4EEEEENS1_6detail14CoreMethodInfoINSt3__15tupleIJNSC_18OutRawArgumentInfoILm4ELm4ELl0EEENSG_ILm4ELm4ELl4EEENSC_17InRawArgumentInfoILm4ELm4ELl0EEENSC_18BufferArgumentInfoILi0ELi34ELm0EEENSJ_ILm4ELm4ELl4EEEEEELm8ELm8ELb0EEESO_E7ProcessEPNS2_23CmifDomainClientMessageISB_E15ProxyBaseObjectENS2_24OutRawClientArgumentTypeILm4ELm4EEESW_NS2_23InRawClientArgumentTypeILm4ELm4EvEENS2_24BufferClientArgumentTypeESY_j = 0x000a2e30;
_ZN2nn2sf4cmif6client34CmifDomainProxyClientCoreProcessorINS0_4hipc6client38Hipc2ClientSessionManagedProxyKindBaseINS5_18Hipc2ProxyKindBaseILNS4_6detail11MessageTypeE4EEEEENS1_6detail14CoreMethodInfoINSt3__15tupleIJNSC_18OutRawArgumentInfoILm4ELm4ELl0EEENSG_ILm4ELm4ELl4EEENSC_17InRawArgumentInfoILm4ELm4ELl0EEENSC_18BufferArgumentInfoILi0ELi34ELm0EEENSJ_ILm4ELm4ELl4EEENSL_ILi1ELi34ELm0EEENSG_ILm4ELm4ELl8EEEEEELm8ELm12ELb0EEESQ_E7ProcessEPNS2_23CmifDomainClientMessageISB_E15ProxyBaseObjectENS2_24OutRawClientArgumentTypeILm4ELm4EEESY_NS2_23InRawClientArgumentTypeILm4ELm4EvEENS2_24BufferClientArgumentTypeES10_S11_SY_j = 0x000a3024;
_ZN2nn2sf4cmif6client34CmifDomainProxyClientCoreProcessorINS0_4hipc6client38Hipc2ClientSessionManagedProxyKindBaseINS5_18Hipc2ProxyKindBaseILNS4_6detail11MessageTypeE4EEEEENS1_6detail14CoreMethodInfoINSt3__15tupleIJNSC_18OutRawArgumentInfoILm4ELm4ELl0EEENSG_ILm4ELm4ELl4EEENSC_17InRawArgumentInfoILm4ELm4ELl0EEENSC_18BufferArgumentInfoILi0ELi33ELm0EEENSJ_ILm4ELm4ELl4EEEEEELm8ELm8ELb0EEESO_E7ProcessEPNS2_23CmifDomainClientMessageISB_E15ProxyBaseObjectENS2_24OutRawClientArgumentTypeILm4ELm4EEESW_NS2_23InRawClientArgumentTypeILm4ELm4EvEENS2_24BufferClientArgumentTypeESY_j = 0x000a3238;
_ZN2nn2sf4cmif6client34CmifDomainProxyClientCoreProcessorINS0_4hipc6client38Hipc2ClientSessionManagedProxyKindBaseINS5_18Hipc2ProxyKindBaseILNS4_6detail11MessageTypeE4EEEEENS1_6detail14CoreMethodInfoINSt3__15tupleIJNSC_18OutRawArgumentInfoILm4ELm4ELl0EEENSG_ILm4ELm4ELl4EEENSC_17InRawArgumentInfoILm4ELm4ELl0EEENSC_18BufferArgumentInfoILi0ELi33ELm0EEENSJ_ILm4ELm4ELl4EEENSL_ILi1ELi33ELm0EEEEEELm8ELm8ELb0EEESP_E7ProcessEPNS2_23CmifDomainClientMessageISB_E15ProxyBaseObjectENS2_24OutRawClientArgumentTypeILm4ELm4EEESX_NS2_23InRawClientArgumentTypeILm4ELm4EvEENS2_24BufferClientArgumentTypeESZ_S10_j = 0x000a342c;
_ZN2nn2sf4cmif6client34CmifDomainProxyClientCoreProcessorINS0_4hipc6client38Hipc2ClientSessionManagedProxyKindBaseINS5_18Hipc2ProxyKindBaseILNS4_6detail11MessageTypeE4EEEEENS1_6detail14CoreMethodInfoINSt3__15tupleIJNSC_18OutRawArgumentInfoILm4ELm4ELl0EEENSG_ILm4ELm4ELl4EEENSC_17InRawArgumentInfoILm4ELm4ELl0EEENSC_18BufferArgumentInfoILi0ELi34ELm0EEENSG_ILm4ELm4ELl8EEEEEELm4ELm12ELb0EEESO_E7ProcessEPNS2_23CmifDomainClientMessageISB_E15ProxyBaseObjectENS2_24OutRawClientArgumentTypeILm4ELm4EEESW_NS2_23InRawClientArgumentTypeILm4ELm4EvEENS2_24BufferClientArgumentTypeESW_j = 0x000a3634;
_ZN2nn2sf4cmif6client34CmifDomainProxyClientCoreProcessorINS0_4hipc6client38Hipc2ClientSessionManagedProxyKindBaseINS5_18Hipc2ProxyKindBaseILNS4_6detail11MessageTypeE4EEEEENS1_6detail14CoreMethodInfoINSt3__15tupleIJNSC_18OutRawArgumentInfoILm4ELm4ELl0EEENSG_ILm4ELm4ELl4EEENSC_17InRawArgumentInfoILm4ELm4ELl0EEENSC_18BufferArgumentInfoILi0ELi33ELm0EEEEEELm4ELm8ELb0EEESN_E7ProcessEPNS2_23CmifDomainClientMessageISB_E15ProxyBaseObjectENS2_24OutRawClientArgumentTypeILm4ELm4EEESV_NS2_23InRawClientArgumentTypeILm4ELm4EvEENS2_24BufferClientArgumentTypeEj = 0x000a3830;
_ZN2nn2sf4cmif6client34CmifDomainProxyClientCoreProcessorINS0_4hipc6client38Hipc2ClientSessionManagedProxyKindBaseINS5_18Hipc2ProxyKindBaseILNS4_6detail11MessageTypeE4EEEEENS1_6detail14CoreMethodInfoINSt3__15tupleIJNSC_18OutRawArgumentInfoILm4ELm4ELl0EEENSG_ILm4ELm4ELl4EEENSC_17InRawArgumentInfoILm4ELm4ELl0EEENSJ_ILm4ELm4ELl4EEENSJ_ILm4ELm4ELl8EEENSC_18BufferArgumentInfoILi0ELi34ELm0EEENSG_ILm4ELm4ELl8EEEEEELm12ELm12ELb0EEESQ_E7ProcessEPNS2_23CmifDomainClientMessageISB_E15ProxyBaseObjectENS2_24OutRawClientArgumentTypeILm4ELm4EEESY_NS2_23InRawClientArgumentTypeILm4ELm4EvEES10_S10_NS2_24BufferClientArgumentTypeESY_j = 0x000a3a20;
_ZN2nn2sf4cmif6client34CmifDomainProxyClientCoreProcessorINS0_4hipc6client38Hipc2ClientSessionManagedProxyKindBaseINS5_18Hipc2ProxyKindBaseILNS4_6detail11MessageTypeE4EEEEENS1_6detail14CoreMethodInfoINSt3__15tupleIJNSC_18OutRawArgumentInfoILm4ELm4ELl0EEENSG_ILm4ELm4ELl4EEENSC_17InRawArgumentInfoILm4ELm4ELl0EEENSJ_ILm4ELm4ELl4EEEEEELm8ELm8ELb0EEESM_E7ProcessEPNS2_23CmifDomainClientMessageISB_E15ProxyBaseObjectENS2_24OutRawClientArgumentTypeILm4ELm4EEESU_NS2_23InRawClientArgumentTypeILm4ELm4EvEESW_j = 0x000a3c28;
_ZN2nn2sf4cmif6client34CmifDomainProxyClientCoreProcessorINS0_4hipc6client38Hipc2ClientSessionManagedProxyKindBaseINS5_18Hipc2ProxyKindBaseILNS4_6detail11MessageTypeE4EEEEENS1_6detail14CoreMethodInfoINSt3__15tupleIJNSC_18OutRawArgumentInfoILm4ELm4ELl0EEENSG_ILm4ELm4ELl4EEENSC_17InRawArgumentInfoILm4ELm4ELl0EEENSJ_ILm4ELm4ELl4EEENSC_18BufferArgumentInfoILi0ELi33ELm0EEENSM_ILi1ELi33ELm0EEENSM_ILi2ELi33ELm0EEENSM_ILi3ELi33ELm0EEENSM_ILi4ELi34ELm0EEENSM_ILi5ELi34ELm0EEENSM_ILi6ELi34ELm0EEENSM_ILi7ELi34ELm0EEENSJ_ILm4ELm4ELl8EEEEEELm12ELm8ELb0EEESW_E7ProcessEPNS2_23CmifDomainClientMessageISB_E15ProxyBaseObjectENS2_24OutRawClientArgumentTypeILm4ELm4EEES14_NS2_23InRawClientArgumentTypeILm4ELm4EvEES16_NS2_24BufferClientArgumentTypeES17_S17_S17_S17_S17_S17_S17_S16_j = 0x000a3d98;
_ZN2nn2sf4cmif6client34CmifDomainProxyClientCoreProcessorINS0_4hipc6client38Hipc2ClientSessionManagedProxyKindBaseINS5_18Hipc2ProxyKindBaseILNS4_6detail11MessageTypeE4EEEEENS1_6detail14CoreMethodInfoINSt3__15tupleIJNSC_18OutRawArgumentInfoILm4ELm4ELl0EEENSG_ILm4ELm4ELl4EEENSC_17InRawArgumentInfoILm4ELm4ELl0EEENSJ_ILm4ELm4ELl4EEENSJ_ILm4ELm4ELl8EEENSC_18BufferArgumentInfoILi0ELi33ELm0EEEEEELm12ELm8ELb0EEESP_E7ProcessEPNS2_23CmifDomainClientMessageISB_E15ProxyBaseObjectENS2_24OutRawClientArgumentTypeILm4ELm4EEESX_NS2_23InRawClientArgumentTypeILm4ELm4EvEESZ_SZ_NS2_24BufferClientArgumentTypeEj = 0x000a4044;
_ZN2nn2sf4cmif6client34CmifDomainProxyClientCoreProcessorINS0_4hipc6client38Hipc2ClientSessionManagedProxyKindBaseINS5_18Hipc2ProxyKindBaseILNS4_6detail11MessageTypeE4EEEEENS1_6detail14CoreMethodInfoINSt3__15tupleIJNSC_18OutRawArgumentInfoILm4ELm4ELl0EEENSG_ILm4ELm4ELl4EEENSC_17InRawArgumentInfoILm4ELm4ELl0EEEEEELm4ELm8ELb0EEESL_E7ProcessEPNS2_23CmifDomainClientMessageISB_E15ProxyBaseObjectENS2_24OutRawClientArgumentTypeILm4ELm4EEEST_NS2_23InRawClientArgumentTypeILm4ELm4EvEEj = 0x000a4240;
_ZN2nn2sf4cmif6client34CmifDomainProxyClientCoreProcessorINS0_4hipc6client38Hipc2ClientSessionManagedProxyKindBaseINS5_18Hipc2ProxyKindBaseILNS4_6detail11MessageTypeE4EEEEENS1_6detail14CoreMethodInfoINSt3__15tupleIJNSC_18OutRawArgumentInfoILm4ELm4ELl0EEENSG_ILm4ELm4ELl4EEENSC_17InRawArgumentInfoILm4ELm4ELl0EEENSC_18BufferArgumentInfoILi0ELi34ELm0EEEEEELm4ELm8ELb0EEESN_E7ProcessEPNS2_23CmifDomainClientMessageISB_E15ProxyBaseObjectENS2_24OutRawClientArgumentTypeILm4ELm4EEESV_NS2_23InRawClientArgumentTypeILm4ELm4EvEENS2_24BufferClientArgumentTypeEj = 0x000a43a4;
_ZN2nn2sf4cmif6client34CmifDomainProxyClientCoreProcessorINS0_4hipc6client38Hipc2ClientSessionManagedProxyKindBaseINS5_18Hipc2ProxyKindBaseILNS4_6detail11MessageTypeE4EEEEENS1_6detail14CoreMethodInfoINSt3__15tupleIJNSC_18OutRawArgumentInfoILm4ELm4ELl0EEENSG_ILm4ELm4ELl4EEENSC_17InRawArgumentInfoILm4ELm4ELl0EEENSJ_ILm8ELm8ELl8EEEEEELm16ELm8ELb0EEESM_E7ProcessEPNS2_23CmifDomainClientMessageISB_E15ProxyBaseObjectENS2_24OutRawClientArgumentTypeILm4ELm4EEESU_NS2_23InRawClientArgumentTypeILm4ELm4EvEENSV_ILm8ELm8EvEEj = 0x000a4594;
_ZN2nn2sf4cmif6client34CmifDomainProxyClientCoreProcessorINS0_4hipc6client38Hipc2ClientSessionManagedProxyKindBaseINS5_18Hipc2ProxyKindBaseILNS4_6detail11MessageTypeE4EEEEENS1_6detail14CoreMethodInfoINSt3__15tupleIJNSC_18OutRawArgumentInfoILm4ELm4ELl0EEENSG_ILm4ELm4ELl4EEENSC_17InRawArgumentInfoILm8ELm8ELl0EEENSC_18BufferArgumentInfoILi0ELi34ELm0EEEEEELm8ELm8ELb1EEESN_E7ProcessEPNS2_23CmifDomainClientMessageISB_E15ProxyBaseObjectENS2_24OutRawClientArgumentTypeILm4ELm4EEESV_NS2_23InRawClientArgumentTypeILm8ELm8EvEENS2_24BufferClientArgumentTypeEj = 0x000a470c;
_ZN2nn2sf4cmif6client34CmifDomainProxyClientCoreProcessorINS0_4hipc6client38Hipc2ClientSessionManagedProxyKindBaseINS5_18Hipc2ProxyKindBaseILNS4_6detail11MessageTypeE4EEEEENS1_6detail14CoreMethodInfoINSt3__15tupleIJNSC_18OutRawArgumentInfoILm4ELm4ELl0EEENSG_ILm4ELm4ELl4EEENSC_17InRawArgumentInfoILm4ELm4ELl0EEENSC_18BufferArgumentInfoILi0ELi34ELm0EEENSJ_ILm4ELm4ELl4EEENSJ_ILm4ELm4ELl8EEENSJ_ILm16ELm8ELl16EEEEEELm32ELm8ELb0EEESQ_E7ProcessEPNS2_23CmifDomainClientMessageISB_E15ProxyBaseObjectENS2_24OutRawClientArgumentTypeILm4ELm4EEESY_NS2_23InRawClientArgumentTypeILm4ELm4EvEENS2_24BufferClientArgumentTypeES10_S10_NSZ_ILm16ELm8EvEEj = 0x000a4900;
_ZN2nn2sf4cmif6client34CmifDomainProxyClientCoreProcessorINS0_4hipc6client38Hipc2ClientSessionManagedProxyKindBaseINS5_18Hipc2ProxyKindBaseILNS4_6detail11MessageTypeE4EEEEENS1_6detail14CoreMethodInfoINSt3__15tupleIJNSC_18OutRawArgumentInfoILm4ELm4ELl0EEENSG_ILm4ELm4ELl4EEENSC_17InRawArgumentInfoILm4ELm4ELl0EEENSC_18BufferArgumentInfoILi0ELi33ELm0EEENSJ_ILm4ELm4ELl4EEENSL_ILi1ELi33ELm0EEENSJ_ILm4ELm4ELl8EEEEEELm12ELm8ELb0EEESQ_E7ProcessEPNS2_23CmifDomainClientMessageISB_E15ProxyBaseObjectENS2_24OutRawClientArgumentTypeILm4ELm4EEESY_NS2_23InRawClientArgumentTypeILm4ELm4EvEENS2_24BufferClientArgumentTypeES10_S11_S10_j = 0x000a4b18;
_ZN2nn6socket6detail10socketNtoaE7in_addr = 0x000a4e9c;
_ZN2nn6socket6detail11socketNtoaRE7in_addrPcm = 0x000a4ee4;
_ZN2nn6socket6detail10socketNtopEiPKvPcj = 0x000a4f2c;
_ZN2nn6socket6detail10socketPtonEiPKcPv = 0x000a4fd4;
_ZN2nn6socket8resolver3tls17GetHeapGenerationEPNS2_30ResolverThreadLocalStoragePairE = 0x000a5184;
_ZN2nn6socket8resolver3tls17GetTlsPairPointerERPNS2_30ResolverThreadLocalStoragePairE = 0x000a518c;
_ZN2nn6socket8resolver3tls23AddGenerationToTlsValueERPNS2_30ResolverThreadLocalStoragePairE = 0x000a519c;
_ZN2nn6socket8resolver3tls16GetCreateTLSPairERPNS2_30ResolverThreadLocalStoragePairE = 0x000a51cc;
_ZN2nn6socket8resolver3tls19TlsDestructFunctionEm = 0x000a5298;
_ZN2nn6socket8resolver3tls10InitializeEv = 0x000a5314;
_ZN2nn6socket8resolver3tls8FinalizeEv = 0x000a537c;
_ZN2nn6socket8resolver3tls12GetServerTLSERPv = 0x000a5384;
_ZN2nn6socket8resolver3tls12SetServerTLSEPFvPvES3_ = 0x000a53c8;
_ZN2nn6socket8resolver3tls12GetClientTLSERPv = 0x000a5440;
_ZN2nn6socket8resolver3tls12SetClientTLSEPFvPvES3_ = 0x000a5484;
_ZN2nn6socket8resolver9GetOptionENS1_6Option4typeERm = 0x000a55a8;
_ZN2nn6socket8resolver9SetOptionENS1_6Option4typeEm = 0x000a5614;
_ZN2nn6socket8resolver33WaitForAllResolverCallsToCompleteEv = 0x000a5678;
_ZN2nn6socket8resolver20DisableResolverCallsEv = 0x000a56cc;
_ZN2nn6socket8resolver19EnableResolverCallsEv = 0x000a56ec;
_ZN2nn6socket8resolver23AreResolverCallsEnabledEv = 0x000a572c;
_ZN2nn6socket8resolver16InitializeClientEv = 0x000a5744;
_ZN2nn6socket8resolver14FinalizeClientEv = 0x000a57b4;
_ZN2nn6socket8resolver22SetDnsAddressesPrivateEP11sockaddr_inm = 0x000a5814;
_ZN2nn6socket8resolver20GetDnsAddressPrivateEjR11sockaddr_in = 0x000a581c;
_ZN2nn6socket8resolver13GetHostByNameEPKci = 0x000a5824;
_ZN2nn6socket8resolver13GetHostByNameEPKc = 0x000a5af4;
_ZN2nn6socket8resolver30GetHostByNameWithoutNsdResolveEPKci = 0x000a5b00;
_ZN2nn6socket8resolver30GetHostByNameWithoutNsdResolveEPKc = 0x000a5b08;
_ZN2nn6socket8resolver13GetHostByAddrEPKvjj = 0x000a5b14;
_ZN2nn6socket8resolver13GetHostByAddrEPKvjji = 0x000a5dcc;
_ZN2nn6socket8resolver18GetHostStringErrorEj = 0x000a5dd0;
_ZN2nn6socket8resolver17GetGaiStringErrorEj = 0x000a5fbc;
_ZN2nn6socket8resolver11GetAddrInfoEPKcS3_PK8addrinfoPPS4_ = 0x000a61a8;
_ZN2nn6socket8resolver11GetAddrInfoEPKcS3_PK8addrinfoPPS4_i = 0x000a6564;
_ZN2nn6socket8resolver28GetAddrInfoWithoutNsdResolveEPKcS3_PK8addrinfoPPS4_ = 0x000a656c;
_ZN2nn6socket8resolver28GetAddrInfoWithoutNsdResolveEPKcS3_PK8addrinfoPPS4_i = 0x000a6578;
_ZN2nn6socket8resolver11GetNameInfoEPK8sockaddrjPcmS5_mi = 0x000a6580;
_ZN2nn6socket8resolver11GetNameInfoEPK8sockaddrjPcmS5_mii = 0x000a6770;
_ZN2nn6socket8resolver19RequestCancelHandleEv = 0x000a6774;
_ZN2nn6socket8resolver16CancelSocketCallEi = 0x000a6798;
_ZN2nn6socket8resolver3tls6Client29ClientThreadLocalStorage_dtorEPv = 0x000a693c;
_ZN2nn6socket8resolver3tls6Client10InitializeEv = 0x000a69a4;
_ZN2nn6socket8resolver3tls6Client18GetCreateClientTLSERPv = 0x000a69bc;
_ZN2nn6socket8resolver3tls6Client8FinalizeEv = 0x000a6a98;
_ZN2nn6socket8resolver3tls6Client17InternalHostErrnoEv = 0x000a6ab0;
_ZN2nn6socket8resolver3tls6Client17GetCurrentHostentEv = 0x000a6aec;
_ZN2nn6socket8resolver3tls6Client17SetCurrentHostentEP7hostent = 0x000a6b28;
_ZN2nn6socket8resolver3tls6Client22GetCurrentHErrorStringEv = 0x000a6b90;
_ZN2nn6socket8resolver3tls6Client22SetCurrentHErrorStringEPKc = 0x000a6bcc;
_ZN2nn6socket8resolver3tls6Client24GetCurrentGaiErrorStringEv = 0x000a6c5c;
_ZN2nn6socket8resolver3tls6Client24SetCurrentGaiErrorStringEPKc = 0x000a6c98;
_ZN2nn6socket8resolver20CreateResolverByHipcERNS_2sf13SharedPointerINS1_9IResolverEEE = 0x000a6d28;
_ZN2nn2sf4hipc6client24Hipc2ClientCoreProcessorILNS1_6detail11MessageTypeE4ENS0_4cmif6detail14CoreMethodInfoINSt3__15tupleIJNS7_18BufferArgumentInfoILi0ELi5ELm0EEENS7_17InRawArgumentInfoILm4ELm4ELl0EEEEEELm4ELm0ELb0EEESF_E7ProcessEPNS2_26Hipc2ClientProxyBaseObjectENS6_6client24BufferClientArgumentTypeENSK_23InRawClientArgumentTypeILm4ELm4EvEEj = 0x000a7164;
_ZN2nn2sf4hipc6client24Hipc2ClientCoreProcessorILNS1_6detail11MessageTypeE4ENS0_4cmif6detail14CoreMethodInfoINSt3__15tupleIJNS7_17InRawArgumentInfoILm4ELm4ELl0EEENS7_18BufferArgumentInfoILi0ELi6ELm0EEEEEELm4ELm0ELb0EEESF_E7ProcessEPNS2_26Hipc2ClientProxyBaseObjectENS6_6client23InRawClientArgumentTypeILm4ELm4EvEENSK_24BufferClientArgumentTypeEj = 0x000a72c4;
_ZN2nn2sf4hipc6client24Hipc2ClientCoreProcessorILNS1_6detail11MessageTypeE4ENS0_4cmif6detail14CoreMethodInfoINSt3__15tupleIJNS7_17InRawArgumentInfoILm4ELm4ELl4EEENSB_ILm8ELm8ELl8EEENSB_ILm1ELm1ELl0EEENS7_18BufferArgumentInfoILi0ELi5ELm0EEENS7_18OutRawArgumentInfoILm4ELm4ELl0EEENSH_ILm4ELm4ELl4EEENSF_ILi1ELi6ELm0EEENSH_ILm4ELm4ELl8EEEEEELm16ELm12ELb1EEESM_E7ProcessEPNS2_26Hipc2ClientProxyBaseObjectENS6_6client23InRawClientArgumentTypeILm4ELm4EvEENSS_ILm8ELm8EvEENSS_ILm1ELm1EvEENSR_24BufferClientArgumentTypeENSR_24OutRawClientArgumentTypeILm4ELm4EEESY_SW_SY_j = 0x000a7424;
_ZN2nn2sf4hipc6client24Hipc2ClientCoreProcessorILNS1_6detail11MessageTypeE4ENS0_4cmif6detail14CoreMethodInfoINSt3__15tupleIJNS7_17InRawArgumentInfoILm4ELm4ELl0EEENSB_ILm8ELm8ELl16EEENS7_18BufferArgumentInfoILi0ELi5ELm0EEENSB_ILm4ELm4ELl4EEENSB_ILm4ELm4ELl8EEENS7_18OutRawArgumentInfoILm4ELm4ELl0EEENSI_ILm4ELm4ELl4EEENSE_ILi1ELi6ELm0EEENSI_ILm4ELm4ELl8EEEEEELm24ELm12ELb1EEESN_E7ProcessEPNS2_26Hipc2ClientProxyBaseObjectENS6_6client23InRawClientArgumentTypeILm4ELm4EvEENST_ILm8ELm8EvEENSS_24BufferClientArgumentTypeESU_SU_NSS_24OutRawClientArgumentTypeILm4ELm4EEESY_SW_SY_j = 0x000a75e4;
_ZN2nn2sf4hipc6client24Hipc2ClientCoreProcessorILNS1_6detail11MessageTypeE4ENS0_4cmif6detail14CoreMethodInfoINSt3__15tupleIJNS7_17InRawArgumentInfoILm4ELm4ELl4EEENSB_ILm8ELm8ELl8EEENSB_ILm1ELm1ELl0EEENS7_18BufferArgumentInfoILi0ELi5ELm0EEENSF_ILi1ELi5ELm0EEENSF_ILi2ELi5ELm0EEENSF_ILi3ELi6ELm0EEENS7_18OutRawArgumentInfoILm4ELm4ELl0EEENSK_ILm4ELm4ELl4EEENSK_ILm4ELm4ELl8EEEEEELm16ELm12ELb1EEESO_E7ProcessEPNS2_26Hipc2ClientProxyBaseObjectENS6_6client23InRawClientArgumentTypeILm4ELm4EvEENSU_ILm8ELm8EvEENSU_ILm1ELm1EvEENST_24BufferClientArgumentTypeESY_SY_SY_NST_24OutRawClientArgumentTypeILm4ELm4EEES10_S10_j = 0x000a77a8;
_ZN2nn2sf4hipc6client24Hipc2ClientCoreProcessorILNS1_6detail11MessageTypeE4ENS0_4cmif6detail14CoreMethodInfoINSt3__15tupleIJNS7_17InRawArgumentInfoILm4ELm4ELl0EEENSB_ILm8ELm8ELl8EEENS7_18BufferArgumentInfoILi0ELi5ELm0EEENSE_ILi1ELi6ELm0EEENSE_ILi2ELi6ELm0EEENSB_ILm4ELm4ELl4EEENS7_18OutRawArgumentInfoILm4ELm4ELl0EEENSJ_ILm4ELm4ELl4EEEEEELm16ELm8ELb1EEESM_E7ProcessEPNS2_26Hipc2ClientProxyBaseObjectENS6_6client23InRawClientArgumentTypeILm4ELm4EvEENSS_ILm8ELm8EvEENSR_24BufferClientArgumentTypeESV_SV_ST_NSR_24OutRawClientArgumentTypeILm4ELm4EEESX_j = 0x000a7988;
_ZN2nn2sf4hipc6client24Hipc2ClientCoreProcessorILNS1_6detail11MessageTypeE4ENS0_4cmif6detail14CoreMethodInfoINSt3__15tupleIJNS7_17InRawArgumentInfoILm8ELm8ELl0EEENS7_18OutRawArgumentInfoILm4ELm4ELl0EEEEEELm8ELm4ELb1EEESF_E7ProcessEPNS2_26Hipc2ClientProxyBaseObjectENS6_6client23InRawClientArgumentTypeILm8ELm8EvEENSK_24OutRawClientArgumentTypeILm4ELm4EEEj = 0x000a7b40;
_ZN2nn2sf4hipc6client24Hipc2ClientCoreProcessorILNS1_6detail11MessageTypeE4ENS0_4cmif6detail14CoreMethodInfoINSt3__15tupleIJNS7_17InRawArgumentInfoILm8ELm8ELl8EEENSB_ILm4ELm4ELl0EEEEEELm16ELm0ELb1EEESE_E7ProcessEPNS2_26Hipc2ClientProxyBaseObjectENS6_6client23InRawClientArgumentTypeILm8ELm8EvEENSK_ILm4ELm4EvEEj = 0x000a7c4c;
_ZN2nn6socket8resolver10serializer20FreeAddrinfoContentsER8addrinfo = 0x000a7d9c;
_ZN2nn6socket8resolver10serializer20AddrInfoSingleSizeOfEPK8addrinfo = 0x000a7e0c;
_ZN2nn6socket8resolver10serializer13DNSSerializer6SizeOfI8addrinfoEEmRKT_ = 0x000a7eb0;
_ZN2nn6socket8resolver10serializer13DNSSerializer16ToBufferInternalI8addrinfoEElPhmRKT_ = 0x000a7f6c;
_ZN2nn6socket8resolver10serializer13DNSSerializer8ToBufferI8addrinfoEElPhmRKT_ = 0x000a8180;
_ZN2nn6socket8resolver10serializer13DNSSerializer18FromBufferInternalI8addrinfoEElRT_PKhm = 0x000a82c0;
_ZN2nn6socket8resolver10serializer13DNSSerializer10FromBufferI8addrinfoEElRT_PKhm = 0x000a85c8;
_ZN2nn6socket8resolver10serializer13DNSSerializer6SizeOfIcEEmPKT_ = 0x000a86f4;
_ZN2nn6socket8resolver10serializer13DNSSerializer6SizeOfIcEEmPPKT_Rj = 0x000a8718;
_ZN2nn6socket8resolver10serializer13DNSSerializer8ToBufferIcEElPhmPT_ = 0x000a8794;
_ZN2nn6socket8resolver10serializer13DNSSerializer10FromBufferIcEElRPT_PKhm = 0x000a8830;
_ZN2nn6socket8resolver10serializer13DNSSerializer8ToBufferIcEElPhmPPT_ = 0x000a88b4;
_ZN2nn6socket8resolver10serializer13DNSSerializer10FromBufferIcEElRPPT_PKhm = 0x000a89fc;
_ZN2nn6socket8resolver10serializer19FreeHostentContentsER7hostent = 0x000a8b64;
_ZN2nn6socket8resolver10serializer13DNSSerializer6SizeOfI7hostentEEmRKT_ = 0x000a8c20;
_ZN2nn6socket8resolver10serializer13DNSSerializer10FromBufferI7hostentEElRT_PKhm = 0x000a8c90;
_ZN2nn6socket8resolver10serializer13DNSSerializer8ToBufferI7hostentEElPhmRKT_ = 0x000a8da8;
_ZN2nn6socket8resolver10serializer13DNSSerializer6SizeOfI7in_addrEEmRKT_ = 0x000a8f6c;
_ZN2nn6socket8resolver10serializer13DNSSerializer6SizeOfI7in_addrEEmPPKT_Rj = 0x000a8f74;
_ZN2nn6socket8resolver10serializer13DNSSerializer8ToBufferI7in_addrEElPhmRKT_ = 0x000a8fac;
_ZN2nn6socket8resolver10serializer13DNSSerializer10FromBufferI7in_addrEElRT_PKhm = 0x000a9014;
_ZN2nn6socket8resolver10serializer13DNSSerializer8ToBufferI7in_addrEElPhmPPT_ = 0x000a9054;
_ZN2nn6socket8resolver10serializer13DNSSerializer10FromBufferI7in_addrEElRPPT_PKhm = 0x000a91b4;
_ZN2nn6socket8resolver10serializer13DNSSerializer6SizeOfI11sockaddr_inEEmRKT_ = 0x000a9348;
_ZN2nn6socket8resolver10serializer13DNSSerializer8ToBufferI11sockaddr_inEElPhmRKT_ = 0x000a9364;
_ZN2nn6socket8resolver10serializer13DNSSerializer10FromBufferI11sockaddr_inEElRT_PKhm = 0x000a944c;
_ZN2nn6socket8resolver10serializer13DNSSerializer6SizeOfI12sockaddr_in6EEmRKT_ = 0x000a9514;
_ZN2nn6socket8resolver10serializer13DNSSerializer8ToBufferI12sockaddr_in6EElPhmRKT_ = 0x000a951c;
_ZN2nn6socket8resolver10serializer13DNSSerializer10FromBufferI12sockaddr_in6EElRT_PKhm = 0x000a9634;
_ZN2nn6socket8resolver10serializer13DNSSerializer10FromBufferItEElRT_PKhm = 0x000a972c;
_ZN2nn6socket8resolver10serializer13DNSSerializer8ToBufferItEElPhmRKT_ = 0x000a9768;
_ZN2nn6socket8resolver10serializer13DNSSerializer10FromBufferIjEElRT_PKhm = 0x000a97d0;
_ZN2nn6socket8resolver10serializer13DNSSerializer8ToBufferIjEElPhmRKT_ = 0x000a980c;
_ZN2nn6socket8resolver10serializer13DNSSerializer7hexdumpEPKcPKhl = 0x000a9874;
_ZN2nn6socket8resolver10serializer13DNSSerializer22CheckToBufferArgumentsEPKhmmi = 0x000a9878;
_ZN2nn6socket8resolver10serializer13DNSSerializer12InternalHtonERKj = 0x000a9894;
_ZN2nn6socket8resolver10serializer13DNSSerializer12InternalHtonERKt = 0x000a989c;
_ZN2nn6socket8resolver10serializer13DNSSerializer12InternalNtohERKj = 0x000a98a4;
_ZN2nn6socket8resolver10serializer13DNSSerializer12InternalNtohERKt = 0x000a98ac;
_ZN2nn6socket8resolver14CreateRandomIdERj = 0x000a98b4;
_ZN2nn6socket8resolver23GetOperationStateStringERKNS1_14OperationStateEb = 0x000a996c;
_ZNSt3__124uniform_int_distributionIjEclINS_23mersenne_twister_engineIjLm32ELm624ELm397ELm31ELj2567483615ELm11ELj4294967295ELm7ELj2636928640ELm15ELj4022730752ELm18ELj1812433253EEEEEjRT_RKNS1_10param_typeE = 0x000a99b0;
_ZN2nn6socket6detail13GetHostByNameEPKc = 0x000a9b70;
_ZN2nn6socket6detail13GetHostByNameEPKci = 0x000a9b74;
_ZN2nn6socket6detail30GetHostByNameWithoutNsdResolveEPKc = 0x000a9b78;
_ZN2nn6socket6detail30GetHostByNameWithoutNsdResolveEPKci = 0x000a9b7c;
_ZN2nn6socket6detail13GetHostByAddrEPKvji = 0x000a9b80;
_ZN2nn6socket6detail13GetHostByAddrEPKvjii = 0x000a9b84;
_ZN2nn6socket6detail9HStrErrorEi = 0x000a9b88;
_ZN2nn6socket6detail11GAIStrErrorEi = 0x000a9b8c;
_ZN2nn6socket6detail11GetAddrInfoEPKcS3_PK8addrinfoPPS4_ = 0x000a9b90;
_ZN2nn6socket6detail11GetAddrInfoEPKcS3_PK8addrinfoPPS4_i = 0x000a9b94;
_ZN2nn6socket6detail28GetAddrInfoWithoutNsdResolveEPKcS3_PK8addrinfoPPS4_ = 0x000a9b98;
_ZN2nn6socket6detail28GetAddrInfoWithoutNsdResolveEPKcS3_PK8addrinfoPPS4_i = 0x000a9b9c;
_ZN2nn6socket6detail11GetNameInfoEPK8sockaddrjPcjS5_ji = 0x000a9ba0;
_ZN2nn6socket6detail11GetNameInfoEPK8sockaddrjPcjS5_jii = 0x000a9bac;
_ZN2nn6socket6detail19RequestCancelHandleEv = 0x000a9bb8;
_ZN2nn6socket6detail6CancelEi = 0x000a9bbc;
_ZN2nn6socket6detail12FreeAddrInfoEP8addrinfo = 0x000a9bc0;
_ZN2nn6socket6detail9GetHErrnoEv = 0x000a9bf8;
_ZN2nn3svc7aarch644lp6411SetHeapSizeEPmm = 0x000a9c0c;
_ZN2nn3svc7aarch644lp6419SetMemoryPermissionEmmNS0_16MemoryPermissionE = 0x000a9c24;
_ZN2nn3svc7aarch644lp6418SetMemoryAttributeEmmjj = 0x000a9c2c;
_ZN2nn3svc7aarch644lp649MapMemoryEmmm = 0x000a9c34;
_ZN2nn3svc7aarch644lp6411UnmapMemoryEmmm = 0x000a9c3c;
_ZN2nn3svc7aarch644lp6411QueryMemoryEPNS0_4lp6410MemoryInfoEPNS0_8PageInfoEm = 0x000a9c44;
_ZN2nn3svc7aarch644lp6411ExitProcessEv = 0x000a9c5c;
_ZN2nn3svc7aarch644lp6412CreateThreadEPNS0_6HandleEmmmii = 0x000a9c64;
_ZN2nn3svc7aarch644lp6411StartThreadENS0_6HandleE = 0x000a9c7c;
_ZN2nn3svc7aarch644lp6410ExitThreadEv = 0x000a9c84;
_ZN2nn3svc7aarch644lp6411SleepThreadEl = 0x000a9c8c;
_ZN2nn3svc7aarch644lp6417GetThreadPriorityEPiNS0_6HandleE = 0x000a9c94;
_ZN2nn3svc7aarch644lp6417SetThreadPriorityENS0_6HandleEi = 0x000a9cac;
_ZN2nn3svc7aarch644lp6417GetThreadCoreMaskEPiPmNS0_6HandleE = 0x000a9cb4;
_ZN2nn3svc7aarch644lp6417SetThreadCoreMaskENS0_6HandleEim = 0x000a9cd4;
_ZN2nn3svc7aarch644lp6425GetCurrentProcessorNumberEv = 0x000a9cdc;
_ZN2nn3svc7aarch644lp6411SignalEventENS0_6HandleE = 0x000a9ce4;
_ZN2nn3svc7aarch644lp6410ClearEventENS0_6HandleE = 0x000a9cec;
_ZN2nn3svc7aarch644lp6415MapSharedMemoryENS0_6HandleEmmNS0_16MemoryPermissionE = 0x000a9cf4;
_ZN2nn3svc7aarch644lp6417UnmapSharedMemoryENS0_6HandleEmm = 0x000a9cfc;
_ZN2nn3svc7aarch644lp6420CreateTransferMemoryEPNS0_6HandleEmmNS0_16MemoryPermissionE = 0x000a9d04;
_ZN2nn3svc7aarch644lp6411CloseHandleENS0_6HandleE = 0x000a9d1c;
_ZN2nn3svc7aarch644lp6411ResetSignalENS0_6HandleE = 0x000a9d24;
_ZN2nn3svc7aarch644lp6419WaitSynchronizationEPiPKNS0_6HandleEil = 0x000a9d2c;
_ZN2nn3svc7aarch644lp6421CancelSynchronizationENS0_6HandleE = 0x000a9d44;
_ZN2nn3svc7aarch644lp6413ArbitrateLockENS0_6HandleEmj = 0x000a9d4c;
_ZN2nn3svc7aarch644lp6415ArbitrateUnlockEm = 0x000a9d54;
_ZN2nn3svc7aarch644lp6424WaitProcessWideKeyAtomicEmmjl = 0x000a9d5c;
_ZN2nn3svc7aarch644lp6420SignalProcessWideKeyEmi = 0x000a9d64;
_ZN2nn3svc7aarch644lp6413GetSystemTickEv = 0x000a9d6c;
_ZN2nn3svc7aarch644lp6418ConnectToNamedPortEPNS0_6HandleEPKc = 0x000a9d74;
_ZN2nn3svc7aarch644lp6420SendSyncRequestLightENS0_6HandleE = 0x000a9d8c;
_ZN2nn3svc7aarch644lp6415SendSyncRequestENS0_6HandleE = 0x000a9d94;
_ZN2nn3svc7aarch644lp6429SendSyncRequestWithUserBufferEmmNS0_6HandleE = 0x000a9d9c;
_ZN2nn3svc7aarch644lp6430SendAsyncRequestWithUserBufferEPNS0_6HandleEmmS3_ = 0x000a9da4;
_ZN2nn3svc7aarch644lp6412GetProcessIdEPmNS0_6HandleE = 0x000a9dbc;
_ZN2nn3svc7aarch644lp6411GetThreadIdEPmNS0_6HandleE = 0x000a9dd4;
_ZN2nn3svc7aarch644lp645BreakENS0_11BreakReasonEmm = 0x000a9dec;
_ZN2nn3svc7aarch644lp6417OutputDebugStringEPKcm = 0x000a9df4;
_ZN2nn3svc7aarch644lp6419ReturnFromExceptionENS_6ResultE = 0x000a9dfc;
_ZN2nn3svc7aarch644lp647GetInfoEPmNS0_8InfoTypeENS0_6HandleEm = 0x000a9e04;
_ZN2nn3svc7aarch644lp6420FlushEntireDataCacheEv = 0x000a9e1c;
_ZN2nn3svc7aarch644lp6414FlushDataCacheEmm = 0x000a9e24;
_ZN2nn3svc7aarch644lp6417MapPhysicalMemoryEmm = 0x000a9e2c;
_ZN2nn3svc7aarch644lp6419UnmapPhysicalMemoryEmm = 0x000a9e34;
_ZN2nn3svc7aarch644lp6417GetLastThreadInfoEPNS0_4lp6417LastThreadContextEPmPj = 0x000a9e3c;
_ZN2nn3svc7aarch644lp6426GetResourceLimitLimitValueEPlNS0_6HandleENS0_17LimitableResourceE = 0x000a9e74;
_ZN2nn3svc7aarch644lp6428GetResourceLimitCurrentValueEPlNS0_6HandleENS0_17LimitableResourceE = 0x000a9e8c;
_ZN2nn3svc7aarch644lp6417SetThreadActivityENS0_6HandleENS0_14ThreadActivityE = 0x000a9ea4;
_ZN2nn3svc7aarch644lp6417GetThreadContext3EPNS0_13ThreadContextENS0_6HandleE = 0x000a9eac;
_ZN2nn3svc7aarch644lp648DumpInfoENS0_12DumpInfoTypeEm = 0x000a9eb4;
_ZN2nn3svc7aarch644lp6417ReadWriteRegisterEPjmjj = 0x000a9ebc;
_ZN2nn3svc7aarch644lp6418SetProcessActivityENS0_6HandleENS0_15ProcessActivityE = 0x000a9ed4;
_ZN2nn3svc7aarch644lp6418CreateSharedMemoryEPNS0_6HandleEmNS0_16MemoryPermissionES5_ = 0x000a9edc;
_ZN2nn3svc7aarch644lp6417MapTransferMemoryENS0_6HandleEmmNS0_16MemoryPermissionE = 0x000a9ef4;
_ZN2nn3svc7aarch644lp6419UnmapTransferMemoryENS0_6HandleEmm = 0x000a9efc;
_ZN2nn3svc7aarch644lp6420CreateInterruptEventEPNS0_6HandleENS0_9InterruptENS0_13InterruptTypeE = 0x000a9f04;
_ZN2nn3svc7aarch644lp6420QueryPhysicalAddressEPNS0_4lp6418PhysicalMemoryInfoEm = 0x000a9f1c;
_ZN2nn3svc7aarch644lp6414QueryIoMappingEPmmm = 0x000a9f3c;
_ZN2nn3svc7aarch644lp6424CreateDeviceAddressSpaceEPNS0_6HandleEmm = 0x000a9f54;
_ZN2nn3svc7aarch644lp6424AttachDeviceAddressSpaceENS0_10DeviceNameENS0_6HandleE = 0x000a9f6c;
_ZN2nn3svc7aarch644lp6424DetachDeviceAddressSpaceENS0_10DeviceNameENS0_6HandleE = 0x000a9f74;
_ZN2nn3svc7aarch644lp6428MapDeviceAddressSpaceByForceENS0_6HandleES3_mmmNS0_16MemoryPermissionE = 0x000a9f7c;
_ZN2nn3svc7aarch644lp6428MapDeviceAddressSpaceAlignedENS0_6HandleES3_mmmNS0_16MemoryPermissionE = 0x000a9f84;
_ZN2nn3svc7aarch644lp6421MapDeviceAddressSpaceEPmNS0_6HandleES4_mmmNS0_16MemoryPermissionE = 0x000a9f8c;
_ZN2nn3svc7aarch644lp6423UnmapDeviceAddressSpaceENS0_6HandleES3_mmm = 0x000a9fa4;
_ZN2nn3svc7aarch644lp6426InvalidateProcessDataCacheENS0_6HandleEmm = 0x000a9fac;
_ZN2nn3svc7aarch644lp6421StoreProcessDataCacheENS0_6HandleEmm = 0x000a9fb4;
_ZN2nn3svc7aarch644lp6421FlushProcessDataCacheENS0_6HandleEmm = 0x000a9fbc;
_ZN2nn3svc7aarch644lp6418DebugActiveProcessEPNS0_6HandleEm = 0x000a9fc4;
_ZN2nn3svc7aarch644lp6417BreakDebugProcessENS0_6HandleE = 0x000a9fdc;
_ZN2nn3svc7aarch644lp6421TerminateDebugProcessENS0_6HandleE = 0x000a9fe4;
_ZN2nn3svc7aarch644lp6413GetDebugEventEPNS0_4lp6414DebugEventInfoENS0_6HandleE = 0x000a9fec;
_ZN2nn3svc7aarch644lp6418ContinueDebugEventENS0_6HandleEjPKmi = 0x000a9ff4;
_ZN2nn3svc7aarch644lp6414GetProcessListEPiPmi = 0x000a9ffc;
_ZN2nn3svc7aarch644lp6413GetThreadListEPiPmiNS0_6HandleE = 0x000aa014;
_ZN2nn3svc7aarch644lp6421GetDebugThreadContextEPNS0_13ThreadContextENS0_6HandleEmj = 0x000aa02c;
_ZN2nn3svc7aarch644lp6421SetDebugThreadContextENS0_6HandleEmRKNS0_13ThreadContextEj = 0x000aa034;
_ZN2nn3svc7aarch644lp6423QueryDebugProcessMemoryEPNS0_4lp6410MemoryInfoEPNS0_8PageInfoENS0_6HandleEm = 0x000aa03c;
_ZN2nn3svc7aarch644lp6422ReadDebugProcessMemoryEmNS0_6HandleEmm = 0x000aa054;
_ZN2nn3svc7aarch644lp6423WriteDebugProcessMemoryENS0_6HandleEmmm = 0x000aa05c;
_ZN2nn3svc7aarch644lp6421SetHardwareBreakPointENS0_30HardwareBreakPointRegisterNameEmm = 0x000aa064;
_ZN2nn3svc7aarch644lp6419GetDebugThreadParamEPmPjNS0_6HandleEmNS0_16DebugThreadParamE = 0x000aa06c;
_ZN2nn3svc7aarch644lp6413CreateSessionEPNS0_6HandleES4_bm = 0x000aa08c;
_ZN2nn3svc7aarch644lp6413AcceptSessionEPNS0_6HandleES3_ = 0x000aa0ac;
_ZN2nn3svc7aarch644lp6420ReplyAndReceiveLightENS0_6HandleE = 0x000aa0c4;
_ZN2nn3svc7aarch644lp6415ReplyAndReceiveEPiPKNS0_6HandleEiS4_l = 0x000aa0cc;
_ZN2nn3svc7aarch644lp6429ReplyAndReceiveWithUserBufferEPimmPKNS0_6HandleEiS4_l = 0x000aa0e4;
_ZN2nn3svc7aarch644lp6411CreateEventEPNS0_6HandleES4_ = 0x000aa0fc;
_ZN2nn3svc7aarch644lp6411SleepSystemEv = 0x000aa11c;
_ZN2nn3svc7aarch644lp6410CreatePortEPNS0_6HandleES4_ibm = 0x000aa124;
_ZN2nn3svc7aarch644lp6415ManageNamedPortEPNS0_6HandleEPKci = 0x000aa144;
_ZN2nn3svc7aarch644lp6413ConnectToPortEPNS0_6HandleES3_ = 0x000aa15c;
_ZN2nn3svc7aarch644lp6426SetProcessMemoryPermissionENS0_6HandleEmmNS0_16MemoryPermissionE = 0x000aa174;
_ZN2nn3svc7aarch644lp6416MapProcessMemoryEmNS0_6HandleEmm = 0x000aa17c;
_ZN2nn3svc7aarch644lp6418UnmapProcessMemoryEmNS0_6HandleEmm = 0x000aa184;
_ZN2nn3svc7aarch644lp6418QueryProcessMemoryEPNS0_4lp6410MemoryInfoEPNS0_8PageInfoENS0_6HandleEm = 0x000aa18c;
_ZN2nn3svc7aarch644lp6420MapProcessCodeMemoryENS0_6HandleEmmm = 0x000aa1a4;
_ZN2nn3svc7aarch644lp6422UnmapProcessCodeMemoryENS0_6HandleEmmm = 0x000aa1ac;
_ZN2nn3svc7aarch644lp6413CreateProcessEPNS0_6HandleERKNS0_4lp6422CreateProcessParameterEPKji = 0x000aa1b4;
_ZN2nn3svc7aarch644lp6412StartProcessENS0_6HandleEiim = 0x000aa1cc;
_ZN2nn3svc7aarch644lp6416TerminateProcessENS0_6HandleE = 0x000aa1d4;
_ZN2nn3svc7aarch644lp6414GetProcessInfoEPlNS0_6HandleENS0_15ProcessInfoTypeE = 0x000aa1dc;
_ZN2nn3svc7aarch644lp6419CreateResourceLimitEPNS0_6HandleE = 0x000aa1f4;
_ZN2nn3svc7aarch644lp6426SetResourceLimitLimitValueENS0_6HandleENS0_17LimitableResourceEl = 0x000aa20c;
_ZN2nn3svc7aarch644lp6417CallSecureMonitorEv = 0x000aa214;
_ZN2nn4util20GenerateUuidVersion5EPKv = 0x000aa21c;
_ZN2nn4util12GenerateUuidEv = 0x000aa280;
_ZNK2nn7account10UiSettings9GetUiModeEv = 0x000aa318;
_ZNK2nn7account10UiSettings35GetNintendoAccountStartupDialogTypeEv = 0x000aa344;
_ZN2nn7account25ShowUserSelectorForSystemEPNS0_3UidERKNS0_21UserSelectionSettingsERKNS0_37UserSelectionSettingsForSystemServiceE = 0x000aa370;
_ZN2nn7account27ShowUserSelectorForLauncherEPNS0_3UidERKNS0_21UserSelectionSettingsERKNS_13ApplicationIdE = 0x000aa450;
_ZN2nn7account16ShowUserSelectorEPNS0_3UidERKNS0_21UserSelectionSettingsE = 0x000aa52c;
_ZN2nn7account15ShowUserCreatorEv = 0x000aa600;
_ZN2nn7account18ShowUserIconEditorERKNS0_3UidE = 0x000aa670;
_ZN2nn7account22ShowUserNicknameEditorERKNS0_3UidE = 0x000aa6c8;
_ZN2nn7account25ShowUserCreatorForStarterEv = 0x000aa720;
_ZN2nn7account29ShowNintendoAccountNnidLinkerERKNS0_3UidE = 0x000aa75c;
_ZN2nn7account27GetUiResultFromContextStackEPNS0_11UiReturnArgENS_6applet13StorageHandleE = 0x000aa7b4;
_ZN2nn7account6detail18OAuthProcedureBaseC2Ev = 0x000aa7e8;
_ZN2nn7account6detail18OAuthProcedureBaseC1Ev = 0x000aa7e8;
_ZN2nn7account6detail18OAuthProcedureBaseC1ERKNS0_3UidEPNS0_4http15IOAuthProcedureE = 0x000aa800;
_ZN2nn7account6detail18OAuthProcedureBaseC2ERKNS0_3UidEPNS0_4http15IOAuthProcedureE = 0x000aa800;
_ZN2nn7account6detail18OAuthProcedureBaseC2EOS2_ = 0x000aa828;
_ZN2nn7account6detail18OAuthProcedureBaseC1EOS2_ = 0x000aa828;
_ZN2nn7account6detail18OAuthProcedureBaseD0Ev = 0x000aa85c;
_ZN2nn7account6detail18OAuthProcedureBaseaSEOS2_ = 0x000aa8a0;
_ZN2nn7account6detail18OAuthProcedureBase4SwapERS2_ = 0x000aa92c;
_ZN2nn7account6detail18OAuthProcedureBase12PrepareAsyncEPNS0_12AsyncContextE = 0x000aa974;
_ZN2nn7account6detail18OAuthProcedureBase10GetRequestEPNS0_10RequestUrlEPNS0_11CallbackUriE = 0x000aaa40;
_ZN2nn7account6detail18OAuthProcedureBase13ApplyResponseEPKcm = 0x000aaaac;
_ZN2nn7account6detail18OAuthProcedureBase18ApplyResponseAsyncEPNS0_12AsyncContextEPKcm = 0x000aab20;
_ZN2nn7account6detail18OAuthProcedureBase7SuspendEPNS0_9SessionIdE = 0x000aac04;
_ZN2nn7account6detail24SimpleOAuthProcedureBaseC1Ev = 0x000aac84;
_ZN2nn7account6detail24SimpleOAuthProcedureBaseC2Ev = 0x000aac84;
_ZN2nn7account6detail24SimpleOAuthProcedureBaseC1ERKNS0_3UidEPNS0_4http15IOAuthProcedureE = 0x000aac9c;
_ZN2nn7account6detail24SimpleOAuthProcedureBaseC2ERKNS0_3UidEPNS0_4http15IOAuthProcedureE = 0x000aac9c;
_ZN2nn7account6detail24SimpleOAuthProcedureBaseC1EOS2_ = 0x000aacd0;
_ZN2nn7account6detail24SimpleOAuthProcedureBaseC2EOS2_ = 0x000aacd0;
_ZN2nn7account6detail24SimpleOAuthProcedureBaseaSEOS2_ = 0x000aad14;
_ZN2nn7account6detail24SimpleOAuthProcedureBase4SwapERS2_ = 0x000aada0;
_ZN2nn7account6detail18OAuthProcedureBaseD1Ev = 0x000aade8;
_ZN2nn7account6detail18OAuthProcedureBaseD2Ev = 0x000aade8;
_ZN2nn7account6detail24SimpleOAuthProcedureBaseD0Ev = 0x000aae10;
_ZN2nn7account6detail21TryPopPreselectedUserEv = 0x000aae54;
_ZN2nn7account6detail25CheckInternetAvailabilityEv = 0x000aaf2c;
_ZN2nn7account6detail15StartPselAppletERKNS0_10UiSettingsE = 0x000aaf54;
_ZN2nn7account6detail15StartPselAppletERKNS0_10UiSettingsEPKvm = 0x000ab098;
_ZN2nn7account6detail22ShowUserSelectorCommonEPNS0_3UidERKNS0_10UiSettingsE = 0x000ab0d4;
_ZN2nn7account6detail12ObjectHolderC2Ev = 0x000ab19c;
_ZN2nn7account6detail12ObjectHolderD2Ev = 0x000ab330;
_ZN2nn7account10InitializeEv = 0x000ab3dc;
_ZN2nn7account26InitializeForSystemServiceEv = 0x000ab4d0;
_ZN2nn7account26InitializeForAdministratorEv = 0x000ab584;
_ZN2nn7account14InitializeWithEONS_2sf13SharedPointerINS0_31IAccountServiceForAdministratorEEE = 0x000ab63c;
_ZN2nn7account8FinalizeEv = 0x000ab6b8;
_ZN2nn7account6detail31TrySelectUserWithoutInteractionEPNS0_3UidEb = 0x000ab76c;
_ZN2nn7account12GetUserCountEPi = 0x000ab7a4;
_ZN2nn7account16GetUserExistenceEPbRKNS0_3UidE = 0x000ab7f4;
_ZN2nn7account12ListAllUsersEPiPNS0_3UidEi = 0x000ab830;
_ZN2nn7account13ListOpenUsersEPiPNS0_3UidEi = 0x000aba20;
_ZN2nn7account17GetLastOpenedUserEPNS0_3UidE = 0x000abc10;
_ZN2nn7account16GetProfileDigestEPNS0_13ProfileDigestERKNS0_3UidE = 0x000abc44;
_ZN2nn7account11GetNicknameEPNS0_8NicknameERKNS0_3UidE = 0x000abc80;
_ZN2nn7account16LoadProfileImageEPmPvmRKNS0_3UidE = 0x000abd30;
_ZN2nn7account34IsUserRegistrationRequestPermittedEPb = 0x000abe04;
_ZN2nn7account8OpenUserEPNS0_10UserHandleERKNS0_3UidE = 0x000abe44;
_ZN2nn7account19OpenPreselectedUserEPNS0_10UserHandleE = 0x000abed8;
_ZN2nn7account9CloseUserERKNS0_10UserHandleE = 0x000abf90;
_ZN2nn7account9GetUserIdEPNS0_3UidERKNS0_10UserHandleE = 0x000abfa0;
_ZN2nn7account38IntroduceExternalNetworkServiceAccountEPNS0_33ExternalNetworkServiceAccountInfoEPvm = 0x000abfb0;
_ZN2nn7account43DebugIntroduceExternalNetworkServiceAccountEPmmPNS0_33ExternalNetworkServiceAccountInfoEPvm = 0x000ac148;
_ZN2nn7account27StoreSaveDataThumbnailImageERKNS0_3UidEPKvm = 0x000ac2c4;
_ZN2nn7account28DeleteSaveDataThumbnailImageERKNS0_3UidE = 0x000ac31c;
_ZN2nn7account27GetUserRegistrationNotifierEPNS0_8NotifierE = 0x000ac358;
_ZN2nn7account26GetUserStateChangeNotifierEPNS0_8NotifierE = 0x000ac3f0;
_ZN2nn7account24GetProfileUpdateNotifierEPNS0_8NotifierE = 0x000ac488;
_ZN2nn7account50GetNetworkServiceAccountAvailabilityChangeNotifierEPNS0_8NotifierE = 0x000ac520;
_ZN2nn7account28GetUserLastOpenedApplicationEPNS_13ApplicationIdEPjRKNS0_3UidE = 0x000ac5b8;
_ZN2nn7account31GetNetworkServiceAccountManagerEPNS0_28NetworkServiceAccountManagerERKNS0_3UidE = 0x000ac604;
_ZN2nn7account27StoreSaveDataThumbnailImageERKNS0_3UidERKNS_13ApplicationIdEPKvm = 0x000ac6a8;
_ZN2nn7account28DeleteSaveDataThumbnailImageERKNS0_3UidERKNS_13ApplicationIdE = 0x000ac704;
_ZN2nn7account26LoadSaveDataThumbnailImageEPvmRKNS0_3UidERKNS_13ApplicationIdE = 0x000ac744;
_ZN2nn7account21BeginUserRegistrationEPNS0_3UidE = 0x000ac7a4;
_ZN2nn7account24CompleteUserRegistrationERKNS0_3UidE = 0x000ac7d8;
_ZN2nn7account32CompleteUserRegistrationForciblyERKNS0_3UidE = 0x000ac80c;
_ZN2nn7account22CancelUserRegistrationERKNS0_3UidE = 0x000ac840;
_ZN2nn7account10DeleteUserERKNS0_3UidE = 0x000ac874;
_ZN2nn7account15SetUserPositionERKNS0_3UidEi = 0x000ac8a8;
_ZN2nn7account16GetProfileEditorEPNS0_13ProfileEditorERKNS0_3UidE = 0x000ac8e4;
_ZN2nn7account24AuthenticateServiceAsyncEPNS0_12AsyncContextE = 0x000ac9a0;
_ZN2nn7account37GetNetworkServiceAccountAdministratorEPNS0_34NetworkServiceAccountAdministratorERKNS0_3UidE = 0x000aca38;
_ZN2nn7account44CreateExternalNetworkServiceAccountRegistrarEPNS0_38ExternalNetworkServiceAccountRegistrarEPvm = 0x000acadc;
_ZN2nn7account49DebugCreateExternalNetworkServiceAccountRegistrarEPmmPNS0_38ExternalNetworkServiceAccountRegistrarEPvm = 0x000acc4c;
_ZN2nn7account69ProxyProcedureToIntroduceExternalNetworkServiceAccountForRegistrationEPNS0_49ExternalNetworkServiceAccountIntroducingProcedureERKNS0_9SessionIdE = 0x000acda0;
_ZN2nn7account54ProxyProcedureToIntroduceExternalNetworkServiceAccountEPNS0_49ExternalNetworkServiceAccountIntroducingProcedureERKNS0_9SessionIdE = 0x000ace4c;
_ZN2nn7account11Declaration4SwapERS1_ = 0x000acef8;
_ZN2nn7account11DeclarationD2Ev = 0x000acf0c;
_ZN2nn7account11DeclarationD1Ev = 0x000acf0c;
_ZN2nn7account25DebugInvalidateTokenCacheERKNS0_3UidE = 0x000acf24;
_ZN2nn7account21DebugSetUserStateOpenERKNS0_3UidE = 0x000acf84;
_ZN2nn7account22DebugSetUserStateCloseERKNS0_3UidE = 0x000acfb8;
_ZN2nn7account25SuspendBackgroundActivityEv = 0x000acfec;
_ZN2nn7account6detail12ObjectHolder11AcquireImplINS0_29IAccountServiceForApplicationEEENS_6ResultEPPT_PKc = 0x000ad064;
_ZN2nn2sf4hipc6client34HipcSimpleClientSessionManagerBase4Impl18InitializeByHandleINS_7account29IAccountServiceForApplicationENS0_25StatelessAllocationPolicyINS0_22ExpHeapStaticAllocatorILm2048ENS6_6detail12ObjectHolder24ObjectHolderAllocatorTagEEEEEEENS_6ResultEPNS0_13SharedPointerIT_EENS_3svc6HandleE = 0x000ad15c;
_ZN2nn2sf6detail39ObjectImplFactoryWithStatelessAllocatorINS0_4cmif6client16CmifProxyFactoryINS_7account29IAccountServiceForApplicationENS4_15CmifDomainProxyINS0_4hipc6client38Hipc2ClientSessionManagedProxyKindBaseINSA_18Hipc2ProxyKindBaseILNS9_6detail11MessageTypeE4EEEEEEENS0_25StatelessAllocationPolicyINS0_22ExpHeapStaticAllocatorILm2048ENS6_6detail12ObjectHolder24ObjectHolderAllocatorTagEEEEEE13ServiceObjectESO_E6Object12AddReferenceEv = 0x000ad270;
_ZN2nn2sf6detail39ObjectImplFactoryWithStatelessAllocatorINS0_4cmif6client16CmifProxyFactoryINS_7account29IAccountServiceForApplicationENS4_15CmifDomainProxyINS0_4hipc6client38Hipc2ClientSessionManagedProxyKindBaseINSA_18Hipc2ProxyKindBaseILNS9_6detail11MessageTypeE4EEEEEEENS0_25StatelessAllocationPolicyINS0_22ExpHeapStaticAllocatorILm2048ENS6_6detail12ObjectHolder24ObjectHolderAllocatorTagEEEEEE13ServiceObjectESO_E6Object7ReleaseEv = 0x000ad278;
_ZN2nn2sf4cmif6client6detail13CmifProxyImplINS_7account19IAccountServiceBaseENS2_15CmifDomainProxyINS0_4hipc6client38Hipc2ClientSessionManagedProxyKindBaseINS9_18Hipc2ProxyKindBaseILNS8_6detail11MessageTypeE4EEEEEEENS0_25StatelessAllocationPolicyINS0_22ExpHeapStaticAllocatorILm2048ENS5_6detail12ObjectHolder24ObjectHolderAllocatorTagEEEEENS5_29IAccountServiceForApplicationEE12GetProxyInfoEv = 0x000ad2ec;
_ZN2nn2sf4cmif6client6detail13CmifProxyImplINS_7account19IAccountServiceBaseENS2_15CmifDomainProxyINS0_4hipc6client38Hipc2ClientSessionManagedProxyKindBaseINS9_18Hipc2ProxyKindBaseILNS8_6detail11MessageTypeE4EEEEEEENS0_25StatelessAllocationPolicyINS0_22ExpHeapStaticAllocatorILm2048ENS5_6detail12ObjectHolder24ObjectHolderAllocatorTagEEEEENS5_29IAccountServiceForApplicationEE24_nn_sf_sync_GetUserCountENS0_3OutIivEE = 0x000ad2f4;
_ZN2nn2sf4cmif6client6detail13CmifProxyImplINS_7account19IAccountServiceBaseENS2_15CmifDomainProxyINS0_4hipc6client38Hipc2ClientSessionManagedProxyKindBaseINS9_18Hipc2ProxyKindBaseILNS8_6detail11MessageTypeE4EEEEEEENS0_25StatelessAllocationPolicyINS0_22ExpHeapStaticAllocatorILm2048ENS5_6detail12ObjectHolder24ObjectHolderAllocatorTagEEEEENS5_29IAccountServiceForApplicationEE28_nn_sf_sync_GetUserExistenceENS0_3OutIbvEERKNS5_3UidE = 0x000ad314;
_ZN2nn2sf4cmif6client6detail13CmifProxyImplINS_7account19IAccountServiceBaseENS2_15CmifDomainProxyINS0_4hipc6client38Hipc2ClientSessionManagedProxyKindBaseINS9_18Hipc2ProxyKindBaseILNS8_6detail11MessageTypeE4EEEEEEENS0_25StatelessAllocationPolicyINS0_22ExpHeapStaticAllocatorILm2048ENS5_6detail12ObjectHolder24ObjectHolderAllocatorTagEEEEENS5_29IAccountServiceForApplicationEE24_nn_sf_sync_ListAllUsersERKNS0_8OutArrayINS5_3UidEEE = 0x000ad334;
_ZN2nn2sf4cmif6client6detail13CmifProxyImplINS_7account19IAccountServiceBaseENS2_15CmifDomainProxyINS0_4hipc6client38Hipc2ClientSessionManagedProxyKindBaseINS9_18Hipc2ProxyKindBaseILNS8_6detail11MessageTypeE4EEEEEEENS0_25StatelessAllocationPolicyINS0_22ExpHeapStaticAllocatorILm2048ENS5_6detail12ObjectHolder24ObjectHolderAllocatorTagEEEEENS5_29IAccountServiceForApplicationEE25_nn_sf_sync_ListOpenUsersERKNS0_8OutArrayINS5_3UidEEE = 0x000ad360;
_ZN2nn2sf4cmif6client6detail13CmifProxyImplINS_7account19IAccountServiceBaseENS2_15CmifDomainProxyINS0_4hipc6client38Hipc2ClientSessionManagedProxyKindBaseINS9_18Hipc2ProxyKindBaseILNS8_6detail11MessageTypeE4EEEEEEENS0_25StatelessAllocationPolicyINS0_22ExpHeapStaticAllocatorILm2048ENS5_6detail12ObjectHolder24ObjectHolderAllocatorTagEEEEENS5_29IAccountServiceForApplicationEE29_nn_sf_sync_GetLastOpenedUserENS0_3OutINS5_3UidEvEE = 0x000ad38c;
_ZN2nn2sf4cmif6client6detail13CmifProxyImplINS_7account19IAccountServiceBaseENS2_15CmifDomainProxyINS0_4hipc6client38Hipc2ClientSessionManagedProxyKindBaseINS9_18Hipc2ProxyKindBaseILNS8_6detail11MessageTypeE4EEEEEEENS0_25StatelessAllocationPolicyINS0_22ExpHeapStaticAllocatorILm2048ENS5_6detail12ObjectHolder24ObjectHolderAllocatorTagEEEEENS5_29IAccountServiceForApplicationEE22_nn_sf_sync_GetProfileENS0_3OutINS0_13SharedPointerINS5_7profile8IProfileEEEvEERKNS5_3UidE = 0x000ad3ac;
_ZN2nn2sf4cmif6client6detail13CmifProxyImplINS_7account19IAccountServiceBaseENS2_15CmifDomainProxyINS0_4hipc6client38Hipc2ClientSessionManagedProxyKindBaseINS9_18Hipc2ProxyKindBaseILNS8_6detail11MessageTypeE4EEEEEEENS0_25StatelessAllocationPolicyINS0_22ExpHeapStaticAllocatorILm2048ENS5_6detail12ObjectHolder24ObjectHolderAllocatorTagEEEEENS5_29IAccountServiceForApplicationEE28_nn_sf_sync_GetProfileDigestENS0_3OutINS5_13ProfileDigestEvEERKNS5_3UidE = 0x000ad440;
_ZN2nn2sf4cmif6client6detail13CmifProxyImplINS_7account19IAccountServiceBaseENS2_15CmifDomainProxyINS0_4hipc6client38Hipc2ClientSessionManagedProxyKindBaseINS9_18Hipc2ProxyKindBaseILNS8_6detail11MessageTypeE4EEEEEEENS0_25StatelessAllocationPolicyINS0_22ExpHeapStaticAllocatorILm2048ENS5_6detail12ObjectHolder24ObjectHolderAllocatorTagEEEEENS5_29IAccountServiceForApplicationEE46_nn_sf_sync_IsUserRegistrationRequestPermittedENS0_3OutIbvEEm = 0x000ad460;
_ZN2nn2sf4cmif6client6detail13CmifProxyImplINS_7account19IAccountServiceBaseENS2_15CmifDomainProxyINS0_4hipc6client38Hipc2ClientSessionManagedProxyKindBaseINS9_18Hipc2ProxyKindBaseILNS8_6detail11MessageTypeE4EEEEEEENS0_25StatelessAllocationPolicyINS0_22ExpHeapStaticAllocatorILm2048ENS5_6detail12ObjectHolder24ObjectHolderAllocatorTagEEEEENS5_29IAccountServiceForApplicationEE43_nn_sf_sync_TrySelectUserWithoutInteractionENS0_3OutINS5_3UidEvEEb = 0x000ad480;
_ZN2nn2sf4cmif6client6detail13CmifProxyImplINS_7account29IAccountServiceForApplicationENS2_15CmifDomainProxyINS0_4hipc6client38Hipc2ClientSessionManagedProxyKindBaseINS9_18Hipc2ProxyKindBaseILNS8_6detail11MessageTypeE4EEEEEEENS0_25StatelessAllocationPolicyINS0_22ExpHeapStaticAllocatorILm2048ENS5_6detail12ObjectHolder24ObjectHolderAllocatorTagEEEEES6_E37_nn_sf_sync_InitializeApplicationInfoEm = 0x000ad4a4;
_ZN2nn2sf4cmif6client6detail13CmifProxyImplINS_7account29IAccountServiceForApplicationENS2_15CmifDomainProxyINS0_4hipc6client38Hipc2ClientSessionManagedProxyKindBaseINS9_18Hipc2ProxyKindBaseILNS8_6detail11MessageTypeE4EEEEEEENS0_25StatelessAllocationPolicyINS0_22ExpHeapStaticAllocatorILm2048ENS5_6detail12ObjectHolder24ObjectHolderAllocatorTagEEEEES6_E47_nn_sf_sync_GetBaasAccountManagerForApplicationENS0_3OutINS0_13SharedPointerINS5_4baas22IManagerForApplicationEEEvEERKNS5_3UidE = 0x000ad4c4;
_ZN2nn2sf4cmif6client6detail13CmifProxyImplINS_7account29IAccountServiceForApplicationENS2_15CmifDomainProxyINS0_4hipc6client38Hipc2ClientSessionManagedProxyKindBaseINS9_18Hipc2ProxyKindBaseILNS8_6detail11MessageTypeE4EEEEEEENS0_25StatelessAllocationPolicyINS0_22ExpHeapStaticAllocatorILm2048ENS5_6detail12ObjectHolder24ObjectHolderAllocatorTagEEEEES6_E40_nn_sf_sync_AuthenticateApplicationAsyncENS0_3OutINS0_13SharedPointerINSJ_13IAsyncContextEEEvEE = 0x000ad558;
_ZN2nn2sf4cmif6client6detail13CmifProxyImplINS_7account29IAccountServiceForApplicationENS2_15CmifDomainProxyINS0_4hipc6client38Hipc2ClientSessionManagedProxyKindBaseINS9_18Hipc2ProxyKindBaseILNS8_6detail11MessageTypeE4EEEEEEENS0_25StatelessAllocationPolicyINS0_22ExpHeapStaticAllocatorILm2048ENS5_6detail12ObjectHolder24ObjectHolderAllocatorTagEEEEES6_E34_nn_sf_sync_StoreSaveDataThumbnailERKNS5_3UidERKNS0_8InBufferE = 0x000ad5e0;
_ZN2nn2sf4cmif6client6detail13CmifProxyImplINS_7account29IAccountServiceForApplicationENS2_15CmifDomainProxyINS0_4hipc6client38Hipc2ClientSessionManagedProxyKindBaseINS9_18Hipc2ProxyKindBaseILNS8_6detail11MessageTypeE4EEEEEEENS0_25StatelessAllocationPolicyINS0_22ExpHeapStaticAllocatorILm2048ENS5_6detail12ObjectHolder24ObjectHolderAllocatorTagEEEEES6_E34_nn_sf_sync_ClearSaveDataThumbnailERKNS5_3UidE = 0x000ad608;
_ZN2nn2sf4cmif6client6detail13CmifProxyImplINS_7account29IAccountServiceForApplicationENS2_15CmifDomainProxyINS0_4hipc6client38Hipc2ClientSessionManagedProxyKindBaseINS9_18Hipc2ProxyKindBaseILNS8_6detail11MessageTypeE4EEEEEEENS0_25StatelessAllocationPolicyINS0_22ExpHeapStaticAllocatorILm2048ENS5_6detail12ObjectHolder24ObjectHolderAllocatorTagEEEEES6_E35_nn_sf_sync_CreateGuestLoginRequestENS0_3OutINS0_13SharedPointerINS5_4baas18IGuestLoginRequestEEEvEEONS0_12NativeHandleEj = 0x000ad628;
_ZN2nn2sf4cmif6client6detail13CmifProxyImplINS_7account19IAccountServiceBaseENS2_15CmifDomainProxyINS0_4hipc6client38Hipc2ClientSessionManagedProxyKindBaseINS9_18Hipc2ProxyKindBaseILNS8_6detail11MessageTypeE4EEEEEEENS0_25StatelessAllocationPolicyINS0_22ExpHeapStaticAllocatorILm2048ENS5_6detail12ObjectHolder24ObjectHolderAllocatorTagEEEEENS5_29IAccountServiceForApplicationEE17GetCmifBaseObjectEv = 0x000ad6c8;
_ZThn32_N2nn2sf4cmif6client6detail13CmifProxyImplINS_7account19IAccountServiceBaseENS2_15CmifDomainProxyINS0_4hipc6client38Hipc2ClientSessionManagedProxyKindBaseINS9_18Hipc2ProxyKindBaseILNS8_6detail11MessageTypeE4EEEEEEENS0_25StatelessAllocationPolicyINS0_22ExpHeapStaticAllocatorILm2048ENS5_6detail12ObjectHolder24ObjectHolderAllocatorTagEEEEENS5_29IAccountServiceForApplicationEE17GetCmifBaseObjectEv = 0x000ad6d8;
_ZN2nn2sf4cmif6client34CmifDomainProxyClientCoreProcessorINS0_4hipc6client38Hipc2ClientSessionManagedProxyKindBaseINS5_18Hipc2ProxyKindBaseILNS4_6detail11MessageTypeE4EEEEENS1_6detail14CoreMethodInfoINSt3__15tupleIJNSC_18OutRawArgumentInfoILm1ELm1ELl0EEENSC_17InRawArgumentInfoILm16ELm8ELl0EEEEEELm16ELm1ELb0EEESK_E7ProcessEPNS2_23CmifDomainClientMessageISB_E15ProxyBaseObjectENS2_24OutRawClientArgumentTypeILm1ELm1EEENS2_23InRawClientArgumentTypeILm16ELm8EvEEj = 0x000ad6e0;
_ZN2nn2sf4cmif6client34CmifDomainProxyClientCoreProcessorINS0_4hipc6client38Hipc2ClientSessionManagedProxyKindBaseINS5_18Hipc2ProxyKindBaseILNS4_6detail11MessageTypeE4EEEEENS1_6detail14CoreMethodInfoINSt3__15tupleIJNSC_18BufferArgumentInfoILi0ELi10ELm0EEEEEELm0ELm0ELb0EEESI_E7ProcessEPNS2_23CmifDomainClientMessageISB_E15ProxyBaseObjectENS2_24BufferClientArgumentTypeEj = 0x000ad844;
_ZN2nn2sf4cmif6client34CmifDomainProxyClientCoreProcessorINS0_4hipc6client38Hipc2ClientSessionManagedProxyKindBaseINS5_18Hipc2ProxyKindBaseILNS4_6detail11MessageTypeE4EEEEENS1_6detail14CoreMethodInfoINSt3__15tupleIJNSC_18OutRawArgumentInfoILm16ELm8ELl0EEEEEELm0ELm16ELb0EEESI_E7ProcessEPNS2_23CmifDomainClientMessageISB_E15ProxyBaseObjectENS2_24OutRawClientArgumentTypeILm16ELm8EEEj = 0x000ad9fc;
_ZN2nn2sf4cmif6client34CmifDomainProxyClientCoreProcessorINS0_4hipc6client38Hipc2ClientSessionManagedProxyKindBaseINS5_18Hipc2ProxyKindBaseILNS4_6detail11MessageTypeE4EEEEENS1_6detail14CoreMethodInfoINSt3__15tupleIJNSC_21OutObjectArgumentInfoILi0ELi0EEENSC_17InRawArgumentInfoILm16ELm8ELl0EEEEEELm16ELm0ELb0EEESK_E21ProcessWithOutObjectsEPNS2_23CmifDomainClientMessageISB_E15ProxyBaseObjectENS2_27OutObjectClientArgumentTypeENS2_23InRawClientArgumentTypeILm16ELm8EvEEjPNS0_13SharedPointerINS0_14IServiceObjectEEE = 0x000adb4c;
_ZN2nn2sf4cmif6client32GetClientProcessorWithObjectBaseINS2_15CmifDomainProxyINS0_4hipc6client38Hipc2ClientSessionManagedProxyKindBaseINS6_18Hipc2ProxyKindBaseILNS5_6detail11MessageTypeE4EEEEEEEE14ObjectAssignerINS0_25StatelessAllocationPolicyINS0_22ExpHeapStaticAllocatorILm2048ENS_7account6detail12ObjectHolder24ObjectHolderAllocatorTagEEEEENS0_6detail23StatelessDummyAllocatorEE14AllocateObjectINSI_7profile8IProfileEEEvi = 0x000add24;
_ZN2nn2sf6detail39ObjectImplFactoryWithStatelessAllocatorINS0_4cmif6client16CmifProxyFactoryINS_7account7profile8IProfileENS4_15CmifDomainProxyINS0_4hipc6client38Hipc2ClientSessionManagedProxyKindBaseINSB_18Hipc2ProxyKindBaseILNSA_6detail11MessageTypeE4EEEEEEENS0_25StatelessAllocationPolicyINS0_22ExpHeapStaticAllocatorILm2048ENS6_6detail12ObjectHolder24ObjectHolderAllocatorTagEEEEEE13ServiceObjectESP_E6Object12AddReferenceEv = 0x000addd8;
_ZN2nn2sf6detail39ObjectImplFactoryWithStatelessAllocatorINS0_4cmif6client16CmifProxyFactoryINS_7account7profile8IProfileENS4_15CmifDomainProxyINS0_4hipc6client38Hipc2ClientSessionManagedProxyKindBaseINSB_18Hipc2ProxyKindBaseILNSA_6detail11MessageTypeE4EEEEEEENS0_25StatelessAllocationPolicyINS0_22ExpHeapStaticAllocatorILm2048ENS6_6detail12ObjectHolder24ObjectHolderAllocatorTagEEEEEE13ServiceObjectESP_E6Object7ReleaseEv = 0x000adde0;
_ZN2nn2sf4cmif6client6detail13CmifProxyImplINS_7account7profile8IProfileENS2_15CmifDomainProxyINS0_4hipc6client38Hipc2ClientSessionManagedProxyKindBaseINSA_18Hipc2ProxyKindBaseILNS9_6detail11MessageTypeE4EEEEEEENS0_25StatelessAllocationPolicyINS0_22ExpHeapStaticAllocatorILm2048ENS5_6detail12ObjectHolder24ObjectHolderAllocatorTagEEEEES7_E12GetProxyInfoEv = 0x000ade54;
_ZN2nn2sf4cmif6client6detail13CmifProxyImplINS_7account7profile8IProfileENS2_15CmifDomainProxyINS0_4hipc6client38Hipc2ClientSessionManagedProxyKindBaseINSA_18Hipc2ProxyKindBaseILNS9_6detail11MessageTypeE4EEEEEEENS0_25StatelessAllocationPolicyINS0_22ExpHeapStaticAllocatorILm2048ENS5_6detail12ObjectHolder24ObjectHolderAllocatorTagEEEEES7_E15_nn_sf_sync_GetENS0_3OutINS6_11ProfileBaseEvEENSQ_INS6_8UserDataEvEE = 0x000ade5c;
_ZN2nn2sf4cmif6client6detail13CmifProxyImplINS_7account7profile8IProfileENS2_15CmifDomainProxyINS0_4hipc6client38Hipc2ClientSessionManagedProxyKindBaseINSA_18Hipc2ProxyKindBaseILNS9_6detail11MessageTypeE4EEEEEEENS0_25StatelessAllocationPolicyINS0_22ExpHeapStaticAllocatorILm2048ENS5_6detail12ObjectHolder24ObjectHolderAllocatorTagEEEEES7_E19_nn_sf_sync_GetBaseENS0_3OutINS6_11ProfileBaseEvEE = 0x000ade80;
_ZN2nn2sf4cmif6client6detail13CmifProxyImplINS_7account7profile8IProfileENS2_15CmifDomainProxyINS0_4hipc6client38Hipc2ClientSessionManagedProxyKindBaseINSA_18Hipc2ProxyKindBaseILNS9_6detail11MessageTypeE4EEEEEEENS0_25StatelessAllocationPolicyINS0_22ExpHeapStaticAllocatorILm2048ENS5_6detail12ObjectHolder24ObjectHolderAllocatorTagEEEEES7_E24_nn_sf_sync_GetImageSizeENS0_3OutIjvEE = 0x000adea0;
_ZN2nn2sf4cmif6client6detail13CmifProxyImplINS_7account7profile8IProfileENS2_15CmifDomainProxyINS0_4hipc6client38Hipc2ClientSessionManagedProxyKindBaseINSA_18Hipc2ProxyKindBaseILNS9_6detail11MessageTypeE4EEEEEEENS0_25StatelessAllocationPolicyINS0_22ExpHeapStaticAllocatorILm2048ENS5_6detail12ObjectHolder24ObjectHolderAllocatorTagEEEEES7_E21_nn_sf_sync_LoadImageENS0_3OutIjvEERKNS0_9OutBufferE = 0x000adec0;
_ZN2nn2sf4cmif6client6detail13CmifProxyImplINS_7account7profile8IProfileENS2_15CmifDomainProxyINS0_4hipc6client38Hipc2ClientSessionManagedProxyKindBaseINSA_18Hipc2ProxyKindBaseILNS9_6detail11MessageTypeE4EEEEEEENS0_25StatelessAllocationPolicyINS0_22ExpHeapStaticAllocatorILm2048ENS5_6detail12ObjectHolder24ObjectHolderAllocatorTagEEEEES7_E17GetCmifBaseObjectEv = 0x000adee8;
_ZThn32_N2nn2sf4cmif6client6detail13CmifProxyImplINS_7account7profile8IProfileENS2_15CmifDomainProxyINS0_4hipc6client38Hipc2ClientSessionManagedProxyKindBaseINSA_18Hipc2ProxyKindBaseILNS9_6detail11MessageTypeE4EEEEEEENS0_25StatelessAllocationPolicyINS0_22ExpHeapStaticAllocatorILm2048ENS5_6detail12ObjectHolder24ObjectHolderAllocatorTagEEEEES7_E17GetCmifBaseObjectEv = 0x000adef8;
_ZN2nn2sf4cmif6client34CmifDomainProxyClientCoreProcessorINS0_4hipc6client38Hipc2ClientSessionManagedProxyKindBaseINS5_18Hipc2ProxyKindBaseILNS4_6detail11MessageTypeE4EEEEENS1_6detail14CoreMethodInfoINSt3__15tupleIJNSC_18OutRawArgumentInfoILm56ELm8ELl0EEENSC_18BufferArgumentInfoILi0ELi26ELm128EEEEEELm0ELm56ELb0EEESK_E7ProcessEPNS2_23CmifDomainClientMessageISB_E15ProxyBaseObjectENS2_24OutRawClientArgumentTypeILm56ELm8EEENS2_24BufferClientArgumentTypeEj = 0x000adf00;
_ZN2nn2sf4cmif6client34CmifDomainProxyClientCoreProcessorINS0_4hipc6client38Hipc2ClientSessionManagedProxyKindBaseINS5_18Hipc2ProxyKindBaseILNS4_6detail11MessageTypeE4EEEEENS1_6detail14CoreMethodInfoINSt3__15tupleIJNSC_18OutRawArgumentInfoILm56ELm8ELl0EEEEEELm0ELm56ELb0EEESI_E7ProcessEPNS2_23CmifDomainClientMessageISB_E15ProxyBaseObjectENS2_24OutRawClientArgumentTypeILm56ELm8EEEj = 0x000ae0dc;
_ZN2nn2sf4cmif6client34CmifDomainProxyClientCoreProcessorINS0_4hipc6client38Hipc2ClientSessionManagedProxyKindBaseINS5_18Hipc2ProxyKindBaseILNS4_6detail11MessageTypeE4EEEEENS1_6detail14CoreMethodInfoINSt3__15tupleIJNSC_18OutRawArgumentInfoILm4ELm4ELl0EEENSC_18BufferArgumentInfoILi0ELi6ELm0EEEEEELm0ELm4ELb0EEESK_E7ProcessEPNS2_23CmifDomainClientMessageISB_E15ProxyBaseObjectENS2_24OutRawClientArgumentTypeILm4ELm4EEENS2_24BufferClientArgumentTypeEj = 0x000ae22c;
_ZN2nn2sf4cmif6client34CmifDomainProxyClientCoreProcessorINS0_4hipc6client38Hipc2ClientSessionManagedProxyKindBaseINS5_18Hipc2ProxyKindBaseILNS4_6detail11MessageTypeE4EEEEENS1_6detail14CoreMethodInfoINSt3__15tupleIJNSC_18OutRawArgumentInfoILm16ELm1ELl0EEENSC_17InRawArgumentInfoILm16ELm8ELl0EEEEEELm16ELm16ELb0EEESK_E7ProcessEPNS2_23CmifDomainClientMessageISB_E15ProxyBaseObjectENS2_24OutRawClientArgumentTypeILm16ELm1EEENS2_23InRawClientArgumentTypeILm16ELm8EvEEj = 0x000ae404;
_ZN2nn2sf4cmif6client34CmifDomainProxyClientCoreProcessorINS0_4hipc6client38Hipc2ClientSessionManagedProxyKindBaseINS5_18Hipc2ProxyKindBaseILNS4_6detail11MessageTypeE4EEEEENS1_6detail14CoreMethodInfoINSt3__15tupleIJNSC_18OutRawArgumentInfoILm1ELm1ELl0EEENSC_17InRawArgumentInfoILm8ELm8ELl0EEEEEELm8ELm1ELb1EEESK_E7ProcessEPNS2_23CmifDomainClientMessageISB_E15ProxyBaseObjectENS2_24OutRawClientArgumentTypeILm1ELm1EEENS2_23InRawClientArgumentTypeILm8ELm8EvEEj = 0x000ae570;
_ZN2nn2sf4cmif6client34CmifDomainProxyClientCoreProcessorINS0_4hipc6client38Hipc2ClientSessionManagedProxyKindBaseINS5_18Hipc2ProxyKindBaseILNS4_6detail11MessageTypeE4EEEEENS1_6detail14CoreMethodInfoINSt3__15tupleIJNSC_18OutRawArgumentInfoILm16ELm8ELl0EEENSC_17InRawArgumentInfoILm1ELm1ELl0EEEEEELm1ELm16ELb0EEESK_E7ProcessEPNS2_23CmifDomainClientMessageISB_E15ProxyBaseObjectENS2_24OutRawClientArgumentTypeILm16ELm8EEENS2_23InRawClientArgumentTypeILm1ELm1EvEEj = 0x000ae6d0;
_ZN2nn2sf4cmif6client32GetClientProcessorWithObjectBaseINS2_15CmifDomainProxyINS0_4hipc6client38Hipc2ClientSessionManagedProxyKindBaseINS6_18Hipc2ProxyKindBaseILNS5_6detail11MessageTypeE4EEEEEEEE14ObjectAssignerINS0_25StatelessAllocationPolicyINS0_22ExpHeapStaticAllocatorILm2048ENS_7account6detail12ObjectHolder24ObjectHolderAllocatorTagEEEEENS0_6detail23StatelessDummyAllocatorEE14AllocateObjectINSI_4baas22IManagerForApplicationEEEvi = 0x000ae830;
_ZN2nn2sf6detail39ObjectImplFactoryWithStatelessAllocatorINS0_4cmif6client16CmifProxyFactoryINS_7account4baas22IManagerForApplicationENS4_15CmifDomainProxyINS0_4hipc6client38Hipc2ClientSessionManagedProxyKindBaseINSB_18Hipc2ProxyKindBaseILNSA_6detail11MessageTypeE4EEEEEEENS0_25StatelessAllocationPolicyINS0_22ExpHeapStaticAllocatorILm2048ENS6_6detail12ObjectHolder24ObjectHolderAllocatorTagEEEEEE13ServiceObjectESP_E6Object12AddReferenceEv = 0x000ae8e4;
_ZN2nn2sf6detail39ObjectImplFactoryWithStatelessAllocatorINS0_4cmif6client16CmifProxyFactoryINS_7account4baas22IManagerForApplicationENS4_15CmifDomainProxyINS0_4hipc6client38Hipc2ClientSessionManagedProxyKindBaseINSB_18Hipc2ProxyKindBaseILNSA_6detail11MessageTypeE4EEEEEEENS0_25StatelessAllocationPolicyINS0_22ExpHeapStaticAllocatorILm2048ENS6_6detail12ObjectHolder24ObjectHolderAllocatorTagEEEEEE13ServiceObjectESP_E6Object7ReleaseEv = 0x000ae8ec;
_ZN2nn2sf4cmif6client6detail13CmifProxyImplINS_7account4baas12IManagerBaseENS2_15CmifDomainProxyINS0_4hipc6client38Hipc2ClientSessionManagedProxyKindBaseINSA_18Hipc2ProxyKindBaseILNS9_6detail11MessageTypeE4EEEEEEENS0_25StatelessAllocationPolicyINS0_22ExpHeapStaticAllocatorILm2048ENS5_6detail12ObjectHolder24ObjectHolderAllocatorTagEEEEENS6_22IManagerForApplicationEE12GetProxyInfoEv = 0x000ae960;
_ZN2nn2sf4cmif6client6detail13CmifProxyImplINS_7account4baas12IManagerBaseENS2_15CmifDomainProxyINS0_4hipc6client38Hipc2ClientSessionManagedProxyKindBaseINSA_18Hipc2ProxyKindBaseILNS9_6detail11MessageTypeE4EEEEEEENS0_25StatelessAllocationPolicyINS0_22ExpHeapStaticAllocatorILm2048ENS5_6detail12ObjectHolder24ObjectHolderAllocatorTagEEEEENS6_22IManagerForApplicationEE29_nn_sf_sync_CheckAvailabilityEv = 0x000ae968;
_ZN2nn2sf4cmif6client6detail13CmifProxyImplINS_7account4baas12IManagerBaseENS2_15CmifDomainProxyINS0_4hipc6client38Hipc2ClientSessionManagedProxyKindBaseINSA_18Hipc2ProxyKindBaseILNS9_6detail11MessageTypeE4EEEEEEENS0_25StatelessAllocationPolicyINS0_22ExpHeapStaticAllocatorILm2048ENS5_6detail12ObjectHolder24ObjectHolderAllocatorTagEEEEENS6_22IManagerForApplicationEE24_nn_sf_sync_GetAccountIdENS0_3OutINS5_23NetworkServiceAccountIdEvEE = 0x000ae988;
_ZN2nn2sf4cmif6client6detail13CmifProxyImplINS_7account4baas12IManagerBaseENS2_15CmifDomainProxyINS0_4hipc6client38Hipc2ClientSessionManagedProxyKindBaseINSA_18Hipc2ProxyKindBaseILNS9_6detail11MessageTypeE4EEEEEEENS0_25StatelessAllocationPolicyINS0_22ExpHeapStaticAllocatorILm2048ENS5_6detail12ObjectHolder24ObjectHolderAllocatorTagEEEEENS6_22IManagerForApplicationEE35_nn_sf_sync_EnsureIdTokenCacheAsyncENS0_3OutINS0_13SharedPointerINSK_13IAsyncContextEEEvEE = 0x000ae9a8;
_ZN2nn2sf4cmif6client6detail13CmifProxyImplINS_7account4baas12IManagerBaseENS2_15CmifDomainProxyINS0_4hipc6client38Hipc2ClientSessionManagedProxyKindBaseINSA_18Hipc2ProxyKindBaseILNS9_6detail11MessageTypeE4EEEEEEENS0_25StatelessAllocationPolicyINS0_22ExpHeapStaticAllocatorILm2048ENS5_6detail12ObjectHolder24ObjectHolderAllocatorTagEEEEENS6_22IManagerForApplicationEE28_nn_sf_sync_LoadIdTokenCacheENS0_3OutIjvEERKNS0_9OutBufferE = 0x000aea30;
_ZN2nn2sf4cmif6client6detail13CmifProxyImplINS_7account4baas22IManagerForApplicationENS2_15CmifDomainProxyINS0_4hipc6client38Hipc2ClientSessionManagedProxyKindBaseINSA_18Hipc2ProxyKindBaseILNS9_6detail11MessageTypeE4EEEEEEENS0_25StatelessAllocationPolicyINS0_22ExpHeapStaticAllocatorILm2048ENS5_6detail12ObjectHolder24ObjectHolderAllocatorTagEEEEES7_E61_nn_sf_sync_GetNintendoAccountUserResourceCacheForApplicationENS0_3OutINS5_17NintendoAccountIdEvEENSQ_INS5_3nas25NasUserBaseForApplicationEvEERKNS0_9OutBufferE = 0x000aea58;
_ZN2nn2sf4cmif6client6detail13CmifProxyImplINS_7account4baas22IManagerForApplicationENS2_15CmifDomainProxyINS0_4hipc6client38Hipc2ClientSessionManagedProxyKindBaseINSA_18Hipc2ProxyKindBaseILNS9_6detail11MessageTypeE4EEEEEEENS0_25StatelessAllocationPolicyINS0_22ExpHeapStaticAllocatorILm2048ENS5_6detail12ObjectHolder24ObjectHolderAllocatorTagEEEEES7_E38_nn_sf_sync_CreateAuthorizationRequestENS0_3OutINS0_13SharedPointerINS5_3nas21IAuthorizationRequestEEEvEERKNS5_45NintendoAccountAuthorizationRequestParametersEONS0_12NativeHandleEj = 0x000aea80;
_ZN2nn2sf4cmif6client6detail13CmifProxyImplINS_7account4baas12IManagerBaseENS2_15CmifDomainProxyINS0_4hipc6client38Hipc2ClientSessionManagedProxyKindBaseINSA_18Hipc2ProxyKindBaseILNS9_6detail11MessageTypeE4EEEEEEENS0_25StatelessAllocationPolicyINS0_22ExpHeapStaticAllocatorILm2048ENS5_6detail12ObjectHolder24ObjectHolderAllocatorTagEEEEENS6_22IManagerForApplicationEE17GetCmifBaseObjectEv = 0x000aeb30;
_ZThn32_N2nn2sf4cmif6client6detail13CmifProxyImplINS_7account4baas12IManagerBaseENS2_15CmifDomainProxyINS0_4hipc6client38Hipc2ClientSessionManagedProxyKindBaseINSA_18Hipc2ProxyKindBaseILNS9_6detail11MessageTypeE4EEEEEEENS0_25StatelessAllocationPolicyINS0_22ExpHeapStaticAllocatorILm2048ENS5_6detail12ObjectHolder24ObjectHolderAllocatorTagEEEEENS6_22IManagerForApplicationEE17GetCmifBaseObjectEv = 0x000aeb40;
_ZN2nn2sf4cmif6client32GetClientProcessorWithObjectBaseINS2_15CmifDomainProxyINS0_4hipc6client38Hipc2ClientSessionManagedProxyKindBaseINS6_18Hipc2ProxyKindBaseILNS5_6detail11MessageTypeE4EEEEEEEE14ObjectAssignerINS0_25StatelessAllocationPolicyINS0_22ExpHeapStaticAllocatorILm2048ENS_7account6detail12ObjectHolder24ObjectHolderAllocatorTagEEEEENS0_6detail23StatelessDummyAllocatorEE14AllocateObjectINSJ_13IAsyncContextEEEvi = 0x000aeb48;
_ZN2nn2sf6detail39ObjectImplFactoryWithStatelessAllocatorINS0_4cmif6client16CmifProxyFactoryINS_7account6detail13IAsyncContextENS4_15CmifDomainProxyINS0_4hipc6client38Hipc2ClientSessionManagedProxyKindBaseINSB_18Hipc2ProxyKindBaseILNSA_6detail11MessageTypeE4EEEEEEENS0_25StatelessAllocationPolicyINS0_22ExpHeapStaticAllocatorILm2048ENS7_12ObjectHolder24ObjectHolderAllocatorTagEEEEEE13ServiceObjectESO_E6Object12AddReferenceEv = 0x000aebfc;
_ZN2nn2sf6detail39ObjectImplFactoryWithStatelessAllocatorINS0_4cmif6client16CmifProxyFactoryINS_7account6detail13IAsyncContextENS4_15CmifDomainProxyINS0_4hipc6client38Hipc2ClientSessionManagedProxyKindBaseINSB_18Hipc2ProxyKindBaseILNSA_6detail11MessageTypeE4EEEEEEENS0_25StatelessAllocationPolicyINS0_22ExpHeapStaticAllocatorILm2048ENS7_12ObjectHolder24ObjectHolderAllocatorTagEEEEEE13ServiceObjectESO_E6Object7ReleaseEv = 0x000aec04;
_ZN2nn2sf4cmif6client6detail13CmifProxyImplINS_7account6detail13IAsyncContextENS2_15CmifDomainProxyINS0_4hipc6client38Hipc2ClientSessionManagedProxyKindBaseINSA_18Hipc2ProxyKindBaseILNS9_6detail11MessageTypeE4EEEEEEENS0_25StatelessAllocationPolicyINS0_22ExpHeapStaticAllocatorILm2048ENS6_12ObjectHolder24ObjectHolderAllocatorTagEEEEES7_E12GetProxyInfoEv = 0x000aec78;
_ZN2nn2sf4cmif6client6detail13CmifProxyImplINS_7account6detail13IAsyncContextENS2_15CmifDomainProxyINS0_4hipc6client38Hipc2ClientSessionManagedProxyKindBaseINSA_18Hipc2ProxyKindBaseILNS9_6detail11MessageTypeE4EEEEEEENS0_25StatelessAllocationPolicyINS0_22ExpHeapStaticAllocatorILm2048ENS6_12ObjectHolder24ObjectHolderAllocatorTagEEEEES7_E26_nn_sf_sync_GetSystemEventENS0_3OutINS0_12NativeHandleEvEE = 0x000aec80;
_ZN2nn2sf4cmif6client6detail13CmifProxyImplINS_7account6detail13IAsyncContextENS2_15CmifDomainProxyINS0_4hipc6client38Hipc2ClientSessionManagedProxyKindBaseINSA_18Hipc2ProxyKindBaseILNS9_6detail11MessageTypeE4EEEEEEENS0_25StatelessAllocationPolicyINS0_22ExpHeapStaticAllocatorILm2048ENS6_12ObjectHolder24ObjectHolderAllocatorTagEEEEES7_E18_nn_sf_sync_CancelEv = 0x000aeca0;
_ZN2nn2sf4cmif6client6detail13CmifProxyImplINS_7account6detail13IAsyncContextENS2_15CmifDomainProxyINS0_4hipc6client38Hipc2ClientSessionManagedProxyKindBaseINSA_18Hipc2ProxyKindBaseILNS9_6detail11MessageTypeE4EEEEEEENS0_25StatelessAllocationPolicyINS0_22ExpHeapStaticAllocatorILm2048ENS6_12ObjectHolder24ObjectHolderAllocatorTagEEEEES7_E19_nn_sf_sync_HasDoneENS0_3OutIbvEE = 0x000aecc0;
_ZN2nn2sf4cmif6client6detail13CmifProxyImplINS_7account6detail13IAsyncContextENS2_15CmifDomainProxyINS0_4hipc6client38Hipc2ClientSessionManagedProxyKindBaseINSA_18Hipc2ProxyKindBaseILNS9_6detail11MessageTypeE4EEEEEEENS0_25StatelessAllocationPolicyINS0_22ExpHeapStaticAllocatorILm2048ENS6_12ObjectHolder24ObjectHolderAllocatorTagEEEEES7_E21_nn_sf_sync_GetResultEv = 0x000aece0;
_ZN2nn2sf4cmif6client6detail13CmifProxyImplINS_7account6detail13IAsyncContextENS2_15CmifDomainProxyINS0_4hipc6client38Hipc2ClientSessionManagedProxyKindBaseINSA_18Hipc2ProxyKindBaseILNS9_6detail11MessageTypeE4EEEEEEENS0_25StatelessAllocationPolicyINS0_22ExpHeapStaticAllocatorILm2048ENS6_12ObjectHolder24ObjectHolderAllocatorTagEEEEES7_E17GetCmifBaseObjectEv = 0x000aed00;
_ZThn32_N2nn2sf4cmif6client6detail13CmifProxyImplINS_7account6detail13IAsyncContextENS2_15CmifDomainProxyINS0_4hipc6client38Hipc2ClientSessionManagedProxyKindBaseINSA_18Hipc2ProxyKindBaseILNS9_6detail11MessageTypeE4EEEEEEENS0_25StatelessAllocationPolicyINS0_22ExpHeapStaticAllocatorILm2048ENS6_12ObjectHolder24ObjectHolderAllocatorTagEEEEES7_E17GetCmifBaseObjectEv = 0x000aed10;
_ZN2nn2sf4cmif6client34CmifDomainProxyClientCoreProcessorINS0_4hipc6client38Hipc2ClientSessionManagedProxyKindBaseINS5_18Hipc2ProxyKindBaseILNS4_6detail11MessageTypeE4EEEEENS1_6detail14CoreMethodInfoINSt3__15tupleIJNSC_18OutRawArgumentInfoILm8ELm8ELl0EEENSC_18BufferArgumentInfoILi0ELi26ELm104EEENSI_ILi1ELi6ELm0EEEEEELm0ELm8ELb0EEESL_E7ProcessEPNS2_23CmifDomainClientMessageISB_E15ProxyBaseObjectENS2_24OutRawClientArgumentTypeILm8ELm8EEENS2_24BufferClientArgumentTypeESU_j = 0x000aed18;
_ZN2nn2sf4cmif6client34CmifDomainProxyClientCoreProcessorINS0_4hipc6client38Hipc2ClientSessionManagedProxyKindBaseINS5_18Hipc2ProxyKindBaseILNS4_6detail11MessageTypeE4EEEEENS1_6detail14CoreMethodInfoINSt3__15tupleIJNSC_21OutObjectArgumentInfoILi0ELi0EEENSC_18BufferArgumentInfoILi0ELi25ELm512EEENSC_20InHandleArgumentInfoILi0ELi1EEENSC_17InRawArgumentInfoILm4ELm4ELl0EEEEEELm4ELm0ELb0EEESO_E21ProcessWithOutObjectsEPNS2_23CmifDomainClientMessageISB_E15ProxyBaseObjectENS2_27OutObjectClientArgumentTypeENS2_24BufferClientArgumentTypeENS2_26InHandleClientArgumentTypeENS2_23InRawClientArgumentTypeILm4ELm4EvEEjPNS0_13SharedPointerINS0_14IServiceObjectEEE = 0x000aef04;
_ZN2nn2sf4cmif6client32GetClientProcessorWithObjectBaseINS2_15CmifDomainProxyINS0_4hipc6client38Hipc2ClientSessionManagedProxyKindBaseINS6_18Hipc2ProxyKindBaseILNS5_6detail11MessageTypeE4EEEEEEEE14ObjectAssignerINS0_25StatelessAllocationPolicyINS0_22ExpHeapStaticAllocatorILm2048ENS_7account6detail12ObjectHolder24ObjectHolderAllocatorTagEEEEENS0_6detail23StatelessDummyAllocatorEE14AllocateObjectINSI_3nas21IAuthorizationRequestEEEvi = 0x000af19c;
_ZN2nn2sf6detail39ObjectImplFactoryWithStatelessAllocatorINS0_4cmif6client16CmifProxyFactoryINS_7account3nas21IAuthorizationRequestENS4_15CmifDomainProxyINS0_4hipc6client38Hipc2ClientSessionManagedProxyKindBaseINSB_18Hipc2ProxyKindBaseILNSA_6detail11MessageTypeE4EEEEEEENS0_25StatelessAllocationPolicyINS0_22ExpHeapStaticAllocatorILm2048ENS6_6detail12ObjectHolder24ObjectHolderAllocatorTagEEEEEE13ServiceObjectESP_E6Object12AddReferenceEv = 0x000af250;
_ZN2nn2sf6detail39ObjectImplFactoryWithStatelessAllocatorINS0_4cmif6client16CmifProxyFactoryINS_7account3nas21IAuthorizationRequestENS4_15CmifDomainProxyINS0_4hipc6client38Hipc2ClientSessionManagedProxyKindBaseINSB_18Hipc2ProxyKindBaseILNSA_6detail11MessageTypeE4EEEEEEENS0_25StatelessAllocationPolicyINS0_22ExpHeapStaticAllocatorILm2048ENS6_6detail12ObjectHolder24ObjectHolderAllocatorTagEEEEEE13ServiceObjectESP_E6Object7ReleaseEv = 0x000af258;
_ZN2nn2sf4cmif6client6detail13CmifProxyImplINS_7account3nas21IAuthorizationRequestENS2_15CmifDomainProxyINS0_4hipc6client38Hipc2ClientSessionManagedProxyKindBaseINSA_18Hipc2ProxyKindBaseILNS9_6detail11MessageTypeE4EEEEEEENS0_25StatelessAllocationPolicyINS0_22ExpHeapStaticAllocatorILm2048ENS5_6detail12ObjectHolder24ObjectHolderAllocatorTagEEEEES7_E12GetProxyInfoEv = 0x000af2cc;
_ZN2nn2sf4cmif6client6detail13CmifProxyImplINS_7account3nas21IAuthorizationRequestENS2_15CmifDomainProxyINS0_4hipc6client38Hipc2ClientSessionManagedProxyKindBaseINSA_18Hipc2ProxyKindBaseILNS9_6detail11MessageTypeE4EEEEEEENS0_25StatelessAllocationPolicyINS0_22ExpHeapStaticAllocatorILm2048ENS5_6detail12ObjectHolder24ObjectHolderAllocatorTagEEEEES7_E24_nn_sf_sync_GetSessionIdENS0_3OutINSK_4UuidEvEE = 0x000af2d4;
_ZN2nn2sf4cmif6client6detail13CmifProxyImplINS_7account3nas21IAuthorizationRequestENS2_15CmifDomainProxyINS0_4hipc6client38Hipc2ClientSessionManagedProxyKindBaseINSA_18Hipc2ProxyKindBaseILNS9_6detail11MessageTypeE4EEEEEEENS0_25StatelessAllocationPolicyINS0_22ExpHeapStaticAllocatorILm2048ENS5_6detail12ObjectHolder24ObjectHolderAllocatorTagEEEEES7_E41_nn_sf_sync_InvokeWithoutInteractionAsyncENS0_3OutINS0_13SharedPointerINSK_13IAsyncContextEEEvEE = 0x000af2f4;
_ZN2nn2sf4cmif6client6detail13CmifProxyImplINS_7account3nas21IAuthorizationRequestENS2_15CmifDomainProxyINS0_4hipc6client38Hipc2ClientSessionManagedProxyKindBaseINSA_18Hipc2ProxyKindBaseILNS9_6detail11MessageTypeE4EEEEEEENS0_25StatelessAllocationPolicyINS0_22ExpHeapStaticAllocatorILm2048ENS5_6detail12ObjectHolder24ObjectHolderAllocatorTagEEEEES7_E24_nn_sf_sync_IsAuthorizedENS0_3OutIbvEE = 0x000af37c;
_ZN2nn2sf4cmif6client6detail13CmifProxyImplINS_7account3nas21IAuthorizationRequestENS2_15CmifDomainProxyINS0_4hipc6client38Hipc2ClientSessionManagedProxyKindBaseINSA_18Hipc2ProxyKindBaseILNS9_6detail11MessageTypeE4EEEEEEENS0_25StatelessAllocationPolicyINS0_22ExpHeapStaticAllocatorILm2048ENS5_6detail12ObjectHolder24ObjectHolderAllocatorTagEEEEES7_E32_nn_sf_sync_GetAuthorizationCodeENS0_3OutIjvEERKNS0_9OutBufferE = 0x000af39c;
_ZN2nn2sf4cmif6client6detail13CmifProxyImplINS_7account3nas21IAuthorizationRequestENS2_15CmifDomainProxyINS0_4hipc6client38Hipc2ClientSessionManagedProxyKindBaseINSA_18Hipc2ProxyKindBaseILNS9_6detail11MessageTypeE4EEEEEEENS0_25StatelessAllocationPolicyINS0_22ExpHeapStaticAllocatorILm2048ENS5_6detail12ObjectHolder24ObjectHolderAllocatorTagEEEEES7_E22_nn_sf_sync_GetIdTokenENS0_3OutIjvEERKNS0_9OutBufferE = 0x000af3c4;
_ZN2nn2sf4cmif6client6detail13CmifProxyImplINS_7account3nas21IAuthorizationRequestENS2_15CmifDomainProxyINS0_4hipc6client38Hipc2ClientSessionManagedProxyKindBaseINSA_18Hipc2ProxyKindBaseILNS9_6detail11MessageTypeE4EEEEEEENS0_25StatelessAllocationPolicyINS0_22ExpHeapStaticAllocatorILm2048ENS5_6detail12ObjectHolder24ObjectHolderAllocatorTagEEEEES7_E20_nn_sf_sync_GetStateENS0_3OutINS6_5StateEvEE = 0x000af3ec;
_ZN2nn2sf4cmif6client6detail13CmifProxyImplINS_7account3nas21IAuthorizationRequestENS2_15CmifDomainProxyINS0_4hipc6client38Hipc2ClientSessionManagedProxyKindBaseINSA_18Hipc2ProxyKindBaseILNS9_6detail11MessageTypeE4EEEEEEENS0_25StatelessAllocationPolicyINS0_22ExpHeapStaticAllocatorILm2048ENS5_6detail12ObjectHolder24ObjectHolderAllocatorTagEEEEES7_E17GetCmifBaseObjectEv = 0x000af410;
_ZThn32_N2nn2sf4cmif6client6detail13CmifProxyImplINS_7account3nas21IAuthorizationRequestENS2_15CmifDomainProxyINS0_4hipc6client38Hipc2ClientSessionManagedProxyKindBaseINSA_18Hipc2ProxyKindBaseILNS9_6detail11MessageTypeE4EEEEEEENS0_25StatelessAllocationPolicyINS0_22ExpHeapStaticAllocatorILm2048ENS5_6detail12ObjectHolder24ObjectHolderAllocatorTagEEEEES7_E17GetCmifBaseObjectEv = 0x000af420;
_ZN2nn2sf4cmif6client34CmifDomainProxyClientCoreProcessorINS0_4hipc6client38Hipc2ClientSessionManagedProxyKindBaseINS5_18Hipc2ProxyKindBaseILNS4_6detail11MessageTypeE4EEEEENS1_6detail14CoreMethodInfoINSt3__15tupleIJNSC_18OutRawArgumentInfoILm16ELm4ELl0EEEEEELm0ELm16ELb0EEESI_E7ProcessEPNS2_23CmifDomainClientMessageISB_E15ProxyBaseObjectENS2_24OutRawClientArgumentTypeILm16ELm4EEEj = 0x000af428;
_ZN2nn2sf4cmif6client34CmifDomainProxyClientCoreProcessorINS0_4hipc6client38Hipc2ClientSessionManagedProxyKindBaseINS5_18Hipc2ProxyKindBaseILNS4_6detail11MessageTypeE4EEEEENS1_6detail14CoreMethodInfoINSt3__15tupleIJNSC_18BufferArgumentInfoILi0ELi26ELm128EEEEEELm0ELm0ELb0EEESI_E7ProcessEPNS2_23CmifDomainClientMessageISB_E15ProxyBaseObjectENS2_24BufferClientArgumentTypeEj = 0x000af578;
_ZN2nn2sf4cmif6client34CmifDomainProxyClientCoreProcessorINS0_4hipc6client38Hipc2ClientSessionManagedProxyKindBaseINS5_18Hipc2ProxyKindBaseILNS4_6detail11MessageTypeE4EEEEENS1_6detail14CoreMethodInfoINSt3__15tupleIJNSC_17InRawArgumentInfoILm16ELm8ELl0EEENSC_18BufferArgumentInfoILi0ELi5ELm0EEEEEELm16ELm0ELb0EEESK_E7ProcessEPNS2_23CmifDomainClientMessageISB_E15ProxyBaseObjectENS2_23InRawClientArgumentTypeILm16ELm8EvEENS2_24BufferClientArgumentTypeEj = 0x000af730;
_ZN2nn2sf4cmif6client34CmifDomainProxyClientCoreProcessorINS0_4hipc6client38Hipc2ClientSessionManagedProxyKindBaseINS5_18Hipc2ProxyKindBaseILNS4_6detail11MessageTypeE4EEEEENS1_6detail14CoreMethodInfoINSt3__15tupleIJNSC_17InRawArgumentInfoILm16ELm8ELl0EEEEEELm16ELm0ELb0EEESI_E7ProcessEPNS2_23CmifDomainClientMessageISB_E15ProxyBaseObjectENS2_23InRawClientArgumentTypeILm16ELm8EvEEj = 0x000af908;
_ZN2nn2sf4cmif6client34CmifDomainProxyClientCoreProcessorINS0_4hipc6client38Hipc2ClientSessionManagedProxyKindBaseINS5_18Hipc2ProxyKindBaseILNS4_6detail11MessageTypeE4EEEEENS1_6detail14CoreMethodInfoINSt3__15tupleIJNSC_21OutObjectArgumentInfoILi0ELi0EEENSC_20InHandleArgumentInfoILi0ELi1EEENSC_17InRawArgumentInfoILm4ELm4ELl0EEEEEELm4ELm0ELb0EEESM_E21ProcessWithOutObjectsEPNS2_23CmifDomainClientMessageISB_E15ProxyBaseObjectENS2_27OutObjectClientArgumentTypeENS2_26InHandleClientArgumentTypeENS2_23InRawClientArgumentTypeILm4ELm4EvEEjPNS0_13SharedPointerINS0_14IServiceObjectEEE = 0x000afa50;
_ZN2nn2sf4cmif6client32GetClientProcessorWithObjectBaseINS2_15CmifDomainProxyINS0_4hipc6client38Hipc2ClientSessionManagedProxyKindBaseINS6_18Hipc2ProxyKindBaseILNS5_6detail11MessageTypeE4EEEEEEEE14ObjectAssignerINS0_25StatelessAllocationPolicyINS0_22ExpHeapStaticAllocatorILm2048ENS_7account6detail12ObjectHolder24ObjectHolderAllocatorTagEEEEENS0_6detail23StatelessDummyAllocatorEE14AllocateObjectINSI_4baas18IGuestLoginRequestEEEvi = 0x000afc54;
_ZN2nn2sf6detail39ObjectImplFactoryWithStatelessAllocatorINS0_4cmif6client16CmifProxyFactoryINS_7account4baas18IGuestLoginRequestENS4_15CmifDomainProxyINS0_4hipc6client38Hipc2ClientSessionManagedProxyKindBaseINSB_18Hipc2ProxyKindBaseILNSA_6detail11MessageTypeE4EEEEEEENS0_25StatelessAllocationPolicyINS0_22ExpHeapStaticAllocatorILm2048ENS6_6detail12ObjectHolder24ObjectHolderAllocatorTagEEEEEE13ServiceObjectESP_E6Object12AddReferenceEv = 0x000afd08;
_ZN2nn2sf6detail39ObjectImplFactoryWithStatelessAllocatorINS0_4cmif6client16CmifProxyFactoryINS_7account4baas18IGuestLoginRequestENS4_15CmifDomainProxyINS0_4hipc6client38Hipc2ClientSessionManagedProxyKindBaseINSB_18Hipc2ProxyKindBaseILNSA_6detail11MessageTypeE4EEEEEEENS0_25StatelessAllocationPolicyINS0_22ExpHeapStaticAllocatorILm2048ENS6_6detail12ObjectHolder24ObjectHolderAllocatorTagEEEEEE13ServiceObjectESP_E6Object7ReleaseEv = 0x000afd10;
_ZN2nn2sf4cmif6client6detail13CmifProxyImplINS_7account4baas18IGuestLoginRequestENS2_15CmifDomainProxyINS0_4hipc6client38Hipc2ClientSessionManagedProxyKindBaseINSA_18Hipc2ProxyKindBaseILNS9_6detail11MessageTypeE4EEEEEEENS0_25StatelessAllocationPolicyINS0_22ExpHeapStaticAllocatorILm2048ENS5_6detail12ObjectHolder24ObjectHolderAllocatorTagEEEEES7_E12GetProxyInfoEv = 0x000afd84;
_ZN2nn2sf4cmif6client6detail13CmifProxyImplINS_7account4baas18IGuestLoginRequestENS2_15CmifDomainProxyINS0_4hipc6client38Hipc2ClientSessionManagedProxyKindBaseINSA_18Hipc2ProxyKindBaseILNS9_6detail11MessageTypeE4EEEEEEENS0_25StatelessAllocationPolicyINS0_22ExpHeapStaticAllocatorILm2048ENS5_6detail12ObjectHolder24ObjectHolderAllocatorTagEEEEES7_E24_nn_sf_sync_GetSessionIdENS0_3OutINSK_4UuidEvEE = 0x000afd8c;
_ZN2nn2sf4cmif6client6detail13CmifProxyImplINS_7account4baas18IGuestLoginRequestENS2_15CmifDomainProxyINS0_4hipc6client38Hipc2ClientSessionManagedProxyKindBaseINSA_18Hipc2ProxyKindBaseILNS9_6detail11MessageTypeE4EEEEEEENS0_25StatelessAllocationPolicyINS0_22ExpHeapStaticAllocatorILm2048ENS5_6detail12ObjectHolder24ObjectHolderAllocatorTagEEEEES7_E24_nn_sf_sync_GetAccountIdENS0_3OutINS5_23NetworkServiceAccountIdEvEE = 0x000afdac;
_ZN2nn2sf4cmif6client6detail13CmifProxyImplINS_7account4baas18IGuestLoginRequestENS2_15CmifDomainProxyINS0_4hipc6client38Hipc2ClientSessionManagedProxyKindBaseINSA_18Hipc2ProxyKindBaseILNS9_6detail11MessageTypeE4EEEEEEENS0_25StatelessAllocationPolicyINS0_22ExpHeapStaticAllocatorILm2048ENS5_6detail12ObjectHolder24ObjectHolderAllocatorTagEEEEES7_E38_nn_sf_sync_GetLinkedNintendoAccountIdENS0_3OutINS5_17NintendoAccountIdEvEE = 0x000afdcc;
_ZN2nn2sf4cmif6client6detail13CmifProxyImplINS_7account4baas18IGuestLoginRequestENS2_15CmifDomainProxyINS0_4hipc6client38Hipc2ClientSessionManagedProxyKindBaseINSA_18Hipc2ProxyKindBaseILNS9_6detail11MessageTypeE4EEEEEEENS0_25StatelessAllocationPolicyINS0_22ExpHeapStaticAllocatorILm2048ENS5_6detail12ObjectHolder24ObjectHolderAllocatorTagEEEEES7_E23_nn_sf_sync_GetNicknameERKNS0_8OutArrayIcEE = 0x000afdec;
_ZN2nn2sf4cmif6client6detail13CmifProxyImplINS_7account4baas18IGuestLoginRequestENS2_15CmifDomainProxyINS0_4hipc6client38Hipc2ClientSessionManagedProxyKindBaseINSA_18Hipc2ProxyKindBaseILNS9_6detail11MessageTypeE4EEEEEEENS0_25StatelessAllocationPolicyINS0_22ExpHeapStaticAllocatorILm2048ENS5_6detail12ObjectHolder24ObjectHolderAllocatorTagEEEEES7_E27_nn_sf_sync_GetProfileImageENS0_3OutIjvEERKNS0_9OutBufferE = 0x000afe14;
_ZN2nn2sf4cmif6client6detail13CmifProxyImplINS_7account4baas18IGuestLoginRequestENS2_15CmifDomainProxyINS0_4hipc6client38Hipc2ClientSessionManagedProxyKindBaseINSA_18Hipc2ProxyKindBaseILNS9_6detail11MessageTypeE4EEEEEEENS0_25StatelessAllocationPolicyINS0_22ExpHeapStaticAllocatorILm2048ENS5_6detail12ObjectHolder24ObjectHolderAllocatorTagEEEEES7_E28_nn_sf_sync_LoadIdTokenCacheENS0_3OutIjvEERKNS0_9OutBufferE = 0x000afe3c;
_ZN2nn2sf4cmif6client6detail13CmifProxyImplINS_7account4baas18IGuestLoginRequestENS2_15CmifDomainProxyINS0_4hipc6client38Hipc2ClientSessionManagedProxyKindBaseINSA_18Hipc2ProxyKindBaseILNS9_6detail11MessageTypeE4EEEEEEENS0_25StatelessAllocationPolicyINS0_22ExpHeapStaticAllocatorILm2048ENS5_6detail12ObjectHolder24ObjectHolderAllocatorTagEEEEES7_E17GetCmifBaseObjectEv = 0x000afe64;
_ZThn32_N2nn2sf4cmif6client6detail13CmifProxyImplINS_7account4baas18IGuestLoginRequestENS2_15CmifDomainProxyINS0_4hipc6client38Hipc2ClientSessionManagedProxyKindBaseINSA_18Hipc2ProxyKindBaseILNS9_6detail11MessageTypeE4EEEEEEENS0_25StatelessAllocationPolicyINS0_22ExpHeapStaticAllocatorILm2048ENS5_6detail12ObjectHolder24ObjectHolderAllocatorTagEEEEES7_E17GetCmifBaseObjectEv = 0x000afe74;
_ZN2nn7account6detail12ObjectHolder11AcquireImplINS0_31IAccountServiceForSystemServiceEEENS_6ResultEPPT_PKc = 0x000afe7c;
_ZN2nn2sf4hipc6client34HipcSimpleClientSessionManagerBase4Impl18InitializeByHandleINS_7account31IAccountServiceForSystemServiceENS0_25StatelessAllocationPolicyINS0_22ExpHeapStaticAllocatorILm2048ENS6_6detail12ObjectHolder24ObjectHolderAllocatorTagEEEEEEENS_6ResultEPNS0_13SharedPointerIT_EENS_3svc6HandleE = 0x000aff74;
_ZN2nn2sf6detail39ObjectImplFactoryWithStatelessAllocatorINS0_4cmif6client16CmifProxyFactoryINS_7account31IAccountServiceForSystemServiceENS4_15CmifDomainProxyINS0_4hipc6client38Hipc2ClientSessionManagedProxyKindBaseINSA_18Hipc2ProxyKindBaseILNS9_6detail11MessageTypeE4EEEEEEENS0_25StatelessAllocationPolicyINS0_22ExpHeapStaticAllocatorILm2048ENS6_6detail12ObjectHolder24ObjectHolderAllocatorTagEEEEEE13ServiceObjectESO_E6Object12AddReferenceEv = 0x000b0088;
_ZN2nn2sf6detail39ObjectImplFactoryWithStatelessAllocatorINS0_4cmif6client16CmifProxyFactoryINS_7account31IAccountServiceForSystemServiceENS4_15CmifDomainProxyINS0_4hipc6client38Hipc2ClientSessionManagedProxyKindBaseINSA_18Hipc2ProxyKindBaseILNS9_6detail11MessageTypeE4EEEEEEENS0_25StatelessAllocationPolicyINS0_22ExpHeapStaticAllocatorILm2048ENS6_6detail12ObjectHolder24ObjectHolderAllocatorTagEEEEEE13ServiceObjectESO_E6Object7ReleaseEv = 0x000b0090;
_ZN2nn2sf4cmif6client6detail13CmifProxyImplINS_7account19IAccountServiceBaseENS2_15CmifDomainProxyINS0_4hipc6client38Hipc2ClientSessionManagedProxyKindBaseINS9_18Hipc2ProxyKindBaseILNS8_6detail11MessageTypeE4EEEEEEENS0_25StatelessAllocationPolicyINS0_22ExpHeapStaticAllocatorILm2048ENS5_6detail12ObjectHolder24ObjectHolderAllocatorTagEEEEENS5_31IAccountServiceForSystemServiceEE12GetProxyInfoEv = 0x000b0104;
_ZN2nn2sf4cmif6client6detail13CmifProxyImplINS_7account19IAccountServiceBaseENS2_15CmifDomainProxyINS0_4hipc6client38Hipc2ClientSessionManagedProxyKindBaseINS9_18Hipc2ProxyKindBaseILNS8_6detail11MessageTypeE4EEEEEEENS0_25StatelessAllocationPolicyINS0_22ExpHeapStaticAllocatorILm2048ENS5_6detail12ObjectHolder24ObjectHolderAllocatorTagEEEEENS5_31IAccountServiceForSystemServiceEE24_nn_sf_sync_GetUserCountENS0_3OutIivEE = 0x000b010c;
_ZN2nn2sf4cmif6client6detail13CmifProxyImplINS_7account19IAccountServiceBaseENS2_15CmifDomainProxyINS0_4hipc6client38Hipc2ClientSessionManagedProxyKindBaseINS9_18Hipc2ProxyKindBaseILNS8_6detail11MessageTypeE4EEEEEEENS0_25StatelessAllocationPolicyINS0_22ExpHeapStaticAllocatorILm2048ENS5_6detail12ObjectHolder24ObjectHolderAllocatorTagEEEEENS5_31IAccountServiceForSystemServiceEE28_nn_sf_sync_GetUserExistenceENS0_3OutIbvEERKNS5_3UidE = 0x000b012c;
_ZN2nn2sf4cmif6client6detail13CmifProxyImplINS_7account19IAccountServiceBaseENS2_15CmifDomainProxyINS0_4hipc6client38Hipc2ClientSessionManagedProxyKindBaseINS9_18Hipc2ProxyKindBaseILNS8_6detail11MessageTypeE4EEEEEEENS0_25StatelessAllocationPolicyINS0_22ExpHeapStaticAllocatorILm2048ENS5_6detail12ObjectHolder24ObjectHolderAllocatorTagEEEEENS5_31IAccountServiceForSystemServiceEE24_nn_sf_sync_ListAllUsersERKNS0_8OutArrayINS5_3UidEEE = 0x000b014c;
_ZN2nn2sf4cmif6client6detail13CmifProxyImplINS_7account19IAccountServiceBaseENS2_15CmifDomainProxyINS0_4hipc6client38Hipc2ClientSessionManagedProxyKindBaseINS9_18Hipc2ProxyKindBaseILNS8_6detail11MessageTypeE4EEEEEEENS0_25StatelessAllocationPolicyINS0_22ExpHeapStaticAllocatorILm2048ENS5_6detail12ObjectHolder24ObjectHolderAllocatorTagEEEEENS5_31IAccountServiceForSystemServiceEE25_nn_sf_sync_ListOpenUsersERKNS0_8OutArrayINS5_3UidEEE = 0x000b0178;
_ZN2nn2sf4cmif6client6detail13CmifProxyImplINS_7account19IAccountServiceBaseENS2_15CmifDomainProxyINS0_4hipc6client38Hipc2ClientSessionManagedProxyKindBaseINS9_18Hipc2ProxyKindBaseILNS8_6detail11MessageTypeE4EEEEEEENS0_25StatelessAllocationPolicyINS0_22ExpHeapStaticAllocatorILm2048ENS5_6detail12ObjectHolder24ObjectHolderAllocatorTagEEEEENS5_31IAccountServiceForSystemServiceEE29_nn_sf_sync_GetLastOpenedUserENS0_3OutINS5_3UidEvEE = 0x000b01a4;
_ZN2nn2sf4cmif6client6detail13CmifProxyImplINS_7account19IAccountServiceBaseENS2_15CmifDomainProxyINS0_4hipc6client38Hipc2ClientSessionManagedProxyKindBaseINS9_18Hipc2ProxyKindBaseILNS8_6detail11MessageTypeE4EEEEEEENS0_25StatelessAllocationPolicyINS0_22ExpHeapStaticAllocatorILm2048ENS5_6detail12ObjectHolder24ObjectHolderAllocatorTagEEEEENS5_31IAccountServiceForSystemServiceEE22_nn_sf_sync_GetProfileENS0_3OutINS0_13SharedPointerINS5_7profile8IProfileEEEvEERKNS5_3UidE = 0x000b01c4;
_ZN2nn2sf4cmif6client6detail13CmifProxyImplINS_7account19IAccountServiceBaseENS2_15CmifDomainProxyINS0_4hipc6client38Hipc2ClientSessionManagedProxyKindBaseINS9_18Hipc2ProxyKindBaseILNS8_6detail11MessageTypeE4EEEEEEENS0_25StatelessAllocationPolicyINS0_22ExpHeapStaticAllocatorILm2048ENS5_6detail12ObjectHolder24ObjectHolderAllocatorTagEEEEENS5_31IAccountServiceForSystemServiceEE28_nn_sf_sync_GetProfileDigestENS0_3OutINS5_13ProfileDigestEvEERKNS5_3UidE = 0x000b0258;
_ZN2nn2sf4cmif6client6detail13CmifProxyImplINS_7account19IAccountServiceBaseENS2_15CmifDomainProxyINS0_4hipc6client38Hipc2ClientSessionManagedProxyKindBaseINS9_18Hipc2ProxyKindBaseILNS8_6detail11MessageTypeE4EEEEEEENS0_25StatelessAllocationPolicyINS0_22ExpHeapStaticAllocatorILm2048ENS5_6detail12ObjectHolder24ObjectHolderAllocatorTagEEEEENS5_31IAccountServiceForSystemServiceEE46_nn_sf_sync_IsUserRegistrationRequestPermittedENS0_3OutIbvEEm = 0x000b0278;
_ZN2nn2sf4cmif6client6detail13CmifProxyImplINS_7account19IAccountServiceBaseENS2_15CmifDomainProxyINS0_4hipc6client38Hipc2ClientSessionManagedProxyKindBaseINS9_18Hipc2ProxyKindBaseILNS8_6detail11MessageTypeE4EEEEEEENS0_25StatelessAllocationPolicyINS0_22ExpHeapStaticAllocatorILm2048ENS5_6detail12ObjectHolder24ObjectHolderAllocatorTagEEEEENS5_31IAccountServiceForSystemServiceEE43_nn_sf_sync_TrySelectUserWithoutInteractionENS0_3OutINS5_3UidEvEEb = 0x000b0298;
_ZN2nn2sf4cmif6client6detail13CmifProxyImplINS_7account31IAccountServiceForSystemServiceENS2_15CmifDomainProxyINS0_4hipc6client38Hipc2ClientSessionManagedProxyKindBaseINS9_18Hipc2ProxyKindBaseILNS8_6detail11MessageTypeE4EEEEEEENS0_25StatelessAllocationPolicyINS0_22ExpHeapStaticAllocatorILm2048ENS5_6detail12ObjectHolder24ObjectHolderAllocatorTagEEEEES6_E39_nn_sf_sync_GetUserRegistrationNotifierENS0_3OutINS0_13SharedPointerINSJ_9INotifierEEEvEE = 0x000b02bc;
_ZN2nn2sf4cmif6client6detail13CmifProxyImplINS_7account31IAccountServiceForSystemServiceENS2_15CmifDomainProxyINS0_4hipc6client38Hipc2ClientSessionManagedProxyKindBaseINS9_18Hipc2ProxyKindBaseILNS8_6detail11MessageTypeE4EEEEEEENS0_25StatelessAllocationPolicyINS0_22ExpHeapStaticAllocatorILm2048ENS5_6detail12ObjectHolder24ObjectHolderAllocatorTagEEEEES6_E38_nn_sf_sync_GetUserStateChangeNotifierENS0_3OutINS0_13SharedPointerINSJ_9INotifierEEEvEE = 0x000b0344;
_ZN2nn2sf4cmif6client6detail13CmifProxyImplINS_7account31IAccountServiceForSystemServiceENS2_15CmifDomainProxyINS0_4hipc6client38Hipc2ClientSessionManagedProxyKindBaseINS9_18Hipc2ProxyKindBaseILNS8_6detail11MessageTypeE4EEEEEEENS0_25StatelessAllocationPolicyINS0_22ExpHeapStaticAllocatorILm2048ENS5_6detail12ObjectHolder24ObjectHolderAllocatorTagEEEEES6_E49_nn_sf_sync_GetBaasAccountManagerForSystemServiceENS0_3OutINS0_13SharedPointerINS5_4baas24IManagerForSystemServiceEEEvEERKNS5_3UidE = 0x000b03cc;
_ZN2nn2sf4cmif6client6detail13CmifProxyImplINS_7account31IAccountServiceForSystemServiceENS2_15CmifDomainProxyINS0_4hipc6client38Hipc2ClientSessionManagedProxyKindBaseINS9_18Hipc2ProxyKindBaseILNS8_6detail11MessageTypeE4EEEEEEENS0_25StatelessAllocationPolicyINS0_22ExpHeapStaticAllocatorILm2048ENS5_6detail12ObjectHolder24ObjectHolderAllocatorTagEEEEES6_E49_nn_sf_sync_GetBaasUserAvailabilityChangeNotifierENS0_3OutINS0_13SharedPointerINSJ_9INotifierEEEvEE = 0x000b0460;
_ZN2nn2sf4cmif6client6detail13CmifProxyImplINS_7account31IAccountServiceForSystemServiceENS2_15CmifDomainProxyINS0_4hipc6client38Hipc2ClientSessionManagedProxyKindBaseINS9_18Hipc2ProxyKindBaseILNS8_6detail11MessageTypeE4EEEEEEENS0_25StatelessAllocationPolicyINS0_22ExpHeapStaticAllocatorILm2048ENS5_6detail12ObjectHolder24ObjectHolderAllocatorTagEEEEES6_E36_nn_sf_sync_GetProfileUpdateNotifierENS0_3OutINS0_13SharedPointerINSJ_9INotifierEEEvEE = 0x000b04e8;
_ZN2nn2sf4cmif6client6detail13CmifProxyImplINS_7account31IAccountServiceForSystemServiceENS2_15CmifDomainProxyINS0_4hipc6client38Hipc2ClientSessionManagedProxyKindBaseINS9_18Hipc2ProxyKindBaseILNS8_6detail11MessageTypeE4EEEEEEENS0_25StatelessAllocationPolicyINS0_22ExpHeapStaticAllocatorILm2048ENS5_6detail12ObjectHolder24ObjectHolderAllocatorTagEEEEES6_E34_nn_sf_sync_StoreSaveDataThumbnailERKNS5_3UidENS_13ApplicationIdERKNS0_8InBufferE = 0x000b0570;
_ZN2nn2sf4cmif6client6detail13CmifProxyImplINS_7account31IAccountServiceForSystemServiceENS2_15CmifDomainProxyINS0_4hipc6client38Hipc2ClientSessionManagedProxyKindBaseINS9_18Hipc2ProxyKindBaseILNS8_6detail11MessageTypeE4EEEEEEENS0_25StatelessAllocationPolicyINS0_22ExpHeapStaticAllocatorILm2048ENS5_6detail12ObjectHolder24ObjectHolderAllocatorTagEEEEES6_E34_nn_sf_sync_ClearSaveDataThumbnailERKNS5_3UidENS_13ApplicationIdE = 0x000b0598;
_ZN2nn2sf4cmif6client6detail13CmifProxyImplINS_7account31IAccountServiceForSystemServiceENS2_15CmifDomainProxyINS0_4hipc6client38Hipc2ClientSessionManagedProxyKindBaseINS9_18Hipc2ProxyKindBaseILNS8_6detail11MessageTypeE4EEEEEEENS0_25StatelessAllocationPolicyINS0_22ExpHeapStaticAllocatorILm2048ENS5_6detail12ObjectHolder24ObjectHolderAllocatorTagEEEEES6_E33_nn_sf_sync_LoadSaveDataThumbnailENS0_3OutIjvEERKNS0_9OutBufferERKNS5_3UidENS_13ApplicationIdE = 0x000b05b8;
_ZN2nn2sf4cmif6client6detail13CmifProxyImplINS_7account31IAccountServiceForSystemServiceENS2_15CmifDomainProxyINS0_4hipc6client38Hipc2ClientSessionManagedProxyKindBaseINS9_18Hipc2ProxyKindBaseILNS8_6detail11MessageTypeE4EEEEEEENS0_25StatelessAllocationPolicyINS0_22ExpHeapStaticAllocatorILm2048ENS5_6detail12ObjectHolder24ObjectHolderAllocatorTagEEEEES6_E40_nn_sf_sync_GetUserLastOpenedApplicationENS0_3OutINS_13ApplicationIdEvEENSP_IjvEERKNS5_3UidE = 0x000b05f0;
_ZN2nn2sf4cmif6client6detail13CmifProxyImplINS_7account31IAccountServiceForSystemServiceENS2_15CmifDomainProxyINS0_4hipc6client38Hipc2ClientSessionManagedProxyKindBaseINS9_18Hipc2ProxyKindBaseILNS8_6detail11MessageTypeE4EEEEEEENS0_25StatelessAllocationPolicyINS0_22ExpHeapStaticAllocatorILm2048ENS5_6detail12ObjectHolder24ObjectHolderAllocatorTagEEEEES6_E44_nn_sf_sync_DebugInvalidateTokenCacheForUserERKNS5_3UidE = 0x000b0610;
_ZN2nn2sf4cmif6client6detail13CmifProxyImplINS_7account31IAccountServiceForSystemServiceENS2_15CmifDomainProxyINS0_4hipc6client38Hipc2ClientSessionManagedProxyKindBaseINS9_18Hipc2ProxyKindBaseILNS8_6detail11MessageTypeE4EEEEEEENS0_25StatelessAllocationPolicyINS0_22ExpHeapStaticAllocatorILm2048ENS5_6detail12ObjectHolder24ObjectHolderAllocatorTagEEEEES6_E34_nn_sf_sync_DebugSetUserStateCloseERKNS5_3UidE = 0x000b0630;
_ZN2nn2sf4cmif6client6detail13CmifProxyImplINS_7account31IAccountServiceForSystemServiceENS2_15CmifDomainProxyINS0_4hipc6client38Hipc2ClientSessionManagedProxyKindBaseINS9_18Hipc2ProxyKindBaseILNS8_6detail11MessageTypeE4EEEEEEENS0_25StatelessAllocationPolicyINS0_22ExpHeapStaticAllocatorILm2048ENS5_6detail12ObjectHolder24ObjectHolderAllocatorTagEEEEES6_E33_nn_sf_sync_DebugSetUserStateOpenERKNS5_3UidE = 0x000b0650;
_ZN2nn2sf4cmif6client6detail13CmifProxyImplINS_7account19IAccountServiceBaseENS2_15CmifDomainProxyINS0_4hipc6client38Hipc2ClientSessionManagedProxyKindBaseINS9_18Hipc2ProxyKindBaseILNS8_6detail11MessageTypeE4EEEEEEENS0_25StatelessAllocationPolicyINS0_22ExpHeapStaticAllocatorILm2048ENS5_6detail12ObjectHolder24ObjectHolderAllocatorTagEEEEENS5_31IAccountServiceForSystemServiceEE17GetCmifBaseObjectEv = 0x000b0670;
_ZThn32_N2nn2sf4cmif6client6detail13CmifProxyImplINS_7account19IAccountServiceBaseENS2_15CmifDomainProxyINS0_4hipc6client38Hipc2ClientSessionManagedProxyKindBaseINS9_18Hipc2ProxyKindBaseILNS8_6detail11MessageTypeE4EEEEEEENS0_25StatelessAllocationPolicyINS0_22ExpHeapStaticAllocatorILm2048ENS5_6detail12ObjectHolder24ObjectHolderAllocatorTagEEEEENS5_31IAccountServiceForSystemServiceEE17GetCmifBaseObjectEv = 0x000b0680;
_ZN2nn2sf4cmif6client32GetClientProcessorWithObjectBaseINS2_15CmifDomainProxyINS0_4hipc6client38Hipc2ClientSessionManagedProxyKindBaseINS6_18Hipc2ProxyKindBaseILNS5_6detail11MessageTypeE4EEEEEEEE14ObjectAssignerINS0_25StatelessAllocationPolicyINS0_22ExpHeapStaticAllocatorILm2048ENS_7account6detail12ObjectHolder24ObjectHolderAllocatorTagEEEEENS0_6detail23StatelessDummyAllocatorEE14AllocateObjectINSJ_9INotifierEEEvi = 0x000b0688;
_ZN2nn2sf6detail39ObjectImplFactoryWithStatelessAllocatorINS0_4cmif6client16CmifProxyFactoryINS_7account6detail9INotifierENS4_15CmifDomainProxyINS0_4hipc6client38Hipc2ClientSessionManagedProxyKindBaseINSB_18Hipc2ProxyKindBaseILNSA_6detail11MessageTypeE4EEEEEEENS0_25StatelessAllocationPolicyINS0_22ExpHeapStaticAllocatorILm2048ENS7_12ObjectHolder24ObjectHolderAllocatorTagEEEEEE13ServiceObjectESO_E6Object12AddReferenceEv = 0x000b073c;
_ZN2nn2sf6detail39ObjectImplFactoryWithStatelessAllocatorINS0_4cmif6client16CmifProxyFactoryINS_7account6detail9INotifierENS4_15CmifDomainProxyINS0_4hipc6client38Hipc2ClientSessionManagedProxyKindBaseINSB_18Hipc2ProxyKindBaseILNSA_6detail11MessageTypeE4EEEEEEENS0_25StatelessAllocationPolicyINS0_22ExpHeapStaticAllocatorILm2048ENS7_12ObjectHolder24ObjectHolderAllocatorTagEEEEEE13ServiceObjectESO_E6Object7ReleaseEv = 0x000b0744;
_ZN2nn2sf4cmif6client6detail13CmifProxyImplINS_7account6detail9INotifierENS2_15CmifDomainProxyINS0_4hipc6client38Hipc2ClientSessionManagedProxyKindBaseINSA_18Hipc2ProxyKindBaseILNS9_6detail11MessageTypeE4EEEEEEENS0_25StatelessAllocationPolicyINS0_22ExpHeapStaticAllocatorILm2048ENS6_12ObjectHolder24ObjectHolderAllocatorTagEEEEES7_E12GetProxyInfoEv = 0x000b07b8;
_ZN2nn2sf4cmif6client6detail13CmifProxyImplINS_7account6detail9INotifierENS2_15CmifDomainProxyINS0_4hipc6client38Hipc2ClientSessionManagedProxyKindBaseINSA_18Hipc2ProxyKindBaseILNS9_6detail11MessageTypeE4EEEEEEENS0_25StatelessAllocationPolicyINS0_22ExpHeapStaticAllocatorILm2048ENS6_12ObjectHolder24ObjectHolderAllocatorTagEEEEES7_E26_nn_sf_sync_GetSystemEventENS0_3OutINS0_12NativeHandleEvEE = 0x000b07c0;
_ZN2nn2sf4cmif6client6detail13CmifProxyImplINS_7account6detail9INotifierENS2_15CmifDomainProxyINS0_4hipc6client38Hipc2ClientSessionManagedProxyKindBaseINSA_18Hipc2ProxyKindBaseILNS9_6detail11MessageTypeE4EEEEEEENS0_25StatelessAllocationPolicyINS0_22ExpHeapStaticAllocatorILm2048ENS6_12ObjectHolder24ObjectHolderAllocatorTagEEEEES7_E17GetCmifBaseObjectEv = 0x000b07e0;
_ZThn32_N2nn2sf4cmif6client6detail13CmifProxyImplINS_7account6detail9INotifierENS2_15CmifDomainProxyINS0_4hipc6client38Hipc2ClientSessionManagedProxyKindBaseINSA_18Hipc2ProxyKindBaseILNS9_6detail11MessageTypeE4EEEEEEENS0_25StatelessAllocationPolicyINS0_22ExpHeapStaticAllocatorILm2048ENS6_12ObjectHolder24ObjectHolderAllocatorTagEEEEES7_E17GetCmifBaseObjectEv = 0x000b07f0;
_ZN2nn2sf4cmif6client32GetClientProcessorWithObjectBaseINS2_15CmifDomainProxyINS0_4hipc6client38Hipc2ClientSessionManagedProxyKindBaseINS6_18Hipc2ProxyKindBaseILNS5_6detail11MessageTypeE4EEEEEEEE14ObjectAssignerINS0_25StatelessAllocationPolicyINS0_22ExpHeapStaticAllocatorILm2048ENS_7account6detail12ObjectHolder24ObjectHolderAllocatorTagEEEEENS0_6detail23StatelessDummyAllocatorEE14AllocateObjectINSI_4baas24IManagerForSystemServiceEEEvi = 0x000b07f8;
_ZN2nn2sf6detail39ObjectImplFactoryWithStatelessAllocatorINS0_4cmif6client16CmifProxyFactoryINS_7account4baas24IManagerForSystemServiceENS4_15CmifDomainProxyINS0_4hipc6client38Hipc2ClientSessionManagedProxyKindBaseINSB_18Hipc2ProxyKindBaseILNSA_6detail11MessageTypeE4EEEEEEENS0_25StatelessAllocationPolicyINS0_22ExpHeapStaticAllocatorILm2048ENS6_6detail12ObjectHolder24ObjectHolderAllocatorTagEEEEEE13ServiceObjectESP_E6Object12AddReferenceEv = 0x000b08ac;
_ZN2nn2sf6detail39ObjectImplFactoryWithStatelessAllocatorINS0_4cmif6client16CmifProxyFactoryINS_7account4baas24IManagerForSystemServiceENS4_15CmifDomainProxyINS0_4hipc6client38Hipc2ClientSessionManagedProxyKindBaseINSB_18Hipc2ProxyKindBaseILNSA_6detail11MessageTypeE4EEEEEEENS0_25StatelessAllocationPolicyINS0_22ExpHeapStaticAllocatorILm2048ENS6_6detail12ObjectHolder24ObjectHolderAllocatorTagEEEEEE13ServiceObjectESP_E6Object7ReleaseEv = 0x000b08b4;
_ZN2nn2sf4cmif6client6detail13CmifProxyImplINS_7account4baas12IManagerBaseENS2_15CmifDomainProxyINS0_4hipc6client38Hipc2ClientSessionManagedProxyKindBaseINSA_18Hipc2ProxyKindBaseILNS9_6detail11MessageTypeE4EEEEEEENS0_25StatelessAllocationPolicyINS0_22ExpHeapStaticAllocatorILm2048ENS5_6detail12ObjectHolder24ObjectHolderAllocatorTagEEEEENS6_24IManagerForSystemServiceEE12GetProxyInfoEv = 0x000b0928;
_ZN2nn2sf4cmif6client6detail13CmifProxyImplINS_7account4baas12IManagerBaseENS2_15CmifDomainProxyINS0_4hipc6client38Hipc2ClientSessionManagedProxyKindBaseINSA_18Hipc2ProxyKindBaseILNS9_6detail11MessageTypeE4EEEEEEENS0_25StatelessAllocationPolicyINS0_22ExpHeapStaticAllocatorILm2048ENS5_6detail12ObjectHolder24ObjectHolderAllocatorTagEEEEENS6_24IManagerForSystemServiceEE29_nn_sf_sync_CheckAvailabilityEv = 0x000b0930;
_ZN2nn2sf4cmif6client6detail13CmifProxyImplINS_7account4baas12IManagerBaseENS2_15CmifDomainProxyINS0_4hipc6client38Hipc2ClientSessionManagedProxyKindBaseINSA_18Hipc2ProxyKindBaseILNS9_6detail11MessageTypeE4EEEEEEENS0_25StatelessAllocationPolicyINS0_22ExpHeapStaticAllocatorILm2048ENS5_6detail12ObjectHolder24ObjectHolderAllocatorTagEEEEENS6_24IManagerForSystemServiceEE24_nn_sf_sync_GetAccountIdENS0_3OutINS5_23NetworkServiceAccountIdEvEE = 0x000b0950;
_ZN2nn2sf4cmif6client6detail13CmifProxyImplINS_7account4baas12IManagerBaseENS2_15CmifDomainProxyINS0_4hipc6client38Hipc2ClientSessionManagedProxyKindBaseINSA_18Hipc2ProxyKindBaseILNS9_6detail11MessageTypeE4EEEEEEENS0_25StatelessAllocationPolicyINS0_22ExpHeapStaticAllocatorILm2048ENS5_6detail12ObjectHolder24ObjectHolderAllocatorTagEEEEENS6_24IManagerForSystemServiceEE35_nn_sf_sync_EnsureIdTokenCacheAsyncENS0_3OutINS0_13SharedPointerINSK_13IAsyncContextEEEvEE = 0x000b0970;
_ZN2nn2sf4cmif6client6detail13CmifProxyImplINS_7account4baas12IManagerBaseENS2_15CmifDomainProxyINS0_4hipc6client38Hipc2ClientSessionManagedProxyKindBaseINSA_18Hipc2ProxyKindBaseILNS9_6detail11MessageTypeE4EEEEEEENS0_25StatelessAllocationPolicyINS0_22ExpHeapStaticAllocatorILm2048ENS5_6detail12ObjectHolder24ObjectHolderAllocatorTagEEEEENS6_24IManagerForSystemServiceEE28_nn_sf_sync_LoadIdTokenCacheENS0_3OutIjvEERKNS0_9OutBufferE = 0x000b09f8;
_ZN2nn2sf4cmif6client6detail13CmifProxyImplINS_7account4baas24IManagerForSystemServiceENS2_15CmifDomainProxyINS0_4hipc6client38Hipc2ClientSessionManagedProxyKindBaseINSA_18Hipc2ProxyKindBaseILNS9_6detail11MessageTypeE4EEEEEEENS0_25StatelessAllocationPolicyINS0_22ExpHeapStaticAllocatorILm2048ENS5_6detail12ObjectHolder24ObjectHolderAllocatorTagEEEEES7_E42_nn_sf_sync_SetSystemProgramIdentificationERKNS5_27SystemProgramIdentificationEm = 0x000b0a20;
_ZN2nn2sf4cmif6client6detail13CmifProxyImplINS_7account4baas24IManagerForSystemServiceENS2_15CmifDomainProxyINS0_4hipc6client38Hipc2ClientSessionManagedProxyKindBaseINSA_18Hipc2ProxyKindBaseILNS9_6detail11MessageTypeE4EEEEEEENS0_25StatelessAllocationPolicyINS0_22ExpHeapStaticAllocatorILm2048ENS5_6detail12ObjectHolder24ObjectHolderAllocatorTagEEEEES7_E32_nn_sf_sync_GetNintendoAccountIdENS0_3OutINS5_17NintendoAccountIdEvEE = 0x000b0a4c;
_ZN2nn2sf4cmif6client6detail13CmifProxyImplINS_7account4baas24IManagerForSystemServiceENS2_15CmifDomainProxyINS0_4hipc6client38Hipc2ClientSessionManagedProxyKindBaseINSA_18Hipc2ProxyKindBaseILNS9_6detail11MessageTypeE4EEEEEEENS0_25StatelessAllocationPolicyINS0_22ExpHeapStaticAllocatorILm2048ENS5_6detail12ObjectHolder24ObjectHolderAllocatorTagEEEEES7_E47_nn_sf_sync_GetNintendoAccountUserResourceCacheENS0_3OutINS5_17NintendoAccountIdEvEENSQ_INS5_3nas11NasUserBaseEvEERKNS0_9OutBufferE = 0x000b0a6c;
_ZN2nn2sf4cmif6client6detail13CmifProxyImplINS_7account4baas24IManagerForSystemServiceENS2_15CmifDomainProxyINS0_4hipc6client38Hipc2ClientSessionManagedProxyKindBaseINSA_18Hipc2ProxyKindBaseILNS9_6detail11MessageTypeE4EEEEEEENS0_25StatelessAllocationPolicyINS0_22ExpHeapStaticAllocatorILm2048ENS5_6detail12ObjectHolder24ObjectHolderAllocatorTagEEEEES7_E56_nn_sf_sync_RefreshNintendoAccountUserResourceCacheAsyncENS0_3OutINS0_13SharedPointerINSK_13IAsyncContextEEEvEE = 0x000b0a94;
_ZN2nn2sf4cmif6client6detail13CmifProxyImplINS_7account4baas24IManagerForSystemServiceENS2_15CmifDomainProxyINS0_4hipc6client38Hipc2ClientSessionManagedProxyKindBaseINSA_18Hipc2ProxyKindBaseILNS9_6detail11MessageTypeE4EEEEEEENS0_25StatelessAllocationPolicyINS0_22ExpHeapStaticAllocatorILm2048ENS5_6detail12ObjectHolder24ObjectHolderAllocatorTagEEEEES7_E72_nn_sf_sync_RefreshNintendoAccountUserResourceCacheAsyncIfSecondsElapsedENS0_3OutIbvEENSQ_INS0_13SharedPointerINSK_13IAsyncContextEEEvEEj = 0x000b0b1c;
_ZN2nn2sf4cmif6client6detail13CmifProxyImplINS_7account4baas24IManagerForSystemServiceENS2_15CmifDomainProxyINS0_4hipc6client38Hipc2ClientSessionManagedProxyKindBaseINSA_18Hipc2ProxyKindBaseILNS9_6detail11MessageTypeE4EEEEEEENS0_25StatelessAllocationPolicyINS0_22ExpHeapStaticAllocatorILm2048ENS5_6detail12ObjectHolder24ObjectHolderAllocatorTagEEEEES7_E38_nn_sf_sync_CreateAuthorizationRequestENS0_3OutINS0_13SharedPointerINS5_3nas21IAuthorizationRequestEEEvEERKNSS_13NasClientInfoERKNS5_45NintendoAccountAuthorizationRequestParametersEONS0_12NativeHandleEj = 0x000b0bbc;
_ZN2nn2sf4cmif6client6detail13CmifProxyImplINS_7account4baas12IManagerBaseENS2_15CmifDomainProxyINS0_4hipc6client38Hipc2ClientSessionManagedProxyKindBaseINSA_18Hipc2ProxyKindBaseILNS9_6detail11MessageTypeE4EEEEEEENS0_25StatelessAllocationPolicyINS0_22ExpHeapStaticAllocatorILm2048ENS5_6detail12ObjectHolder24ObjectHolderAllocatorTagEEEEENS6_24IManagerForSystemServiceEE17GetCmifBaseObjectEv = 0x000b0c84;
_ZThn32_N2nn2sf4cmif6client6detail13CmifProxyImplINS_7account4baas12IManagerBaseENS2_15CmifDomainProxyINS0_4hipc6client38Hipc2ClientSessionManagedProxyKindBaseINSA_18Hipc2ProxyKindBaseILNS9_6detail11MessageTypeE4EEEEEEENS0_25StatelessAllocationPolicyINS0_22ExpHeapStaticAllocatorILm2048ENS5_6detail12ObjectHolder24ObjectHolderAllocatorTagEEEEENS6_24IManagerForSystemServiceEE17GetCmifBaseObjectEv = 0x000b0c94;
_ZN2nn2sf4cmif6client34CmifDomainProxyClientCoreProcessorINS0_4hipc6client38Hipc2ClientSessionManagedProxyKindBaseINS5_18Hipc2ProxyKindBaseILNS4_6detail11MessageTypeE4EEEEENS1_6detail14CoreMethodInfoINSt3__15tupleIJNSC_18BufferArgumentInfoILi0ELi25ELm16EEENSC_17InRawArgumentInfoILm8ELm8ELl0EEEEEELm8ELm0ELb1EEESK_E7ProcessEPNS2_23CmifDomainClientMessageISB_E15ProxyBaseObjectENS2_24BufferClientArgumentTypeENS2_23InRawClientArgumentTypeILm8ELm8EvEEj = 0x000b0c9c;
_ZN2nn2sf4cmif6client34CmifDomainProxyClientCoreProcessorINS0_4hipc6client38Hipc2ClientSessionManagedProxyKindBaseINS5_18Hipc2ProxyKindBaseILNS4_6detail11MessageTypeE4EEEEENS1_6detail14CoreMethodInfoINSt3__15tupleIJNSC_18OutRawArgumentInfoILm8ELm8ELl0EEENSC_18BufferArgumentInfoILi0ELi26ELm591EEENSI_ILi1ELi6ELm0EEEEEELm0ELm8ELb0EEESL_E7ProcessEPNS2_23CmifDomainClientMessageISB_E15ProxyBaseObjectENS2_24OutRawClientArgumentTypeILm8ELm8EEENS2_24BufferClientArgumentTypeESU_j = 0x000b0e6c;
_ZN2nn2sf4cmif6client34CmifDomainProxyClientCoreProcessorINS0_4hipc6client38Hipc2ClientSessionManagedProxyKindBaseINS5_18Hipc2ProxyKindBaseILNS4_6detail11MessageTypeE4EEEEENS1_6detail14CoreMethodInfoINSt3__15tupleIJNSC_18OutRawArgumentInfoILm1ELm1ELl0EEENSC_21OutObjectArgumentInfoILi0ELi0EEENSC_17InRawArgumentInfoILm4ELm4ELl0EEEEEELm4ELm1ELb0EEESM_E21ProcessWithOutObjectsEPNS2_23CmifDomainClientMessageISB_E15ProxyBaseObjectENS2_24OutRawClientArgumentTypeILm1ELm1EEENS2_27OutObjectClientArgumentTypeENS2_23InRawClientArgumentTypeILm4ELm4EvEEjPNS0_13SharedPointerINS0_14IServiceObjectEEE = 0x000b1058;
_ZN2nn2sf4cmif6client34CmifDomainProxyClientCoreProcessorINS0_4hipc6client38Hipc2ClientSessionManagedProxyKindBaseINS5_18Hipc2ProxyKindBaseILNS4_6detail11MessageTypeE4EEEEENS1_6detail14CoreMethodInfoINSt3__15tupleIJNSC_21OutObjectArgumentInfoILi0ELi0EEENSC_18BufferArgumentInfoILi0ELi25ELm264EEENSI_ILi1ELi25ELm512EEENSC_20InHandleArgumentInfoILi0ELi1EEENSC_17InRawArgumentInfoILm4ELm4ELl0EEEEEELm4ELm0ELb0EEESP_E21ProcessWithOutObjectsEPNS2_23CmifDomainClientMessageISB_E15ProxyBaseObjectENS2_27OutObjectClientArgumentTypeENS2_24BufferClientArgumentTypeESX_NS2_26InHandleClientArgumentTypeENS2_23InRawClientArgumentTypeILm4ELm4EvEEjPNS0_13SharedPointerINS0_14IServiceObjectEEE = 0x000b1238;
_ZN2nn2sf4cmif6client34CmifDomainProxyClientCoreProcessorINS0_4hipc6client38Hipc2ClientSessionManagedProxyKindBaseINS5_18Hipc2ProxyKindBaseILNS4_6detail11MessageTypeE4EEEEENS1_6detail14CoreMethodInfoINSt3__15tupleIJNSC_17InRawArgumentInfoILm16ELm8ELl0EEENSG_ILm8ELm8ELl16EEENSC_18BufferArgumentInfoILi0ELi5ELm0EEEEEELm24ELm0ELb0EEESL_E7ProcessEPNS2_23CmifDomainClientMessageISB_E15ProxyBaseObjectENS2_23InRawClientArgumentTypeILm16ELm8EvEENSS_ILm8ELm8EvEENS2_24BufferClientArgumentTypeEj = 0x000b14d8;
_ZN2nn2sf4cmif6client34CmifDomainProxyClientCoreProcessorINS0_4hipc6client38Hipc2ClientSessionManagedProxyKindBaseINS5_18Hipc2ProxyKindBaseILNS4_6detail11MessageTypeE4EEEEENS1_6detail14CoreMethodInfoINSt3__15tupleIJNSC_17InRawArgumentInfoILm16ELm8ELl0EEENSG_ILm8ELm8ELl16EEEEEELm24ELm0ELb0EEESJ_E7ProcessEPNS2_23CmifDomainClientMessageISB_E15ProxyBaseObjectENS2_23InRawClientArgumentTypeILm16ELm8EvEENSQ_ILm8ELm8EvEEj = 0x000b16bc;
_ZN2nn2sf4cmif6client34CmifDomainProxyClientCoreProcessorINS0_4hipc6client38Hipc2ClientSessionManagedProxyKindBaseINS5_18Hipc2ProxyKindBaseILNS4_6detail11MessageTypeE4EEEEENS1_6detail14CoreMethodInfoINSt3__15tupleIJNSC_18OutRawArgumentInfoILm4ELm4ELl0EEENSC_18BufferArgumentInfoILi0ELi6ELm0EEENSC_17InRawArgumentInfoILm16ELm8ELl0EEENSK_ILm8ELm8ELl16EEEEEELm24ELm4ELb0EEESN_E7ProcessEPNS2_23CmifDomainClientMessageISB_E15ProxyBaseObjectENS2_24OutRawClientArgumentTypeILm4ELm4EEENS2_24BufferClientArgumentTypeENS2_23InRawClientArgumentTypeILm16ELm8EvEENSX_ILm8ELm8EvEEj = 0x000b1818;
_ZN2nn2sf4cmif6client34CmifDomainProxyClientCoreProcessorINS0_4hipc6client38Hipc2ClientSessionManagedProxyKindBaseINS5_18Hipc2ProxyKindBaseILNS4_6detail11MessageTypeE4EEEEENS1_6detail14CoreMethodInfoINSt3__15tupleIJNSC_18OutRawArgumentInfoILm8ELm8ELl8EEENSG_ILm4ELm4ELl0EEENSC_17InRawArgumentInfoILm16ELm8ELl0EEEEEELm16ELm16ELb0EEESL_E7ProcessEPNS2_23CmifDomainClientMessageISB_E15ProxyBaseObjectENS2_24OutRawClientArgumentTypeILm8ELm8EEENSS_ILm4ELm4EEENS2_23InRawClientArgumentTypeILm16ELm8EvEEj = 0x000b1a14;
_ZN2nn7account6detail12ObjectHolder11AcquireImplINS0_31IAccountServiceForAdministratorEEENS_6ResultEPPT_PKc = 0x000b1b84;
_ZN2nn2sf4hipc6client34HipcSimpleClientSessionManagerBase4Impl18InitializeByHandleINS_7account31IAccountServiceForAdministratorENS0_25StatelessAllocationPolicyINS0_22ExpHeapStaticAllocatorILm2048ENS6_6detail12ObjectHolder24ObjectHolderAllocatorTagEEEEEEENS_6ResultEPNS0_13SharedPointerIT_EENS_3svc6HandleE = 0x000b1c7c;
_ZN2nn2sf6detail39ObjectImplFactoryWithStatelessAllocatorINS0_4cmif6client16CmifProxyFactoryINS_7account31IAccountServiceForAdministratorENS4_15CmifDomainProxyINS0_4hipc6client38Hipc2ClientSessionManagedProxyKindBaseINSA_18Hipc2ProxyKindBaseILNS9_6detail11MessageTypeE4EEEEEEENS0_25StatelessAllocationPolicyINS0_22ExpHeapStaticAllocatorILm2048ENS6_6detail12ObjectHolder24ObjectHolderAllocatorTagEEEEEE13ServiceObjectESO_E6Object12AddReferenceEv = 0x000b1d90;
_ZN2nn2sf6detail39ObjectImplFactoryWithStatelessAllocatorINS0_4cmif6client16CmifProxyFactoryINS_7account31IAccountServiceForAdministratorENS4_15CmifDomainProxyINS0_4hipc6client38Hipc2ClientSessionManagedProxyKindBaseINSA_18Hipc2ProxyKindBaseILNS9_6detail11MessageTypeE4EEEEEEENS0_25StatelessAllocationPolicyINS0_22ExpHeapStaticAllocatorILm2048ENS6_6detail12ObjectHolder24ObjectHolderAllocatorTagEEEEEE13ServiceObjectESO_E6Object7ReleaseEv = 0x000b1d98;
_ZN2nn2sf4cmif6client6detail13CmifProxyImplINS_7account19IAccountServiceBaseENS2_15CmifDomainProxyINS0_4hipc6client38Hipc2ClientSessionManagedProxyKindBaseINS9_18Hipc2ProxyKindBaseILNS8_6detail11MessageTypeE4EEEEEEENS0_25StatelessAllocationPolicyINS0_22ExpHeapStaticAllocatorILm2048ENS5_6detail12ObjectHolder24ObjectHolderAllocatorTagEEEEENS5_31IAccountServiceForAdministratorEE12GetProxyInfoEv = 0x000b1e0c;
_ZN2nn2sf4cmif6client6detail13CmifProxyImplINS_7account19IAccountServiceBaseENS2_15CmifDomainProxyINS0_4hipc6client38Hipc2ClientSessionManagedProxyKindBaseINS9_18Hipc2ProxyKindBaseILNS8_6detail11MessageTypeE4EEEEEEENS0_25StatelessAllocationPolicyINS0_22ExpHeapStaticAllocatorILm2048ENS5_6detail12ObjectHolder24ObjectHolderAllocatorTagEEEEENS5_31IAccountServiceForAdministratorEE24_nn_sf_sync_GetUserCountENS0_3OutIivEE = 0x000b1e14;
_ZN2nn2sf4cmif6client6detail13CmifProxyImplINS_7account19IAccountServiceBaseENS2_15CmifDomainProxyINS0_4hipc6client38Hipc2ClientSessionManagedProxyKindBaseINS9_18Hipc2ProxyKindBaseILNS8_6detail11MessageTypeE4EEEEEEENS0_25StatelessAllocationPolicyINS0_22ExpHeapStaticAllocatorILm2048ENS5_6detail12ObjectHolder24ObjectHolderAllocatorTagEEEEENS5_31IAccountServiceForAdministratorEE28_nn_sf_sync_GetUserExistenceENS0_3OutIbvEERKNS5_3UidE = 0x000b1e34;
_ZN2nn2sf4cmif6client6detail13CmifProxyImplINS_7account19IAccountServiceBaseENS2_15CmifDomainProxyINS0_4hipc6client38Hipc2ClientSessionManagedProxyKindBaseINS9_18Hipc2ProxyKindBaseILNS8_6detail11MessageTypeE4EEEEEEENS0_25StatelessAllocationPolicyINS0_22ExpHeapStaticAllocatorILm2048ENS5_6detail12ObjectHolder24ObjectHolderAllocatorTagEEEEENS5_31IAccountServiceForAdministratorEE24_nn_sf_sync_ListAllUsersERKNS0_8OutArrayINS5_3UidEEE = 0x000b1e54;
_ZN2nn2sf4cmif6client6detail13CmifProxyImplINS_7account19IAccountServiceBaseENS2_15CmifDomainProxyINS0_4hipc6client38Hipc2ClientSessionManagedProxyKindBaseINS9_18Hipc2ProxyKindBaseILNS8_6detail11MessageTypeE4EEEEEEENS0_25StatelessAllocationPolicyINS0_22ExpHeapStaticAllocatorILm2048ENS5_6detail12ObjectHolder24ObjectHolderAllocatorTagEEEEENS5_31IAccountServiceForAdministratorEE25_nn_sf_sync_ListOpenUsersERKNS0_8OutArrayINS5_3UidEEE = 0x000b1e80;
_ZN2nn2sf4cmif6client6detail13CmifProxyImplINS_7account19IAccountServiceBaseENS2_15CmifDomainProxyINS0_4hipc6client38Hipc2ClientSessionManagedProxyKindBaseINS9_18Hipc2ProxyKindBaseILNS8_6detail11MessageTypeE4EEEEEEENS0_25StatelessAllocationPolicyINS0_22ExpHeapStaticAllocatorILm2048ENS5_6detail12ObjectHolder24ObjectHolderAllocatorTagEEEEENS5_31IAccountServiceForAdministratorEE29_nn_sf_sync_GetLastOpenedUserENS0_3OutINS5_3UidEvEE = 0x000b1eac;
_ZN2nn2sf4cmif6client6detail13CmifProxyImplINS_7account19IAccountServiceBaseENS2_15CmifDomainProxyINS0_4hipc6client38Hipc2ClientSessionManagedProxyKindBaseINS9_18Hipc2ProxyKindBaseILNS8_6detail11MessageTypeE4EEEEEEENS0_25StatelessAllocationPolicyINS0_22ExpHeapStaticAllocatorILm2048ENS5_6detail12ObjectHolder24ObjectHolderAllocatorTagEEEEENS5_31IAccountServiceForAdministratorEE22_nn_sf_sync_GetProfileENS0_3OutINS0_13SharedPointerINS5_7profile8IProfileEEEvEERKNS5_3UidE = 0x000b1ecc;
_ZN2nn2sf4cmif6client6detail13CmifProxyImplINS_7account19IAccountServiceBaseENS2_15CmifDomainProxyINS0_4hipc6client38Hipc2ClientSessionManagedProxyKindBaseINS9_18Hipc2ProxyKindBaseILNS8_6detail11MessageTypeE4EEEEEEENS0_25StatelessAllocationPolicyINS0_22ExpHeapStaticAllocatorILm2048ENS5_6detail12ObjectHolder24ObjectHolderAllocatorTagEEEEENS5_31IAccountServiceForAdministratorEE28_nn_sf_sync_GetProfileDigestENS0_3OutINS5_13ProfileDigestEvEERKNS5_3UidE = 0x000b1f60;
_ZN2nn2sf4cmif6client6detail13CmifProxyImplINS_7account19IAccountServiceBaseENS2_15CmifDomainProxyINS0_4hipc6client38Hipc2ClientSessionManagedProxyKindBaseINS9_18Hipc2ProxyKindBaseILNS8_6detail11MessageTypeE4EEEEEEENS0_25StatelessAllocationPolicyINS0_22ExpHeapStaticAllocatorILm2048ENS5_6detail12ObjectHolder24ObjectHolderAllocatorTagEEEEENS5_31IAccountServiceForAdministratorEE46_nn_sf_sync_IsUserRegistrationRequestPermittedENS0_3OutIbvEEm = 0x000b1f80;
_ZN2nn2sf4cmif6client6detail13CmifProxyImplINS_7account19IAccountServiceBaseENS2_15CmifDomainProxyINS0_4hipc6client38Hipc2ClientSessionManagedProxyKindBaseINS9_18Hipc2ProxyKindBaseILNS8_6detail11MessageTypeE4EEEEEEENS0_25StatelessAllocationPolicyINS0_22ExpHeapStaticAllocatorILm2048ENS5_6detail12ObjectHolder24ObjectHolderAllocatorTagEEEEENS5_31IAccountServiceForAdministratorEE43_nn_sf_sync_TrySelectUserWithoutInteractionENS0_3OutINS5_3UidEvEEb = 0x000b1fa0;
_ZN2nn2sf4cmif6client6detail13CmifProxyImplINS_7account31IAccountServiceForSystemServiceENS2_15CmifDomainProxyINS0_4hipc6client38Hipc2ClientSessionManagedProxyKindBaseINS9_18Hipc2ProxyKindBaseILNS8_6detail11MessageTypeE4EEEEEEENS0_25StatelessAllocationPolicyINS0_22ExpHeapStaticAllocatorILm2048ENS5_6detail12ObjectHolder24ObjectHolderAllocatorTagEEEEENS5_31IAccountServiceForAdministratorEE39_nn_sf_sync_GetUserRegistrationNotifierENS0_3OutINS0_13SharedPointerINSJ_9INotifierEEEvEE = 0x000b1fc4;
_ZN2nn2sf4cmif6client6detail13CmifProxyImplINS_7account31IAccountServiceForSystemServiceENS2_15CmifDomainProxyINS0_4hipc6client38Hipc2ClientSessionManagedProxyKindBaseINS9_18Hipc2ProxyKindBaseILNS8_6detail11MessageTypeE4EEEEEEENS0_25StatelessAllocationPolicyINS0_22ExpHeapStaticAllocatorILm2048ENS5_6detail12ObjectHolder24ObjectHolderAllocatorTagEEEEENS5_31IAccountServiceForAdministratorEE38_nn_sf_sync_GetUserStateChangeNotifierENS0_3OutINS0_13SharedPointerINSJ_9INotifierEEEvEE = 0x000b204c;
_ZN2nn2sf4cmif6client6detail13CmifProxyImplINS_7account31IAccountServiceForSystemServiceENS2_15CmifDomainProxyINS0_4hipc6client38Hipc2ClientSessionManagedProxyKindBaseINS9_18Hipc2ProxyKindBaseILNS8_6detail11MessageTypeE4EEEEEEENS0_25StatelessAllocationPolicyINS0_22ExpHeapStaticAllocatorILm2048ENS5_6detail12ObjectHolder24ObjectHolderAllocatorTagEEEEENS5_31IAccountServiceForAdministratorEE49_nn_sf_sync_GetBaasAccountManagerForSystemServiceENS0_3OutINS0_13SharedPointerINS5_4baas24IManagerForSystemServiceEEEvEERKNS5_3UidE = 0x000b20d4;
_ZN2nn2sf4cmif6client6detail13CmifProxyImplINS_7account31IAccountServiceForSystemServiceENS2_15CmifDomainProxyINS0_4hipc6client38Hipc2ClientSessionManagedProxyKindBaseINS9_18Hipc2ProxyKindBaseILNS8_6detail11MessageTypeE4EEEEEEENS0_25StatelessAllocationPolicyINS0_22ExpHeapStaticAllocatorILm2048ENS5_6detail12ObjectHolder24ObjectHolderAllocatorTagEEEEENS5_31IAccountServiceForAdministratorEE49_nn_sf_sync_GetBaasUserAvailabilityChangeNotifierENS0_3OutINS0_13SharedPointerINSJ_9INotifierEEEvEE = 0x000b2168;
_ZN2nn2sf4cmif6client6detail13CmifProxyImplINS_7account31IAccountServiceForSystemServiceENS2_15CmifDomainProxyINS0_4hipc6client38Hipc2ClientSessionManagedProxyKindBaseINS9_18Hipc2ProxyKindBaseILNS8_6detail11MessageTypeE4EEEEEEENS0_25StatelessAllocationPolicyINS0_22ExpHeapStaticAllocatorILm2048ENS5_6detail12ObjectHolder24ObjectHolderAllocatorTagEEEEENS5_31IAccountServiceForAdministratorEE36_nn_sf_sync_GetProfileUpdateNotifierENS0_3OutINS0_13SharedPointerINSJ_9INotifierEEEvEE = 0x000b21f0;
_ZN2nn2sf4cmif6client6detail13CmifProxyImplINS_7account31IAccountServiceForSystemServiceENS2_15CmifDomainProxyINS0_4hipc6client38Hipc2ClientSessionManagedProxyKindBaseINS9_18Hipc2ProxyKindBaseILNS8_6detail11MessageTypeE4EEEEEEENS0_25StatelessAllocationPolicyINS0_22ExpHeapStaticAllocatorILm2048ENS5_6detail12ObjectHolder24ObjectHolderAllocatorTagEEEEENS5_31IAccountServiceForAdministratorEE34_nn_sf_sync_StoreSaveDataThumbnailERKNS5_3UidENS_13ApplicationIdERKNS0_8InBufferE = 0x000b2278;
_ZN2nn2sf4cmif6client6detail13CmifProxyImplINS_7account31IAccountServiceForSystemServiceENS2_15CmifDomainProxyINS0_4hipc6client38Hipc2ClientSessionManagedProxyKindBaseINS9_18Hipc2ProxyKindBaseILNS8_6detail11MessageTypeE4EEEEEEENS0_25StatelessAllocationPolicyINS0_22ExpHeapStaticAllocatorILm2048ENS5_6detail12ObjectHolder24ObjectHolderAllocatorTagEEEEENS5_31IAccountServiceForAdministratorEE34_nn_sf_sync_ClearSaveDataThumbnailERKNS5_3UidENS_13ApplicationIdE = 0x000b22a0;
_ZN2nn2sf4cmif6client6detail13CmifProxyImplINS_7account31IAccountServiceForSystemServiceENS2_15CmifDomainProxyINS0_4hipc6client38Hipc2ClientSessionManagedProxyKindBaseINS9_18Hipc2ProxyKindBaseILNS8_6detail11MessageTypeE4EEEEEEENS0_25StatelessAllocationPolicyINS0_22ExpHeapStaticAllocatorILm2048ENS5_6detail12ObjectHolder24ObjectHolderAllocatorTagEEEEENS5_31IAccountServiceForAdministratorEE33_nn_sf_sync_LoadSaveDataThumbnailENS0_3OutIjvEERKNS0_9OutBufferERKNS5_3UidENS_13ApplicationIdE = 0x000b22c0;
_ZN2nn2sf4cmif6client6detail13CmifProxyImplINS_7account31IAccountServiceForSystemServiceENS2_15CmifDomainProxyINS0_4hipc6client38Hipc2ClientSessionManagedProxyKindBaseINS9_18Hipc2ProxyKindBaseILNS8_6detail11MessageTypeE4EEEEEEENS0_25StatelessAllocationPolicyINS0_22ExpHeapStaticAllocatorILm2048ENS5_6detail12ObjectHolder24ObjectHolderAllocatorTagEEEEENS5_31IAccountServiceForAdministratorEE40_nn_sf_sync_GetUserLastOpenedApplicationENS0_3OutINS_13ApplicationIdEvEENSQ_IjvEERKNS5_3UidE = 0x000b22f8;
_ZN2nn2sf4cmif6client6detail13CmifProxyImplINS_7account31IAccountServiceForSystemServiceENS2_15CmifDomainProxyINS0_4hipc6client38Hipc2ClientSessionManagedProxyKindBaseINS9_18Hipc2ProxyKindBaseILNS8_6detail11MessageTypeE4EEEEEEENS0_25StatelessAllocationPolicyINS0_22ExpHeapStaticAllocatorILm2048ENS5_6detail12ObjectHolder24ObjectHolderAllocatorTagEEEEENS5_31IAccountServiceForAdministratorEE44_nn_sf_sync_DebugInvalidateTokenCacheForUserERKNS5_3UidE = 0x000b2318;
_ZN2nn2sf4cmif6client6detail13CmifProxyImplINS_7account31IAccountServiceForSystemServiceENS2_15CmifDomainProxyINS0_4hipc6client38Hipc2ClientSessionManagedProxyKindBaseINS9_18Hipc2ProxyKindBaseILNS8_6detail11MessageTypeE4EEEEEEENS0_25StatelessAllocationPolicyINS0_22ExpHeapStaticAllocatorILm2048ENS5_6detail12ObjectHolder24ObjectHolderAllocatorTagEEEEENS5_31IAccountServiceForAdministratorEE34_nn_sf_sync_DebugSetUserStateCloseERKNS5_3UidE = 0x000b2338;
_ZN2nn2sf4cmif6client6detail13CmifProxyImplINS_7account31IAccountServiceForSystemServiceENS2_15CmifDomainProxyINS0_4hipc6client38Hipc2ClientSessionManagedProxyKindBaseINS9_18Hipc2ProxyKindBaseILNS8_6detail11MessageTypeE4EEEEEEENS0_25StatelessAllocationPolicyINS0_22ExpHeapStaticAllocatorILm2048ENS5_6detail12ObjectHolder24ObjectHolderAllocatorTagEEEEENS5_31IAccountServiceForAdministratorEE33_nn_sf_sync_DebugSetUserStateOpenERKNS5_3UidE = 0x000b2358;
_ZN2nn2sf4cmif6client6detail13CmifProxyImplINS_7account31IAccountServiceForAdministratorENS2_15CmifDomainProxyINS0_4hipc6client38Hipc2ClientSessionManagedProxyKindBaseINS9_18Hipc2ProxyKindBaseILNS8_6detail11MessageTypeE4EEEEEEENS0_25StatelessAllocationPolicyINS0_22ExpHeapStaticAllocatorILm2048ENS5_6detail12ObjectHolder24ObjectHolderAllocatorTagEEEEES6_E33_nn_sf_sync_BeginUserRegistrationENS0_3OutINS5_3UidEvEE = 0x000b2378;
_ZN2nn2sf4cmif6client6detail13CmifProxyImplINS_7account31IAccountServiceForAdministratorENS2_15CmifDomainProxyINS0_4hipc6client38Hipc2ClientSessionManagedProxyKindBaseINS9_18Hipc2ProxyKindBaseILNS8_6detail11MessageTypeE4EEEEEEENS0_25StatelessAllocationPolicyINS0_22ExpHeapStaticAllocatorILm2048ENS5_6detail12ObjectHolder24ObjectHolderAllocatorTagEEEEES6_E36_nn_sf_sync_CompleteUserRegistrationERKNS5_3UidE = 0x000b2398;
_ZN2nn2sf4cmif6client6detail13CmifProxyImplINS_7account31IAccountServiceForAdministratorENS2_15CmifDomainProxyINS0_4hipc6client38Hipc2ClientSessionManagedProxyKindBaseINS9_18Hipc2ProxyKindBaseILNS8_6detail11MessageTypeE4EEEEEEENS0_25StatelessAllocationPolicyINS0_22ExpHeapStaticAllocatorILm2048ENS5_6detail12ObjectHolder24ObjectHolderAllocatorTagEEEEES6_E34_nn_sf_sync_CancelUserRegistrationERKNS5_3UidE = 0x000b23b8;
_ZN2nn2sf4cmif6client6detail13CmifProxyImplINS_7account31IAccountServiceForAdministratorENS2_15CmifDomainProxyINS0_4hipc6client38Hipc2ClientSessionManagedProxyKindBaseINS9_18Hipc2ProxyKindBaseILNS8_6detail11MessageTypeE4EEEEEEENS0_25StatelessAllocationPolicyINS0_22ExpHeapStaticAllocatorILm2048ENS5_6detail12ObjectHolder24ObjectHolderAllocatorTagEEEEES6_E22_nn_sf_sync_DeleteUserERKNS5_3UidE = 0x000b23d8;
_ZN2nn2sf4cmif6client6detail13CmifProxyImplINS_7account31IAccountServiceForAdministratorENS2_15CmifDomainProxyINS0_4hipc6client38Hipc2ClientSessionManagedProxyKindBaseINS9_18Hipc2ProxyKindBaseILNS8_6detail11MessageTypeE4EEEEEEENS0_25StatelessAllocationPolicyINS0_22ExpHeapStaticAllocatorILm2048ENS5_6detail12ObjectHolder24ObjectHolderAllocatorTagEEEEES6_E27_nn_sf_sync_SetUserPositionERKNS5_3UidEi = 0x000b23f8;
_ZN2nn2sf4cmif6client6detail13CmifProxyImplINS_7account31IAccountServiceForAdministratorENS2_15CmifDomainProxyINS0_4hipc6client38Hipc2ClientSessionManagedProxyKindBaseINS9_18Hipc2ProxyKindBaseILNS8_6detail11MessageTypeE4EEEEEEENS0_25StatelessAllocationPolicyINS0_22ExpHeapStaticAllocatorILm2048ENS5_6detail12ObjectHolder24ObjectHolderAllocatorTagEEEEES6_E28_nn_sf_sync_GetProfileEditorENS0_3OutINS0_13SharedPointerINS5_7profile14IProfileEditorEEEvEERKNS5_3UidE = 0x000b241c;
_ZN2nn2sf4cmif6client6detail13CmifProxyImplINS_7account31IAccountServiceForAdministratorENS2_15CmifDomainProxyINS0_4hipc6client38Hipc2ClientSessionManagedProxyKindBaseINS9_18Hipc2ProxyKindBaseILNS8_6detail11MessageTypeE4EEEEEEENS0_25StatelessAllocationPolicyINS0_22ExpHeapStaticAllocatorILm2048ENS5_6detail12ObjectHolder24ObjectHolderAllocatorTagEEEEES6_E44_nn_sf_sync_CompleteUserRegistrationForciblyERKNS5_3UidE = 0x000b24b0;
_ZN2nn2sf4cmif6client6detail13CmifProxyImplINS_7account31IAccountServiceForAdministratorENS2_15CmifDomainProxyINS0_4hipc6client38Hipc2ClientSessionManagedProxyKindBaseINS9_18Hipc2ProxyKindBaseILNS8_6detail11MessageTypeE4EEEEEEENS0_25StatelessAllocationPolicyINS0_22ExpHeapStaticAllocatorILm2048ENS5_6detail12ObjectHolder24ObjectHolderAllocatorTagEEEEES6_E45_nn_sf_sync_CreateFloatingRegistrationRequestENS0_3OutINS0_13SharedPointerINS5_4baas28IFloatingRegistrationRequestEEEvEEONS0_12NativeHandleEj = 0x000b24d0;
_ZN2nn2sf4cmif6client6detail13CmifProxyImplINS_7account31IAccountServiceForAdministratorENS2_15CmifDomainProxyINS0_4hipc6client38Hipc2ClientSessionManagedProxyKindBaseINS9_18Hipc2ProxyKindBaseILNS8_6detail11MessageTypeE4EEEEEEENS0_25StatelessAllocationPolicyINS0_22ExpHeapStaticAllocatorILm2048ENS5_6detail12ObjectHolder24ObjectHolderAllocatorTagEEEEES6_E36_nn_sf_sync_AuthenticateServiceAsyncENS0_3OutINS0_13SharedPointerINSJ_13IAsyncContextEEEvEE = 0x000b2570;
_ZN2nn2sf4cmif6client6detail13CmifProxyImplINS_7account31IAccountServiceForAdministratorENS2_15CmifDomainProxyINS0_4hipc6client38Hipc2ClientSessionManagedProxyKindBaseINS9_18Hipc2ProxyKindBaseILNS8_6detail11MessageTypeE4EEEEEEENS0_25StatelessAllocationPolicyINS0_22ExpHeapStaticAllocatorILm2048ENS5_6detail12ObjectHolder24ObjectHolderAllocatorTagEEEEES6_E39_nn_sf_sync_GetBaasAccountAdministratorENS0_3OutINS0_13SharedPointerINS5_4baas14IAdministratorEEEvEERKNS5_3UidE = 0x000b25f8;
_ZN2nn2sf4cmif6client6detail13CmifProxyImplINS_7account31IAccountServiceForAdministratorENS2_15CmifDomainProxyINS0_4hipc6client38Hipc2ClientSessionManagedProxyKindBaseINS9_18Hipc2ProxyKindBaseILNS8_6detail11MessageTypeE4EEEEEEENS0_25StatelessAllocationPolicyINS0_22ExpHeapStaticAllocatorILm2048ENS5_6detail12ObjectHolder24ObjectHolderAllocatorTagEEEEES6_E58_nn_sf_sync_ProxyProcedureForGuestLoginWithNintendoAccountENS0_3OutINS0_13SharedPointerINS5_3nas29IOAuthProcedureForExternalNsaEEEvEERKNSJ_4UuidE = 0x000b268c;
_ZN2nn2sf4cmif6client6detail13CmifProxyImplINS_7account31IAccountServiceForAdministratorENS2_15CmifDomainProxyINS0_4hipc6client38Hipc2ClientSessionManagedProxyKindBaseINS9_18Hipc2ProxyKindBaseILNS8_6detail11MessageTypeE4EEEEEEENS0_25StatelessAllocationPolicyINS0_22ExpHeapStaticAllocatorILm2048ENS5_6detail12ObjectHolder24ObjectHolderAllocatorTagEEEEES6_E68_nn_sf_sync_ProxyProcedureForFloatingRegistrationWithNintendoAccountENS0_3OutINS0_13SharedPointerINS5_3nas29IOAuthProcedureForExternalNsaEEEvEERKNSJ_4UuidE = 0x000b2720;
_ZN2nn2sf4cmif6client6detail13CmifProxyImplINS_7account31IAccountServiceForAdministratorENS2_15CmifDomainProxyINS0_4hipc6client38Hipc2ClientSessionManagedProxyKindBaseINS9_18Hipc2ProxyKindBaseILNS8_6detail11MessageTypeE4EEEEEEENS0_25StatelessAllocationPolicyINS0_22ExpHeapStaticAllocatorILm2048ENS5_6detail12ObjectHolder24ObjectHolderAllocatorTagEEEEES6_E35_nn_sf_sync_SuspendBackgroundDaemonENS0_3OutINS0_13SharedPointerINSJ_14ISessionObjectEEEvEE = 0x000b27b4;
_ZN2nn2sf4cmif6client6detail13CmifProxyImplINS_7account19IAccountServiceBaseENS2_15CmifDomainProxyINS0_4hipc6client38Hipc2ClientSessionManagedProxyKindBaseINS9_18Hipc2ProxyKindBaseILNS8_6detail11MessageTypeE4EEEEEEENS0_25StatelessAllocationPolicyINS0_22ExpHeapStaticAllocatorILm2048ENS5_6detail12ObjectHolder24ObjectHolderAllocatorTagEEEEENS5_31IAccountServiceForAdministratorEE17GetCmifBaseObjectEv = 0x000b283c;
_ZThn32_N2nn2sf4cmif6client6detail13CmifProxyImplINS_7account19IAccountServiceBaseENS2_15CmifDomainProxyINS0_4hipc6client38Hipc2ClientSessionManagedProxyKindBaseINS9_18Hipc2ProxyKindBaseILNS8_6detail11MessageTypeE4EEEEEEENS0_25StatelessAllocationPolicyINS0_22ExpHeapStaticAllocatorILm2048ENS5_6detail12ObjectHolder24ObjectHolderAllocatorTagEEEEENS5_31IAccountServiceForAdministratorEE17GetCmifBaseObjectEv = 0x000b284c;
_ZN2nn2sf4cmif6client34CmifDomainProxyClientCoreProcessorINS0_4hipc6client38Hipc2ClientSessionManagedProxyKindBaseINS5_18Hipc2ProxyKindBaseILNS4_6detail11MessageTypeE4EEEEENS1_6detail14CoreMethodInfoINSt3__15tupleIJNSC_17InRawArgumentInfoILm16ELm8ELl8EEENSG_ILm4ELm4ELl0EEEEEELm24ELm0ELb0EEESJ_E7ProcessEPNS2_23CmifDomainClientMessageISB_E15ProxyBaseObjectENS2_23InRawClientArgumentTypeILm16ELm8EvEENSQ_ILm4ELm4EvEEj = 0x000b2854;
_ZN2nn2sf4cmif6client32GetClientProcessorWithObjectBaseINS2_15CmifDomainProxyINS0_4hipc6client38Hipc2ClientSessionManagedProxyKindBaseINS6_18Hipc2ProxyKindBaseILNS5_6detail11MessageTypeE4EEEEEEEE14ObjectAssignerINS0_25StatelessAllocationPolicyINS0_22ExpHeapStaticAllocatorILm2048ENS_7account6detail12ObjectHolder24ObjectHolderAllocatorTagEEEEENS0_6detail23StatelessDummyAllocatorEE14AllocateObjectINSI_7profile14IProfileEditorEEEvi = 0x000b29b4;
_ZN2nn2sf6detail39ObjectImplFactoryWithStatelessAllocatorINS0_4cmif6client16CmifProxyFactoryINS_7account7profile14IProfileEditorENS4_15CmifDomainProxyINS0_4hipc6client38Hipc2ClientSessionManagedProxyKindBaseINSB_18Hipc2ProxyKindBaseILNSA_6detail11MessageTypeE4EEEEEEENS0_25StatelessAllocationPolicyINS0_22ExpHeapStaticAllocatorILm2048ENS6_6detail12ObjectHolder24ObjectHolderAllocatorTagEEEEEE13ServiceObjectESP_E6Object12AddReferenceEv = 0x000b2a68;
_ZN2nn2sf6detail39ObjectImplFactoryWithStatelessAllocatorINS0_4cmif6client16CmifProxyFactoryINS_7account7profile14IProfileEditorENS4_15CmifDomainProxyINS0_4hipc6client38Hipc2ClientSessionManagedProxyKindBaseINSB_18Hipc2ProxyKindBaseILNSA_6detail11MessageTypeE4EEEEEEENS0_25StatelessAllocationPolicyINS0_22ExpHeapStaticAllocatorILm2048ENS6_6detail12ObjectHolder24ObjectHolderAllocatorTagEEEEEE13ServiceObjectESP_E6Object7ReleaseEv = 0x000b2a70;
_ZN2nn2sf4cmif6client6detail13CmifProxyImplINS_7account7profile8IProfileENS2_15CmifDomainProxyINS0_4hipc6client38Hipc2ClientSessionManagedProxyKindBaseINSA_18Hipc2ProxyKindBaseILNS9_6detail11MessageTypeE4EEEEEEENS0_25StatelessAllocationPolicyINS0_22ExpHeapStaticAllocatorILm2048ENS5_6detail12ObjectHolder24ObjectHolderAllocatorTagEEEEENS6_14IProfileEditorEE12GetProxyInfoEv = 0x000b2ae4;
_ZN2nn2sf4cmif6client6detail13CmifProxyImplINS_7account7profile8IProfileENS2_15CmifDomainProxyINS0_4hipc6client38Hipc2ClientSessionManagedProxyKindBaseINSA_18Hipc2ProxyKindBaseILNS9_6detail11MessageTypeE4EEEEEEENS0_25StatelessAllocationPolicyINS0_22ExpHeapStaticAllocatorILm2048ENS5_6detail12ObjectHolder24ObjectHolderAllocatorTagEEEEENS6_14IProfileEditorEE15_nn_sf_sync_GetENS0_3OutINS6_11ProfileBaseEvEENSR_INS6_8UserDataEvEE = 0x000b2aec;
_ZN2nn2sf4cmif6client6detail13CmifProxyImplINS_7account7profile8IProfileENS2_15CmifDomainProxyINS0_4hipc6client38Hipc2ClientSessionManagedProxyKindBaseINSA_18Hipc2ProxyKindBaseILNS9_6detail11MessageTypeE4EEEEEEENS0_25StatelessAllocationPolicyINS0_22ExpHeapStaticAllocatorILm2048ENS5_6detail12ObjectHolder24ObjectHolderAllocatorTagEEEEENS6_14IProfileEditorEE19_nn_sf_sync_GetBaseENS0_3OutINS6_11ProfileBaseEvEE = 0x000b2b10;
_ZN2nn2sf4cmif6client6detail13CmifProxyImplINS_7account7profile8IProfileENS2_15CmifDomainProxyINS0_4hipc6client38Hipc2ClientSessionManagedProxyKindBaseINSA_18Hipc2ProxyKindBaseILNS9_6detail11MessageTypeE4EEEEEEENS0_25StatelessAllocationPolicyINS0_22ExpHeapStaticAllocatorILm2048ENS5_6detail12ObjectHolder24ObjectHolderAllocatorTagEEEEENS6_14IProfileEditorEE24_nn_sf_sync_GetImageSizeENS0_3OutIjvEE = 0x000b2b30;
_ZN2nn2sf4cmif6client6detail13CmifProxyImplINS_7account7profile8IProfileENS2_15CmifDomainProxyINS0_4hipc6client38Hipc2ClientSessionManagedProxyKindBaseINSA_18Hipc2ProxyKindBaseILNS9_6detail11MessageTypeE4EEEEEEENS0_25StatelessAllocationPolicyINS0_22ExpHeapStaticAllocatorILm2048ENS5_6detail12ObjectHolder24ObjectHolderAllocatorTagEEEEENS6_14IProfileEditorEE21_nn_sf_sync_LoadImageENS0_3OutIjvEERKNS0_9OutBufferE = 0x000b2b50;
_ZN2nn2sf4cmif6client6detail13CmifProxyImplINS_7account7profile14IProfileEditorENS2_15CmifDomainProxyINS0_4hipc6client38Hipc2ClientSessionManagedProxyKindBaseINSA_18Hipc2ProxyKindBaseILNS9_6detail11MessageTypeE4EEEEEEENS0_25StatelessAllocationPolicyINS0_22ExpHeapStaticAllocatorILm2048ENS5_6detail12ObjectHolder24ObjectHolderAllocatorTagEEEEES7_E17_nn_sf_sync_StoreERKNS6_11ProfileBaseERKNS6_8UserDataE = 0x000b2b78;
_ZN2nn2sf4cmif6client6detail13CmifProxyImplINS_7account7profile14IProfileEditorENS2_15CmifDomainProxyINS0_4hipc6client38Hipc2ClientSessionManagedProxyKindBaseINSA_18Hipc2ProxyKindBaseILNS9_6detail11MessageTypeE4EEEEEEENS0_25StatelessAllocationPolicyINS0_22ExpHeapStaticAllocatorILm2048ENS5_6detail12ObjectHolder24ObjectHolderAllocatorTagEEEEES7_E26_nn_sf_sync_StoreWithImageERKNS6_11ProfileBaseERKNS6_8UserDataERKNS0_8InBufferE = 0x000b2b9c;
_ZN2nn2sf4cmif6client6detail13CmifProxyImplINS_7account7profile8IProfileENS2_15CmifDomainProxyINS0_4hipc6client38Hipc2ClientSessionManagedProxyKindBaseINSA_18Hipc2ProxyKindBaseILNS9_6detail11MessageTypeE4EEEEEEENS0_25StatelessAllocationPolicyINS0_22ExpHeapStaticAllocatorILm2048ENS5_6detail12ObjectHolder24ObjectHolderAllocatorTagEEEEENS6_14IProfileEditorEE17GetCmifBaseObjectEv = 0x000b2bc4;
_ZThn32_N2nn2sf4cmif6client6detail13CmifProxyImplINS_7account7profile8IProfileENS2_15CmifDomainProxyINS0_4hipc6client38Hipc2ClientSessionManagedProxyKindBaseINSA_18Hipc2ProxyKindBaseILNS9_6detail11MessageTypeE4EEEEEEENS0_25StatelessAllocationPolicyINS0_22ExpHeapStaticAllocatorILm2048ENS5_6detail12ObjectHolder24ObjectHolderAllocatorTagEEEEENS6_14IProfileEditorEE17GetCmifBaseObjectEv = 0x000b2bd4;
_ZN2nn2sf4cmif6client34CmifDomainProxyClientCoreProcessorINS0_4hipc6client38Hipc2ClientSessionManagedProxyKindBaseINS5_18Hipc2ProxyKindBaseILNS4_6detail11MessageTypeE4EEEEENS1_6detail14CoreMethodInfoINSt3__15tupleIJNSC_17InRawArgumentInfoILm56ELm8ELl0EEENSC_18BufferArgumentInfoILi0ELi25ELm128EEEEEELm56ELm0ELb0EEESK_E7ProcessEPNS2_23CmifDomainClientMessageISB_E15ProxyBaseObjectENS2_23InRawClientArgumentTypeILm56ELm8EvEENS2_24BufferClientArgumentTypeEj = 0x000b2bdc;
_ZN2nn2sf4cmif6client34CmifDomainProxyClientCoreProcessorINS0_4hipc6client38Hipc2ClientSessionManagedProxyKindBaseINS5_18Hipc2ProxyKindBaseILNS4_6detail11MessageTypeE4EEEEENS1_6detail14CoreMethodInfoINSt3__15tupleIJNSC_17InRawArgumentInfoILm56ELm8ELl0EEENSC_18BufferArgumentInfoILi0ELi25ELm128EEENSI_ILi1ELi5ELm0EEEEEELm56ELm0ELb0EEESL_E7ProcessEPNS2_23CmifDomainClientMessageISB_E15ProxyBaseObjectENS2_23InRawClientArgumentTypeILm56ELm8EvEENS2_24BufferClientArgumentTypeESU_j = 0x000b2db4;
_ZN2nn2sf4cmif6client32GetClientProcessorWithObjectBaseINS2_15CmifDomainProxyINS0_4hipc6client38Hipc2ClientSessionManagedProxyKindBaseINS6_18Hipc2ProxyKindBaseILNS5_6detail11MessageTypeE4EEEEEEEE14ObjectAssignerINS0_25StatelessAllocationPolicyINS0_22ExpHeapStaticAllocatorILm2048ENS_7account6detail12ObjectHolder24ObjectHolderAllocatorTagEEEEENS0_6detail23StatelessDummyAllocatorEE14AllocateObjectINSI_4baas28IFloatingRegistrationRequestEEEvi = 0x000b2fa4;
_ZN2nn2sf6detail39ObjectImplFactoryWithStatelessAllocatorINS0_4cmif6client16CmifProxyFactoryINS_7account4baas28IFloatingRegistrationRequestENS4_15CmifDomainProxyINS0_4hipc6client38Hipc2ClientSessionManagedProxyKindBaseINSB_18Hipc2ProxyKindBaseILNSA_6detail11MessageTypeE4EEEEEEENS0_25StatelessAllocationPolicyINS0_22ExpHeapStaticAllocatorILm2048ENS6_6detail12ObjectHolder24ObjectHolderAllocatorTagEEEEEE13ServiceObjectESP_E6Object12AddReferenceEv = 0x000b3058;
_ZN2nn2sf6detail39ObjectImplFactoryWithStatelessAllocatorINS0_4cmif6client16CmifProxyFactoryINS_7account4baas28IFloatingRegistrationRequestENS4_15CmifDomainProxyINS0_4hipc6client38Hipc2ClientSessionManagedProxyKindBaseINSB_18Hipc2ProxyKindBaseILNSA_6detail11MessageTypeE4EEEEEEENS0_25StatelessAllocationPolicyINS0_22ExpHeapStaticAllocatorILm2048ENS6_6detail12ObjectHolder24ObjectHolderAllocatorTagEEEEEE13ServiceObjectESP_E6Object7ReleaseEv = 0x000b3060;
_ZN2nn2sf4cmif6client6detail13CmifProxyImplINS_7account4baas18IGuestLoginRequestENS2_15CmifDomainProxyINS0_4hipc6client38Hipc2ClientSessionManagedProxyKindBaseINSA_18Hipc2ProxyKindBaseILNS9_6detail11MessageTypeE4EEEEEEENS0_25StatelessAllocationPolicyINS0_22ExpHeapStaticAllocatorILm2048ENS5_6detail12ObjectHolder24ObjectHolderAllocatorTagEEEEENS6_28IFloatingRegistrationRequestEE12GetProxyInfoEv = 0x000b30d4;
_ZN2nn2sf4cmif6client6detail13CmifProxyImplINS_7account4baas18IGuestLoginRequestENS2_15CmifDomainProxyINS0_4hipc6client38Hipc2ClientSessionManagedProxyKindBaseINSA_18Hipc2ProxyKindBaseILNS9_6detail11MessageTypeE4EEEEEEENS0_25StatelessAllocationPolicyINS0_22ExpHeapStaticAllocatorILm2048ENS5_6detail12ObjectHolder24ObjectHolderAllocatorTagEEEEENS6_28IFloatingRegistrationRequestEE24_nn_sf_sync_GetSessionIdENS0_3OutINSK_4UuidEvEE = 0x000b30dc;
_ZN2nn2sf4cmif6client6detail13CmifProxyImplINS_7account4baas18IGuestLoginRequestENS2_15CmifDomainProxyINS0_4hipc6client38Hipc2ClientSessionManagedProxyKindBaseINSA_18Hipc2ProxyKindBaseILNS9_6detail11MessageTypeE4EEEEEEENS0_25StatelessAllocationPolicyINS0_22ExpHeapStaticAllocatorILm2048ENS5_6detail12ObjectHolder24ObjectHolderAllocatorTagEEEEENS6_28IFloatingRegistrationRequestEE24_nn_sf_sync_GetAccountIdENS0_3OutINS5_23NetworkServiceAccountIdEvEE = 0x000b30fc;
_ZN2nn2sf4cmif6client6detail13CmifProxyImplINS_7account4baas18IGuestLoginRequestENS2_15CmifDomainProxyINS0_4hipc6client38Hipc2ClientSessionManagedProxyKindBaseINSA_18Hipc2ProxyKindBaseILNS9_6detail11MessageTypeE4EEEEEEENS0_25StatelessAllocationPolicyINS0_22ExpHeapStaticAllocatorILm2048ENS5_6detail12ObjectHolder24ObjectHolderAllocatorTagEEEEENS6_28IFloatingRegistrationRequestEE38_nn_sf_sync_GetLinkedNintendoAccountIdENS0_3OutINS5_17NintendoAccountIdEvEE = 0x000b311c;
_ZN2nn2sf4cmif6client6detail13CmifProxyImplINS_7account4baas18IGuestLoginRequestENS2_15CmifDomainProxyINS0_4hipc6client38Hipc2ClientSessionManagedProxyKindBaseINSA_18Hipc2ProxyKindBaseILNS9_6detail11MessageTypeE4EEEEEEENS0_25StatelessAllocationPolicyINS0_22ExpHeapStaticAllocatorILm2048ENS5_6detail12ObjectHolder24ObjectHolderAllocatorTagEEEEENS6_28IFloatingRegistrationRequestEE23_nn_sf_sync_GetNicknameERKNS0_8OutArrayIcEE = 0x000b313c;
_ZN2nn2sf4cmif6client6detail13CmifProxyImplINS_7account4baas18IGuestLoginRequestENS2_15CmifDomainProxyINS0_4hipc6client38Hipc2ClientSessionManagedProxyKindBaseINSA_18Hipc2ProxyKindBaseILNS9_6detail11MessageTypeE4EEEEEEENS0_25StatelessAllocationPolicyINS0_22ExpHeapStaticAllocatorILm2048ENS5_6detail12ObjectHolder24ObjectHolderAllocatorTagEEEEENS6_28IFloatingRegistrationRequestEE27_nn_sf_sync_GetProfileImageENS0_3OutIjvEERKNS0_9OutBufferE = 0x000b3164;
_ZN2nn2sf4cmif6client6detail13CmifProxyImplINS_7account4baas18IGuestLoginRequestENS2_15CmifDomainProxyINS0_4hipc6client38Hipc2ClientSessionManagedProxyKindBaseINSA_18Hipc2ProxyKindBaseILNS9_6detail11MessageTypeE4EEEEEEENS0_25StatelessAllocationPolicyINS0_22ExpHeapStaticAllocatorILm2048ENS5_6detail12ObjectHolder24ObjectHolderAllocatorTagEEEEENS6_28IFloatingRegistrationRequestEE28_nn_sf_sync_LoadIdTokenCacheENS0_3OutIjvEERKNS0_9OutBufferE = 0x000b318c;
_ZN2nn2sf4cmif6client6detail13CmifProxyImplINS_7account4baas28IFloatingRegistrationRequestENS2_15CmifDomainProxyINS0_4hipc6client38Hipc2ClientSessionManagedProxyKindBaseINSA_18Hipc2ProxyKindBaseILNS9_6detail11MessageTypeE4EEEEEEENS0_25StatelessAllocationPolicyINS0_22ExpHeapStaticAllocatorILm2048ENS5_6detail12ObjectHolder24ObjectHolderAllocatorTagEEEEES7_E25_nn_sf_sync_RegisterAsyncENS0_3OutINS5_3UidEvEENSQ_INS0_13SharedPointerINSK_13IAsyncContextEEEvEE = 0x000b31b4;
_ZN2nn2sf4cmif6client6detail13CmifProxyImplINS_7account4baas28IFloatingRegistrationRequestENS2_15CmifDomainProxyINS0_4hipc6client38Hipc2ClientSessionManagedProxyKindBaseINSA_18Hipc2ProxyKindBaseILNS9_6detail11MessageTypeE4EEEEEEENS0_25StatelessAllocationPolicyINS0_22ExpHeapStaticAllocatorILm2048ENS5_6detail12ObjectHolder24ObjectHolderAllocatorTagEEEEES7_E32_nn_sf_sync_RegisterWithUidAsyncENS0_3OutINS0_13SharedPointerINSK_13IAsyncContextEEEvEERKNS5_3UidE = 0x000b3248;
_ZN2nn2sf4cmif6client6detail13CmifProxyImplINS_7account4baas28IFloatingRegistrationRequestENS2_15CmifDomainProxyINS0_4hipc6client38Hipc2ClientSessionManagedProxyKindBaseINSA_18Hipc2ProxyKindBaseILNS9_6detail11MessageTypeE4EEEEEEENS0_25StatelessAllocationPolicyINS0_22ExpHeapStaticAllocatorILm2048ENS5_6detail12ObjectHolder24ObjectHolderAllocatorTagEEEEES7_E42_nn_sf_sync_SetSystemProgramIdentificationERKNS5_27SystemProgramIdentificationEm = 0x000b32dc;
_ZN2nn2sf4cmif6client6detail13CmifProxyImplINS_7account4baas28IFloatingRegistrationRequestENS2_15CmifDomainProxyINS0_4hipc6client38Hipc2ClientSessionManagedProxyKindBaseINSA_18Hipc2ProxyKindBaseILNS9_6detail11MessageTypeE4EEEEEEENS0_25StatelessAllocationPolicyINS0_22ExpHeapStaticAllocatorILm2048ENS5_6detail12ObjectHolder24ObjectHolderAllocatorTagEEEEES7_E35_nn_sf_sync_EnsureIdTokenCacheAsyncENS0_3OutINS0_13SharedPointerINSK_13IAsyncContextEEEvEE = 0x000b3308;
_ZN2nn2sf4cmif6client6detail13CmifProxyImplINS_7account4baas18IGuestLoginRequestENS2_15CmifDomainProxyINS0_4hipc6client38Hipc2ClientSessionManagedProxyKindBaseINSA_18Hipc2ProxyKindBaseILNS9_6detail11MessageTypeE4EEEEEEENS0_25StatelessAllocationPolicyINS0_22ExpHeapStaticAllocatorILm2048ENS5_6detail12ObjectHolder24ObjectHolderAllocatorTagEEEEENS6_28IFloatingRegistrationRequestEE17GetCmifBaseObjectEv = 0x000b3390;
_ZThn32_N2nn2sf4cmif6client6detail13CmifProxyImplINS_7account4baas18IGuestLoginRequestENS2_15CmifDomainProxyINS0_4hipc6client38Hipc2ClientSessionManagedProxyKindBaseINSA_18Hipc2ProxyKindBaseILNS9_6detail11MessageTypeE4EEEEEEENS0_25StatelessAllocationPolicyINS0_22ExpHeapStaticAllocatorILm2048ENS5_6detail12ObjectHolder24ObjectHolderAllocatorTagEEEEENS6_28IFloatingRegistrationRequestEE17GetCmifBaseObjectEv = 0x000b33a0;
_ZN2nn2sf4cmif6client34CmifDomainProxyClientCoreProcessorINS0_4hipc6client38Hipc2ClientSessionManagedProxyKindBaseINS5_18Hipc2ProxyKindBaseILNS4_6detail11MessageTypeE4EEEEENS1_6detail14CoreMethodInfoINSt3__15tupleIJNSC_18OutRawArgumentInfoILm16ELm8ELl0EEENSC_21OutObjectArgumentInfoILi0ELi0EEEEEELm0ELm16ELb0EEESK_E21ProcessWithOutObjectsEPNS2_23CmifDomainClientMessageISB_E15ProxyBaseObjectENS2_24OutRawClientArgumentTypeILm16ELm8EEENS2_27OutObjectClientArgumentTypeEjPNS0_13SharedPointerINS0_14IServiceObjectEEE = 0x000b33a8;
_ZN2nn2sf4cmif6client32GetClientProcessorWithObjectBaseINS2_15CmifDomainProxyINS0_4hipc6client38Hipc2ClientSessionManagedProxyKindBaseINS6_18Hipc2ProxyKindBaseILNS5_6detail11MessageTypeE4EEEEEEEE14ObjectAssignerINS0_25StatelessAllocationPolicyINS0_22ExpHeapStaticAllocatorILm2048ENS_7account6detail12ObjectHolder24ObjectHolderAllocatorTagEEEEENS0_6detail23StatelessDummyAllocatorEE14AllocateObjectINSI_4baas14IAdministratorEEEvi = 0x000b3580;
_ZN2nn2sf6detail39ObjectImplFactoryWithStatelessAllocatorINS0_4cmif6client16CmifProxyFactoryINS_7account4baas14IAdministratorENS4_15CmifDomainProxyINS0_4hipc6client38Hipc2ClientSessionManagedProxyKindBaseINSB_18Hipc2ProxyKindBaseILNSA_6detail11MessageTypeE4EEEEEEENS0_25StatelessAllocationPolicyINS0_22ExpHeapStaticAllocatorILm2048ENS6_6detail12ObjectHolder24ObjectHolderAllocatorTagEEEEEE13ServiceObjectESP_E6Object12AddReferenceEv = 0x000b3634;
_ZN2nn2sf6detail39ObjectImplFactoryWithStatelessAllocatorINS0_4cmif6client16CmifProxyFactoryINS_7account4baas14IAdministratorENS4_15CmifDomainProxyINS0_4hipc6client38Hipc2ClientSessionManagedProxyKindBaseINSB_18Hipc2ProxyKindBaseILNSA_6detail11MessageTypeE4EEEEEEENS0_25StatelessAllocationPolicyINS0_22ExpHeapStaticAllocatorILm2048ENS6_6detail12ObjectHolder24ObjectHolderAllocatorTagEEEEEE13ServiceObjectESP_E6Object7ReleaseEv = 0x000b363c;
_ZN2nn2sf4cmif6client6detail13CmifProxyImplINS_7account4baas12IManagerBaseENS2_15CmifDomainProxyINS0_4hipc6client38Hipc2ClientSessionManagedProxyKindBaseINSA_18Hipc2ProxyKindBaseILNS9_6detail11MessageTypeE4EEEEEEENS0_25StatelessAllocationPolicyINS0_22ExpHeapStaticAllocatorILm2048ENS5_6detail12ObjectHolder24ObjectHolderAllocatorTagEEEEENS6_14IAdministratorEE12GetProxyInfoEv = 0x000b36b0;
_ZN2nn2sf4cmif6client6detail13CmifProxyImplINS_7account4baas12IManagerBaseENS2_15CmifDomainProxyINS0_4hipc6client38Hipc2ClientSessionManagedProxyKindBaseINSA_18Hipc2ProxyKindBaseILNS9_6detail11MessageTypeE4EEEEEEENS0_25StatelessAllocationPolicyINS0_22ExpHeapStaticAllocatorILm2048ENS5_6detail12ObjectHolder24ObjectHolderAllocatorTagEEEEENS6_14IAdministratorEE29_nn_sf_sync_CheckAvailabilityEv = 0x000b36b8;
_ZN2nn2sf4cmif6client6detail13CmifProxyImplINS_7account4baas12IManagerBaseENS2_15CmifDomainProxyINS0_4hipc6client38Hipc2ClientSessionManagedProxyKindBaseINSA_18Hipc2ProxyKindBaseILNS9_6detail11MessageTypeE4EEEEEEENS0_25StatelessAllocationPolicyINS0_22ExpHeapStaticAllocatorILm2048ENS5_6detail12ObjectHolder24ObjectHolderAllocatorTagEEEEENS6_14IAdministratorEE24_nn_sf_sync_GetAccountIdENS0_3OutINS5_23NetworkServiceAccountIdEvEE = 0x000b36d8;
_ZN2nn2sf4cmif6client6detail13CmifProxyImplINS_7account4baas12IManagerBaseENS2_15CmifDomainProxyINS0_4hipc6client38Hipc2ClientSessionManagedProxyKindBaseINSA_18Hipc2ProxyKindBaseILNS9_6detail11MessageTypeE4EEEEEEENS0_25StatelessAllocationPolicyINS0_22ExpHeapStaticAllocatorILm2048ENS5_6detail12ObjectHolder24ObjectHolderAllocatorTagEEEEENS6_14IAdministratorEE35_nn_sf_sync_EnsureIdTokenCacheAsyncENS0_3OutINS0_13SharedPointerINSK_13IAsyncContextEEEvEE = 0x000b36f8;
_ZN2nn2sf4cmif6client6detail13CmifProxyImplINS_7account4baas12IManagerBaseENS2_15CmifDomainProxyINS0_4hipc6client38Hipc2ClientSessionManagedProxyKindBaseINSA_18Hipc2ProxyKindBaseILNS9_6detail11MessageTypeE4EEEEEEENS0_25StatelessAllocationPolicyINS0_22ExpHeapStaticAllocatorILm2048ENS5_6detail12ObjectHolder24ObjectHolderAllocatorTagEEEEENS6_14IAdministratorEE28_nn_sf_sync_LoadIdTokenCacheENS0_3OutIjvEERKNS0_9OutBufferE = 0x000b3780;
_ZN2nn2sf4cmif6client6detail13CmifProxyImplINS_7account4baas24IManagerForSystemServiceENS2_15CmifDomainProxyINS0_4hipc6client38Hipc2ClientSessionManagedProxyKindBaseINSA_18Hipc2ProxyKindBaseILNS9_6detail11MessageTypeE4EEEEEEENS0_25StatelessAllocationPolicyINS0_22ExpHeapStaticAllocatorILm2048ENS5_6detail12ObjectHolder24ObjectHolderAllocatorTagEEEEENS6_14IAdministratorEE42_nn_sf_sync_SetSystemProgramIdentificationERKNS5_27SystemProgramIdentificationEm = 0x000b37a8;
_ZN2nn2sf4cmif6client6detail13CmifProxyImplINS_7account4baas24IManagerForSystemServiceENS2_15CmifDomainProxyINS0_4hipc6client38Hipc2ClientSessionManagedProxyKindBaseINSA_18Hipc2ProxyKindBaseILNS9_6detail11MessageTypeE4EEEEEEENS0_25StatelessAllocationPolicyINS0_22ExpHeapStaticAllocatorILm2048ENS5_6detail12ObjectHolder24ObjectHolderAllocatorTagEEEEENS6_14IAdministratorEE32_nn_sf_sync_GetNintendoAccountIdENS0_3OutINS5_17NintendoAccountIdEvEE = 0x000b37d4;
_ZN2nn2sf4cmif6client6detail13CmifProxyImplINS_7account4baas24IManagerForSystemServiceENS2_15CmifDomainProxyINS0_4hipc6client38Hipc2ClientSessionManagedProxyKindBaseINSA_18Hipc2ProxyKindBaseILNS9_6detail11MessageTypeE4EEEEEEENS0_25StatelessAllocationPolicyINS0_22ExpHeapStaticAllocatorILm2048ENS5_6detail12ObjectHolder24ObjectHolderAllocatorTagEEEEENS6_14IAdministratorEE47_nn_sf_sync_GetNintendoAccountUserResourceCacheENS0_3OutINS5_17NintendoAccountIdEvEENSR_INS5_3nas11NasUserBaseEvEERKNS0_9OutBufferE = 0x000b37f4;
_ZN2nn2sf4cmif6client6detail13CmifProxyImplINS_7account4baas24IManagerForSystemServiceENS2_15CmifDomainProxyINS0_4hipc6client38Hipc2ClientSessionManagedProxyKindBaseINSA_18Hipc2ProxyKindBaseILNS9_6detail11MessageTypeE4EEEEEEENS0_25StatelessAllocationPolicyINS0_22ExpHeapStaticAllocatorILm2048ENS5_6detail12ObjectHolder24ObjectHolderAllocatorTagEEEEENS6_14IAdministratorEE56_nn_sf_sync_RefreshNintendoAccountUserResourceCacheAsyncENS0_3OutINS0_13SharedPointerINSK_13IAsyncContextEEEvEE = 0x000b381c;
_ZN2nn2sf4cmif6client6detail13CmifProxyImplINS_7account4baas24IManagerForSystemServiceENS2_15CmifDomainProxyINS0_4hipc6client38Hipc2ClientSessionManagedProxyKindBaseINSA_18Hipc2ProxyKindBaseILNS9_6detail11MessageTypeE4EEEEEEENS0_25StatelessAllocationPolicyINS0_22ExpHeapStaticAllocatorILm2048ENS5_6detail12ObjectHolder24ObjectHolderAllocatorTagEEEEENS6_14IAdministratorEE72_nn_sf_sync_RefreshNintendoAccountUserResourceCacheAsyncIfSecondsElapsedENS0_3OutIbvEENSR_INS0_13SharedPointerINSK_13IAsyncContextEEEvEEj = 0x000b38a4;
_ZN2nn2sf4cmif6client6detail13CmifProxyImplINS_7account4baas24IManagerForSystemServiceENS2_15CmifDomainProxyINS0_4hipc6client38Hipc2ClientSessionManagedProxyKindBaseINSA_18Hipc2ProxyKindBaseILNS9_6detail11MessageTypeE4EEEEEEENS0_25StatelessAllocationPolicyINS0_22ExpHeapStaticAllocatorILm2048ENS5_6detail12ObjectHolder24ObjectHolderAllocatorTagEEEEENS6_14IAdministratorEE38_nn_sf_sync_CreateAuthorizationRequestENS0_3OutINS0_13SharedPointerINS5_3nas21IAuthorizationRequestEEEvEERKNST_13NasClientInfoERKNS5_45NintendoAccountAuthorizationRequestParametersEONS0_12NativeHandleEj = 0x000b3944;
_ZN2nn2sf4cmif6client6detail13CmifProxyImplINS_7account4baas14IAdministratorENS2_15CmifDomainProxyINS0_4hipc6client38Hipc2ClientSessionManagedProxyKindBaseINSA_18Hipc2ProxyKindBaseILNS9_6detail11MessageTypeE4EEEEEEENS0_25StatelessAllocationPolicyINS0_22ExpHeapStaticAllocatorILm2048ENS5_6detail12ObjectHolder24ObjectHolderAllocatorTagEEEEES7_E24_nn_sf_sync_IsRegisteredENS0_3OutIbvEE = 0x000b3a0c;
_ZN2nn2sf4cmif6client6detail13CmifProxyImplINS_7account4baas14IAdministratorENS2_15CmifDomainProxyINS0_4hipc6client38Hipc2ClientSessionManagedProxyKindBaseINSA_18Hipc2ProxyKindBaseILNS9_6detail11MessageTypeE4EEEEEEENS0_25StatelessAllocationPolicyINS0_22ExpHeapStaticAllocatorILm2048ENS5_6detail12ObjectHolder24ObjectHolderAllocatorTagEEEEES7_E25_nn_sf_sync_RegisterAsyncENS0_3OutINS0_13SharedPointerINSK_13IAsyncContextEEEvEE = 0x000b3a2c;
_ZN2nn2sf4cmif6client6detail13CmifProxyImplINS_7account4baas14IAdministratorENS2_15CmifDomainProxyINS0_4hipc6client38Hipc2ClientSessionManagedProxyKindBaseINSA_18Hipc2ProxyKindBaseILNS9_6detail11MessageTypeE4EEEEEEENS0_25StatelessAllocationPolicyINS0_22ExpHeapStaticAllocatorILm2048ENS5_6detail12ObjectHolder24ObjectHolderAllocatorTagEEEEES7_E27_nn_sf_sync_UnregisterAsyncENS0_3OutINS0_13SharedPointerINSK_13IAsyncContextEEEvEE = 0x000b3ab4;
_ZN2nn2sf4cmif6client6detail13CmifProxyImplINS_7account4baas14IAdministratorENS2_15CmifDomainProxyINS0_4hipc6client38Hipc2ClientSessionManagedProxyKindBaseINSA_18Hipc2ProxyKindBaseILNS9_6detail11MessageTypeE4EEEEEEENS0_25StatelessAllocationPolicyINS0_22ExpHeapStaticAllocatorILm2048ENS5_6detail12ObjectHolder24ObjectHolderAllocatorTagEEEEES7_E41_nn_sf_sync_DeleteRegistrationInfoLocallyEv = 0x000b3b3c;
_ZN2nn2sf4cmif6client6detail13CmifProxyImplINS_7account4baas14IAdministratorENS2_15CmifDomainProxyINS0_4hipc6client38Hipc2ClientSessionManagedProxyKindBaseINSA_18Hipc2ProxyKindBaseILNS9_6detail11MessageTypeE4EEEEEEENS0_25StatelessAllocationPolicyINS0_22ExpHeapStaticAllocatorILm2048ENS5_6detail12ObjectHolder24ObjectHolderAllocatorTagEEEEES7_E35_nn_sf_sync_SynchronizeProfileAsyncENS0_3OutINS0_13SharedPointerINSK_13IAsyncContextEEEvEE = 0x000b3b5c;
_ZN2nn2sf4cmif6client6detail13CmifProxyImplINS_7account4baas14IAdministratorENS2_15CmifDomainProxyINS0_4hipc6client38Hipc2ClientSessionManagedProxyKindBaseINSA_18Hipc2ProxyKindBaseILNS9_6detail11MessageTypeE4EEEEEEENS0_25StatelessAllocationPolicyINS0_22ExpHeapStaticAllocatorILm2048ENS5_6detail12ObjectHolder24ObjectHolderAllocatorTagEEEEES7_E30_nn_sf_sync_UploadProfileAsyncENS0_3OutINS0_13SharedPointerINSK_13IAsyncContextEEEvEE = 0x000b3be4;
_ZN2nn2sf4cmif6client6detail13CmifProxyImplINS_7account4baas14IAdministratorENS2_15CmifDomainProxyINS0_4hipc6client38Hipc2ClientSessionManagedProxyKindBaseINSA_18Hipc2ProxyKindBaseILNS9_6detail11MessageTypeE4EEEEEEENS0_25StatelessAllocationPolicyINS0_22ExpHeapStaticAllocatorILm2048ENS5_6detail12ObjectHolder24ObjectHolderAllocatorTagEEEEES7_E51_nn_sf_sync_SynchronizeProfileAsyncIfSecondsElapsedENS0_3OutIbvEENSQ_INS0_13SharedPointerINSK_13IAsyncContextEEEvEEj = 0x000b3c6c;
_ZN2nn2sf4cmif6client6detail13CmifProxyImplINS_7account4baas14IAdministratorENS2_15CmifDomainProxyINS0_4hipc6client38Hipc2ClientSessionManagedProxyKindBaseINSA_18Hipc2ProxyKindBaseILNS9_6detail11MessageTypeE4EEEEEEENS0_25StatelessAllocationPolicyINS0_22ExpHeapStaticAllocatorILm2048ENS5_6detail12ObjectHolder24ObjectHolderAllocatorTagEEEEES7_E39_nn_sf_sync_IsLinkedWithNintendoAccountENS0_3OutIbvEE = 0x000b3d0c;
_ZN2nn2sf4cmif6client6detail13CmifProxyImplINS_7account4baas14IAdministratorENS2_15CmifDomainProxyINS0_4hipc6client38Hipc2ClientSessionManagedProxyKindBaseINSA_18Hipc2ProxyKindBaseILNS9_6detail11MessageTypeE4EEEEEEENS0_25StatelessAllocationPolicyINS0_22ExpHeapStaticAllocatorILm2048ENS5_6detail12ObjectHolder24ObjectHolderAllocatorTagEEEEES7_E52_nn_sf_sync_CreateProcedureToLinkWithNintendoAccountENS0_3OutINS0_13SharedPointerINS5_3nas40IOAuthProcedureForNintendoAccountLinkageEEEvEE = 0x000b3d2c;
_ZN2nn2sf4cmif6client6detail13CmifProxyImplINS_7account4baas14IAdministratorENS2_15CmifDomainProxyINS0_4hipc6client38Hipc2ClientSessionManagedProxyKindBaseINSA_18Hipc2ProxyKindBaseILNS9_6detail11MessageTypeE4EEEEEEENS0_25StatelessAllocationPolicyINS0_22ExpHeapStaticAllocatorILm2048ENS5_6detail12ObjectHolder24ObjectHolderAllocatorTagEEEEES7_E52_nn_sf_sync_ResumeProcedureToLinkWithNintendoAccountENS0_3OutINS0_13SharedPointerINS5_3nas40IOAuthProcedureForNintendoAccountLinkageEEEvEERKNSK_4UuidE = 0x000b3db4;
_ZN2nn2sf4cmif6client6detail13CmifProxyImplINS_7account4baas14IAdministratorENS2_15CmifDomainProxyINS0_4hipc6client38Hipc2ClientSessionManagedProxyKindBaseINSA_18Hipc2ProxyKindBaseILNS9_6detail11MessageTypeE4EEEEEEENS0_25StatelessAllocationPolicyINS0_22ExpHeapStaticAllocatorILm2048ENS5_6detail12ObjectHolder24ObjectHolderAllocatorTagEEEEES7_E64_nn_sf_sync_CreateProcedureToUpdateLinkageStateOfNintendoAccountENS0_3OutINS0_13SharedPointerINS5_4http15IOAuthProcedureEEEvEE = 0x000b3e48;
_ZN2nn2sf4cmif6client6detail13CmifProxyImplINS_7account4baas14IAdministratorENS2_15CmifDomainProxyINS0_4hipc6client38Hipc2ClientSessionManagedProxyKindBaseINSA_18Hipc2ProxyKindBaseILNS9_6detail11MessageTypeE4EEEEEEENS0_25StatelessAllocationPolicyINS0_22ExpHeapStaticAllocatorILm2048ENS5_6detail12ObjectHolder24ObjectHolderAllocatorTagEEEEES7_E64_nn_sf_sync_ResumeProcedureToUpdateLinkageStateOfNintendoAccountENS0_3OutINS0_13SharedPointerINS5_4http15IOAuthProcedureEEEvEERKNSK_4UuidE = 0x000b3ed0;
_ZN2nn2sf4cmif6client6detail13CmifProxyImplINS_7account4baas14IAdministratorENS2_15CmifDomainProxyINS0_4hipc6client38Hipc2ClientSessionManagedProxyKindBaseINSA_18Hipc2ProxyKindBaseILNS9_6detail11MessageTypeE4EEEEEEENS0_25StatelessAllocationPolicyINS0_22ExpHeapStaticAllocatorILm2048ENS5_6detail12ObjectHolder24ObjectHolderAllocatorTagEEEEES7_E56_nn_sf_sync_CreateProcedureToLinkNnidWithNintendoAccountENS0_3OutINS0_13SharedPointerINS5_4http15IOAuthProcedureEEEvEE = 0x000b3f64;
_ZN2nn2sf4cmif6client6detail13CmifProxyImplINS_7account4baas14IAdministratorENS2_15CmifDomainProxyINS0_4hipc6client38Hipc2ClientSessionManagedProxyKindBaseINSA_18Hipc2ProxyKindBaseILNS9_6detail11MessageTypeE4EEEEEEENS0_25StatelessAllocationPolicyINS0_22ExpHeapStaticAllocatorILm2048ENS5_6detail12ObjectHolder24ObjectHolderAllocatorTagEEEEES7_E56_nn_sf_sync_ResumeProcedureToLinkNnidWithNintendoAccountENS0_3OutINS0_13SharedPointerINS5_4http15IOAuthProcedureEEEvEERKNSK_4UuidE = 0x000b3fec;
_ZN2nn2sf4cmif6client6detail13CmifProxyImplINS_7account4baas14IAdministratorENS2_15CmifDomainProxyINS0_4hipc6client38Hipc2ClientSessionManagedProxyKindBaseINSA_18Hipc2ProxyKindBaseILNS9_6detail11MessageTypeE4EEEEEEENS0_25StatelessAllocationPolicyINS0_22ExpHeapStaticAllocatorILm2048ENS5_6detail12ObjectHolder24ObjectHolderAllocatorTagEEEEES7_E77_nn_sf_sync_ProxyProcedureToAcquireApplicationAuthorizationForNintendoAccountENS0_3OutINS0_13SharedPointerINS5_4http15IOAuthProcedureEEEvEERKNSK_4UuidE = 0x000b4080;
_ZN2nn2sf4cmif6client6detail13CmifProxyImplINS_7account4baas14IAdministratorENS2_15CmifDomainProxyINS0_4hipc6client38Hipc2ClientSessionManagedProxyKindBaseINSA_18Hipc2ProxyKindBaseILNS9_6detail11MessageTypeE4EEEEEEENS0_25StatelessAllocationPolicyINS0_22ExpHeapStaticAllocatorILm2048ENS5_6detail12ObjectHolder24ObjectHolderAllocatorTagEEEEES7_E43_nn_sf_sync_DebugUnlinkNintendoAccountAsyncENS0_3OutINS0_13SharedPointerINSK_13IAsyncContextEEEvEE = 0x000b4114;
_ZN2nn2sf4cmif6client6detail13CmifProxyImplINS_7account4baas14IAdministratorENS2_15CmifDomainProxyINS0_4hipc6client38Hipc2ClientSessionManagedProxyKindBaseINSA_18Hipc2ProxyKindBaseILNS9_6detail11MessageTypeE4EEEEEEENS0_25StatelessAllocationPolicyINS0_22ExpHeapStaticAllocatorILm2048ENS5_6detail12ObjectHolder24ObjectHolderAllocatorTagEEEEES7_E43_nn_sf_sync_DebugSetAvailabilityErrorDetailEj = 0x000b419c;
_ZN2nn2sf4cmif6client6detail13CmifProxyImplINS_7account4baas12IManagerBaseENS2_15CmifDomainProxyINS0_4hipc6client38Hipc2ClientSessionManagedProxyKindBaseINSA_18Hipc2ProxyKindBaseILNS9_6detail11MessageTypeE4EEEEEEENS0_25StatelessAllocationPolicyINS0_22ExpHeapStaticAllocatorILm2048ENS5_6detail12ObjectHolder24ObjectHolderAllocatorTagEEEEENS6_14IAdministratorEE17GetCmifBaseObjectEv = 0x000b41c0;
_ZThn32_N2nn2sf4cmif6client6detail13CmifProxyImplINS_7account4baas12IManagerBaseENS2_15CmifDomainProxyINS0_4hipc6client38Hipc2ClientSessionManagedProxyKindBaseINSA_18Hipc2ProxyKindBaseILNS9_6detail11MessageTypeE4EEEEEEENS0_25StatelessAllocationPolicyINS0_22ExpHeapStaticAllocatorILm2048ENS5_6detail12ObjectHolder24ObjectHolderAllocatorTagEEEEENS6_14IAdministratorEE17GetCmifBaseObjectEv = 0x000b41d0;
_ZN2nn2sf4cmif6client32GetClientProcessorWithObjectBaseINS2_15CmifDomainProxyINS0_4hipc6client38Hipc2ClientSessionManagedProxyKindBaseINS6_18Hipc2ProxyKindBaseILNS5_6detail11MessageTypeE4EEEEEEEE14ObjectAssignerINS0_25StatelessAllocationPolicyINS0_22ExpHeapStaticAllocatorILm2048ENS_7account6detail12ObjectHolder24ObjectHolderAllocatorTagEEEEENS0_6detail23StatelessDummyAllocatorEE14AllocateObjectINSI_3nas40IOAuthProcedureForNintendoAccountLinkageEEEvi = 0x000b41d8;
_ZN2nn2sf6detail39ObjectImplFactoryWithStatelessAllocatorINS0_4cmif6client16CmifProxyFactoryINS_7account3nas40IOAuthProcedureForNintendoAccountLinkageENS4_15CmifDomainProxyINS0_4hipc6client38Hipc2ClientSessionManagedProxyKindBaseINSB_18Hipc2ProxyKindBaseILNSA_6detail11MessageTypeE4EEEEEEENS0_25StatelessAllocationPolicyINS0_22ExpHeapStaticAllocatorILm2048ENS6_6detail12ObjectHolder24ObjectHolderAllocatorTagEEEEEE13ServiceObjectESP_E6Object12AddReferenceEv = 0x000b428c;
_ZN2nn2sf6detail39ObjectImplFactoryWithStatelessAllocatorINS0_4cmif6client16CmifProxyFactoryINS_7account3nas40IOAuthProcedureForNintendoAccountLinkageENS4_15CmifDomainProxyINS0_4hipc6client38Hipc2ClientSessionManagedProxyKindBaseINSB_18Hipc2ProxyKindBaseILNSA_6detail11MessageTypeE4EEEEEEENS0_25StatelessAllocationPolicyINS0_22ExpHeapStaticAllocatorILm2048ENS6_6detail12ObjectHolder24ObjectHolderAllocatorTagEEEEEE13ServiceObjectESP_E6Object7ReleaseEv = 0x000b4294;
_ZN2nn2sf4cmif6client6detail13CmifProxyImplINS_7account4http15IOAuthProcedureENS2_15CmifDomainProxyINS0_4hipc6client38Hipc2ClientSessionManagedProxyKindBaseINSA_18Hipc2ProxyKindBaseILNS9_6detail11MessageTypeE4EEEEEEENS0_25StatelessAllocationPolicyINS0_22ExpHeapStaticAllocatorILm2048ENS5_6detail12ObjectHolder24ObjectHolderAllocatorTagEEEEENS5_3nas40IOAuthProcedureForNintendoAccountLinkageEE12GetProxyInfoEv = 0x000b4308;
_ZN2nn2sf4cmif6client6detail13CmifProxyImplINS_7account4http15IOAuthProcedureENS2_15CmifDomainProxyINS0_4hipc6client38Hipc2ClientSessionManagedProxyKindBaseINSA_18Hipc2ProxyKindBaseILNS9_6detail11MessageTypeE4EEEEEEENS0_25StatelessAllocationPolicyINS0_22ExpHeapStaticAllocatorILm2048ENS5_6detail12ObjectHolder24ObjectHolderAllocatorTagEEEEENS5_3nas40IOAuthProcedureForNintendoAccountLinkageEE24_nn_sf_sync_PrepareAsyncENS0_3OutINS0_13SharedPointerINSK_13IAsyncContextEEEvEE = 0x000b4310;
_ZN2nn2sf4cmif6client6detail13CmifProxyImplINS_7account4http15IOAuthProcedureENS2_15CmifDomainProxyINS0_4hipc6client38Hipc2ClientSessionManagedProxyKindBaseINSA_18Hipc2ProxyKindBaseILNS9_6detail11MessageTypeE4EEEEEEENS0_25StatelessAllocationPolicyINS0_22ExpHeapStaticAllocatorILm2048ENS5_6detail12ObjectHolder24ObjectHolderAllocatorTagEEEEENS5_3nas40IOAuthProcedureForNintendoAccountLinkageEE22_nn_sf_sync_GetRequestENS0_3OutINS5_10RequestUrlEvEENSS_INS5_11CallbackUriEvEE = 0x000b4398;
_ZN2nn2sf4cmif6client6detail13CmifProxyImplINS_7account4http15IOAuthProcedureENS2_15CmifDomainProxyINS0_4hipc6client38Hipc2ClientSessionManagedProxyKindBaseINSA_18Hipc2ProxyKindBaseILNS9_6detail11MessageTypeE4EEEEEEENS0_25StatelessAllocationPolicyINS0_22ExpHeapStaticAllocatorILm2048ENS5_6detail12ObjectHolder24ObjectHolderAllocatorTagEEEEENS5_3nas40IOAuthProcedureForNintendoAccountLinkageEE25_nn_sf_sync_ApplyResponseERKNS0_7InArrayIcEE = 0x000b43c8;
_ZN2nn2sf4cmif6client6detail13CmifProxyImplINS_7account4http15IOAuthProcedureENS2_15CmifDomainProxyINS0_4hipc6client38Hipc2ClientSessionManagedProxyKindBaseINSA_18Hipc2ProxyKindBaseILNS9_6detail11MessageTypeE4EEEEEEENS0_25StatelessAllocationPolicyINS0_22ExpHeapStaticAllocatorILm2048ENS5_6detail12ObjectHolder24ObjectHolderAllocatorTagEEEEENS5_3nas40IOAuthProcedureForNintendoAccountLinkageEE30_nn_sf_sync_ApplyResponseAsyncENS0_3OutINS0_13SharedPointerINSK_13IAsyncContextEEEvEERKNS0_7InArrayIcEE = 0x000b43f0;
_ZN2nn2sf4cmif6client6detail13CmifProxyImplINS_7account4http15IOAuthProcedureENS2_15CmifDomainProxyINS0_4hipc6client38Hipc2ClientSessionManagedProxyKindBaseINSA_18Hipc2ProxyKindBaseILNS9_6detail11MessageTypeE4EEEEEEENS0_25StatelessAllocationPolicyINS0_22ExpHeapStaticAllocatorILm2048ENS5_6detail12ObjectHolder24ObjectHolderAllocatorTagEEEEENS5_3nas40IOAuthProcedureForNintendoAccountLinkageEE19_nn_sf_sync_SuspendENS0_3OutINSK_4UuidEvEE = 0x000b4484;
_ZN2nn2sf4cmif6client6detail13CmifProxyImplINS_7account3nas40IOAuthProcedureForNintendoAccountLinkageENS2_15CmifDomainProxyINS0_4hipc6client38Hipc2ClientSessionManagedProxyKindBaseINSA_18Hipc2ProxyKindBaseILNS9_6detail11MessageTypeE4EEEEEEENS0_25StatelessAllocationPolicyINS0_22ExpHeapStaticAllocatorILm2048ENS5_6detail12ObjectHolder24ObjectHolderAllocatorTagEEEEES7_E31_nn_sf_sync_GetRequestWithThemeENS0_3OutINS5_10RequestUrlEvEENSQ_INS5_11CallbackUriEvEEi = 0x000b44a4;
_ZN2nn2sf4cmif6client6detail13CmifProxyImplINS_7account3nas40IOAuthProcedureForNintendoAccountLinkageENS2_15CmifDomainProxyINS0_4hipc6client38Hipc2ClientSessionManagedProxyKindBaseINSA_18Hipc2ProxyKindBaseILNS9_6detail11MessageTypeE4EEEEEEENS0_25StatelessAllocationPolicyINS0_22ExpHeapStaticAllocatorILm2048ENS5_6detail12ObjectHolder24ObjectHolderAllocatorTagEEEEES7_E43_nn_sf_sync_IsNetworkServiceAccountReplacedENS0_3OutIbvEE = 0x000b44d8;
_ZN2nn2sf4cmif6client6detail13CmifProxyImplINS_7account3nas40IOAuthProcedureForNintendoAccountLinkageENS2_15CmifDomainProxyINS0_4hipc6client38Hipc2ClientSessionManagedProxyKindBaseINSA_18Hipc2ProxyKindBaseILNS9_6detail11MessageTypeE4EEEEEEENS0_25StatelessAllocationPolicyINS0_22ExpHeapStaticAllocatorILm2048ENS5_6detail12ObjectHolder24ObjectHolderAllocatorTagEEEEES7_E50_nn_sf_sync_GetUrlForIntroductionOfExtraMembershipENS0_3OutINS5_10RequestUrlEvEE = 0x000b44f8;
_ZN2nn2sf4cmif6client6detail13CmifProxyImplINS_7account4http15IOAuthProcedureENS2_15CmifDomainProxyINS0_4hipc6client38Hipc2ClientSessionManagedProxyKindBaseINSA_18Hipc2ProxyKindBaseILNS9_6detail11MessageTypeE4EEEEEEENS0_25StatelessAllocationPolicyINS0_22ExpHeapStaticAllocatorILm2048ENS5_6detail12ObjectHolder24ObjectHolderAllocatorTagEEEEENS5_3nas40IOAuthProcedureForNintendoAccountLinkageEE17GetCmifBaseObjectEv = 0x000b451c;
_ZThn32_N2nn2sf4cmif6client6detail13CmifProxyImplINS_7account4http15IOAuthProcedureENS2_15CmifDomainProxyINS0_4hipc6client38Hipc2ClientSessionManagedProxyKindBaseINSA_18Hipc2ProxyKindBaseILNS9_6detail11MessageTypeE4EEEEEEENS0_25StatelessAllocationPolicyINS0_22ExpHeapStaticAllocatorILm2048ENS5_6detail12ObjectHolder24ObjectHolderAllocatorTagEEEEENS5_3nas40IOAuthProcedureForNintendoAccountLinkageEE17GetCmifBaseObjectEv = 0x000b452c;
_ZN2nn2sf4cmif6client34CmifDomainProxyClientCoreProcessorINS0_4hipc6client38Hipc2ClientSessionManagedProxyKindBaseINS5_18Hipc2ProxyKindBaseILNS4_6detail11MessageTypeE4EEEEENS1_6detail14CoreMethodInfoINSt3__15tupleIJNSC_18BufferArgumentInfoILi0ELi26ELm4096EEENSG_ILi1ELi26ELm256EEEEEELm0ELm0ELb0EEESJ_E7ProcessEPNS2_23CmifDomainClientMessageISB_E15ProxyBaseObjectENS2_24BufferClientArgumentTypeESQ_j = 0x000b4534;
_ZN2nn2sf4cmif6client34CmifDomainProxyClientCoreProcessorINS0_4hipc6client38Hipc2ClientSessionManagedProxyKindBaseINS5_18Hipc2ProxyKindBaseILNS4_6detail11MessageTypeE4EEEEENS1_6detail14CoreMethodInfoINSt3__15tupleIJNSC_18BufferArgumentInfoILi0ELi9ELm0EEEEEELm0ELm0ELb0EEESI_E7ProcessEPNS2_23CmifDomainClientMessageISB_E15ProxyBaseObjectENS2_24BufferClientArgumentTypeEj = 0x000b4704;
_ZN2nn2sf4cmif6client34CmifDomainProxyClientCoreProcessorINS0_4hipc6client38Hipc2ClientSessionManagedProxyKindBaseINS5_18Hipc2ProxyKindBaseILNS4_6detail11MessageTypeE4EEEEENS1_6detail14CoreMethodInfoINSt3__15tupleIJNSC_21OutObjectArgumentInfoILi0ELi0EEENSC_18BufferArgumentInfoILi0ELi9ELm0EEEEEELm0ELm0ELb0EEESK_E21ProcessWithOutObjectsEPNS2_23CmifDomainClientMessageISB_E15ProxyBaseObjectENS2_27OutObjectClientArgumentTypeENS2_24BufferClientArgumentTypeEjPNS0_13SharedPointerINS0_14IServiceObjectEEE = 0x000b48c0;
_ZN2nn2sf4cmif6client34CmifDomainProxyClientCoreProcessorINS0_4hipc6client38Hipc2ClientSessionManagedProxyKindBaseINS5_18Hipc2ProxyKindBaseILNS4_6detail11MessageTypeE4EEEEENS1_6detail14CoreMethodInfoINSt3__15tupleIJNSC_18BufferArgumentInfoILi0ELi26ELm4096EEENSG_ILi1ELi26ELm256EEENSC_17InRawArgumentInfoILm4ELm4ELl0EEEEEELm4ELm0ELb0EEESL_E7ProcessEPNS2_23CmifDomainClientMessageISB_E15ProxyBaseObjectENS2_24BufferClientArgumentTypeESS_NS2_23InRawClientArgumentTypeILm4ELm4EvEEj = 0x000b4b0c;
_ZN2nn2sf4cmif6client34CmifDomainProxyClientCoreProcessorINS0_4hipc6client38Hipc2ClientSessionManagedProxyKindBaseINS5_18Hipc2ProxyKindBaseILNS4_6detail11MessageTypeE4EEEEENS1_6detail14CoreMethodInfoINSt3__15tupleIJNSC_18BufferArgumentInfoILi0ELi26ELm4096EEEEEELm0ELm0ELb0EEESI_E7ProcessEPNS2_23CmifDomainClientMessageISB_E15ProxyBaseObjectENS2_24BufferClientArgumentTypeEj = 0x000b4ce8;
_ZN2nn2sf4cmif6client34CmifDomainProxyClientCoreProcessorINS0_4hipc6client38Hipc2ClientSessionManagedProxyKindBaseINS5_18Hipc2ProxyKindBaseILNS4_6detail11MessageTypeE4EEEEENS1_6detail14CoreMethodInfoINSt3__15tupleIJNSC_21OutObjectArgumentInfoILi0ELi0EEENSC_17InRawArgumentInfoILm16ELm4ELl0EEEEEELm16ELm0ELb0EEESK_E21ProcessWithOutObjectsEPNS2_23CmifDomainClientMessageISB_E15ProxyBaseObjectENS2_27OutObjectClientArgumentTypeENS2_23InRawClientArgumentTypeILm16ELm4EvEEjPNS0_13SharedPointerINS0_14IServiceObjectEEE = 0x000b4ea0;
_ZN2nn2sf4cmif6client32GetClientProcessorWithObjectBaseINS2_15CmifDomainProxyINS0_4hipc6client38Hipc2ClientSessionManagedProxyKindBaseINS6_18Hipc2ProxyKindBaseILNS5_6detail11MessageTypeE4EEEEEEEE14ObjectAssignerINS0_25StatelessAllocationPolicyINS0_22ExpHeapStaticAllocatorILm2048ENS_7account6detail12ObjectHolder24ObjectHolderAllocatorTagEEEEENS0_6detail23StatelessDummyAllocatorEE14AllocateObjectINSI_4http15IOAuthProcedureEEEvi = 0x000b5078;
_ZN2nn2sf6detail39ObjectImplFactoryWithStatelessAllocatorINS0_4cmif6client16CmifProxyFactoryINS_7account4http15IOAuthProcedureENS4_15CmifDomainProxyINS0_4hipc6client38Hipc2ClientSessionManagedProxyKindBaseINSB_18Hipc2ProxyKindBaseILNSA_6detail11MessageTypeE4EEEEEEENS0_25StatelessAllocationPolicyINS0_22ExpHeapStaticAllocatorILm2048ENS6_6detail12ObjectHolder24ObjectHolderAllocatorTagEEEEEE13ServiceObjectESP_E6Object12AddReferenceEv = 0x000b512c;
_ZN2nn2sf6detail39ObjectImplFactoryWithStatelessAllocatorINS0_4cmif6client16CmifProxyFactoryINS_7account4http15IOAuthProcedureENS4_15CmifDomainProxyINS0_4hipc6client38Hipc2ClientSessionManagedProxyKindBaseINSB_18Hipc2ProxyKindBaseILNSA_6detail11MessageTypeE4EEEEEEENS0_25StatelessAllocationPolicyINS0_22ExpHeapStaticAllocatorILm2048ENS6_6detail12ObjectHolder24ObjectHolderAllocatorTagEEEEEE13ServiceObjectESP_E6Object7ReleaseEv = 0x000b5134;
_ZN2nn2sf4cmif6client6detail13CmifProxyImplINS_7account4http15IOAuthProcedureENS2_15CmifDomainProxyINS0_4hipc6client38Hipc2ClientSessionManagedProxyKindBaseINSA_18Hipc2ProxyKindBaseILNS9_6detail11MessageTypeE4EEEEEEENS0_25StatelessAllocationPolicyINS0_22ExpHeapStaticAllocatorILm2048ENS5_6detail12ObjectHolder24ObjectHolderAllocatorTagEEEEES7_E12GetProxyInfoEv = 0x000b51a8;
_ZN2nn2sf4cmif6client6detail13CmifProxyImplINS_7account4http15IOAuthProcedureENS2_15CmifDomainProxyINS0_4hipc6client38Hipc2ClientSessionManagedProxyKindBaseINSA_18Hipc2ProxyKindBaseILNS9_6detail11MessageTypeE4EEEEEEENS0_25StatelessAllocationPolicyINS0_22ExpHeapStaticAllocatorILm2048ENS5_6detail12ObjectHolder24ObjectHolderAllocatorTagEEEEES7_E24_nn_sf_sync_PrepareAsyncENS0_3OutINS0_13SharedPointerINSK_13IAsyncContextEEEvEE = 0x000b51b0;
_ZN2nn2sf4cmif6client6detail13CmifProxyImplINS_7account4http15IOAuthProcedureENS2_15CmifDomainProxyINS0_4hipc6client38Hipc2ClientSessionManagedProxyKindBaseINSA_18Hipc2ProxyKindBaseILNS9_6detail11MessageTypeE4EEEEEEENS0_25StatelessAllocationPolicyINS0_22ExpHeapStaticAllocatorILm2048ENS5_6detail12ObjectHolder24ObjectHolderAllocatorTagEEEEES7_E22_nn_sf_sync_GetRequestENS0_3OutINS5_10RequestUrlEvEENSQ_INS5_11CallbackUriEvEE = 0x000b5238;
_ZN2nn2sf4cmif6client6detail13CmifProxyImplINS_7account4http15IOAuthProcedureENS2_15CmifDomainProxyINS0_4hipc6client38Hipc2ClientSessionManagedProxyKindBaseINSA_18Hipc2ProxyKindBaseILNS9_6detail11MessageTypeE4EEEEEEENS0_25StatelessAllocationPolicyINS0_22ExpHeapStaticAllocatorILm2048ENS5_6detail12ObjectHolder24ObjectHolderAllocatorTagEEEEES7_E25_nn_sf_sync_ApplyResponseERKNS0_7InArrayIcEE = 0x000b5268;
_ZN2nn2sf4cmif6client6detail13CmifProxyImplINS_7account4http15IOAuthProcedureENS2_15CmifDomainProxyINS0_4hipc6client38Hipc2ClientSessionManagedProxyKindBaseINSA_18Hipc2ProxyKindBaseILNS9_6detail11MessageTypeE4EEEEEEENS0_25StatelessAllocationPolicyINS0_22ExpHeapStaticAllocatorILm2048ENS5_6detail12ObjectHolder24ObjectHolderAllocatorTagEEEEES7_E30_nn_sf_sync_ApplyResponseAsyncENS0_3OutINS0_13SharedPointerINSK_13IAsyncContextEEEvEERKNS0_7InArrayIcEE = 0x000b5290;
_ZN2nn2sf4cmif6client6detail13CmifProxyImplINS_7account4http15IOAuthProcedureENS2_15CmifDomainProxyINS0_4hipc6client38Hipc2ClientSessionManagedProxyKindBaseINSA_18Hipc2ProxyKindBaseILNS9_6detail11MessageTypeE4EEEEEEENS0_25StatelessAllocationPolicyINS0_22ExpHeapStaticAllocatorILm2048ENS5_6detail12ObjectHolder24ObjectHolderAllocatorTagEEEEES7_E19_nn_sf_sync_SuspendENS0_3OutINSK_4UuidEvEE = 0x000b5324;
_ZN2nn2sf4cmif6client6detail13CmifProxyImplINS_7account4http15IOAuthProcedureENS2_15CmifDomainProxyINS0_4hipc6client38Hipc2ClientSessionManagedProxyKindBaseINSA_18Hipc2ProxyKindBaseILNS9_6detail11MessageTypeE4EEEEEEENS0_25StatelessAllocationPolicyINS0_22ExpHeapStaticAllocatorILm2048ENS5_6detail12ObjectHolder24ObjectHolderAllocatorTagEEEEES7_E17GetCmifBaseObjectEv = 0x000b5344;
_ZThn32_N2nn2sf4cmif6client6detail13CmifProxyImplINS_7account4http15IOAuthProcedureENS2_15CmifDomainProxyINS0_4hipc6client38Hipc2ClientSessionManagedProxyKindBaseINSA_18Hipc2ProxyKindBaseILNS9_6detail11MessageTypeE4EEEEEEENS0_25StatelessAllocationPolicyINS0_22ExpHeapStaticAllocatorILm2048ENS5_6detail12ObjectHolder24ObjectHolderAllocatorTagEEEEES7_E17GetCmifBaseObjectEv = 0x000b5354;
_ZN2nn2sf4cmif6client32GetClientProcessorWithObjectBaseINS2_15CmifDomainProxyINS0_4hipc6client38Hipc2ClientSessionManagedProxyKindBaseINS6_18Hipc2ProxyKindBaseILNS5_6detail11MessageTypeE4EEEEEEEE14ObjectAssignerINS0_25StatelessAllocationPolicyINS0_22ExpHeapStaticAllocatorILm2048ENS_7account6detail12ObjectHolder24ObjectHolderAllocatorTagEEEEENS0_6detail23StatelessDummyAllocatorEE14AllocateObjectINSI_3nas29IOAuthProcedureForExternalNsaEEEvi = 0x000b535c;
_ZN2nn2sf6detail39ObjectImplFactoryWithStatelessAllocatorINS0_4cmif6client16CmifProxyFactoryINS_7account3nas29IOAuthProcedureForExternalNsaENS4_15CmifDomainProxyINS0_4hipc6client38Hipc2ClientSessionManagedProxyKindBaseINSB_18Hipc2ProxyKindBaseILNSA_6detail11MessageTypeE4EEEEEEENS0_25StatelessAllocationPolicyINS0_22ExpHeapStaticAllocatorILm2048ENS6_6detail12ObjectHolder24ObjectHolderAllocatorTagEEEEEE13ServiceObjectESP_E6Object12AddReferenceEv = 0x000b5410;
_ZN2nn2sf6detail39ObjectImplFactoryWithStatelessAllocatorINS0_4cmif6client16CmifProxyFactoryINS_7account3nas29IOAuthProcedureForExternalNsaENS4_15CmifDomainProxyINS0_4hipc6client38Hipc2ClientSessionManagedProxyKindBaseINSB_18Hipc2ProxyKindBaseILNSA_6detail11MessageTypeE4EEEEEEENS0_25StatelessAllocationPolicyINS0_22ExpHeapStaticAllocatorILm2048ENS6_6detail12ObjectHolder24ObjectHolderAllocatorTagEEEEEE13ServiceObjectESP_E6Object7ReleaseEv = 0x000b5418;
_ZN2nn2sf4cmif6client6detail13CmifProxyImplINS_7account4http15IOAuthProcedureENS2_15CmifDomainProxyINS0_4hipc6client38Hipc2ClientSessionManagedProxyKindBaseINSA_18Hipc2ProxyKindBaseILNS9_6detail11MessageTypeE4EEEEEEENS0_25StatelessAllocationPolicyINS0_22ExpHeapStaticAllocatorILm2048ENS5_6detail12ObjectHolder24ObjectHolderAllocatorTagEEEEENS5_3nas29IOAuthProcedureForExternalNsaEE12GetProxyInfoEv = 0x000b548c;
_ZN2nn2sf4cmif6client6detail13CmifProxyImplINS_7account4http15IOAuthProcedureENS2_15CmifDomainProxyINS0_4hipc6client38Hipc2ClientSessionManagedProxyKindBaseINSA_18Hipc2ProxyKindBaseILNS9_6detail11MessageTypeE4EEEEEEENS0_25StatelessAllocationPolicyINS0_22ExpHeapStaticAllocatorILm2048ENS5_6detail12ObjectHolder24ObjectHolderAllocatorTagEEEEENS5_3nas29IOAuthProcedureForExternalNsaEE24_nn_sf_sync_PrepareAsyncENS0_3OutINS0_13SharedPointerINSK_13IAsyncContextEEEvEE = 0x000b5494;
_ZN2nn2sf4cmif6client6detail13CmifProxyImplINS_7account4http15IOAuthProcedureENS2_15CmifDomainProxyINS0_4hipc6client38Hipc2ClientSessionManagedProxyKindBaseINSA_18Hipc2ProxyKindBaseILNS9_6detail11MessageTypeE4EEEEEEENS0_25StatelessAllocationPolicyINS0_22ExpHeapStaticAllocatorILm2048ENS5_6detail12ObjectHolder24ObjectHolderAllocatorTagEEEEENS5_3nas29IOAuthProcedureForExternalNsaEE22_nn_sf_sync_GetRequestENS0_3OutINS5_10RequestUrlEvEENSS_INS5_11CallbackUriEvEE = 0x000b551c;
_ZN2nn2sf4cmif6client6detail13CmifProxyImplINS_7account4http15IOAuthProcedureENS2_15CmifDomainProxyINS0_4hipc6client38Hipc2ClientSessionManagedProxyKindBaseINSA_18Hipc2ProxyKindBaseILNS9_6detail11MessageTypeE4EEEEEEENS0_25StatelessAllocationPolicyINS0_22ExpHeapStaticAllocatorILm2048ENS5_6detail12ObjectHolder24ObjectHolderAllocatorTagEEEEENS5_3nas29IOAuthProcedureForExternalNsaEE25_nn_sf_sync_ApplyResponseERKNS0_7InArrayIcEE = 0x000b554c;
_ZN2nn2sf4cmif6client6detail13CmifProxyImplINS_7account4http15IOAuthProcedureENS2_15CmifDomainProxyINS0_4hipc6client38Hipc2ClientSessionManagedProxyKindBaseINSA_18Hipc2ProxyKindBaseILNS9_6detail11MessageTypeE4EEEEEEENS0_25StatelessAllocationPolicyINS0_22ExpHeapStaticAllocatorILm2048ENS5_6detail12ObjectHolder24ObjectHolderAllocatorTagEEEEENS5_3nas29IOAuthProcedureForExternalNsaEE30_nn_sf_sync_ApplyResponseAsyncENS0_3OutINS0_13SharedPointerINSK_13IAsyncContextEEEvEERKNS0_7InArrayIcEE = 0x000b5574;
_ZN2nn2sf4cmif6client6detail13CmifProxyImplINS_7account4http15IOAuthProcedureENS2_15CmifDomainProxyINS0_4hipc6client38Hipc2ClientSessionManagedProxyKindBaseINSA_18Hipc2ProxyKindBaseILNS9_6detail11MessageTypeE4EEEEEEENS0_25StatelessAllocationPolicyINS0_22ExpHeapStaticAllocatorILm2048ENS5_6detail12ObjectHolder24ObjectHolderAllocatorTagEEEEENS5_3nas29IOAuthProcedureForExternalNsaEE19_nn_sf_sync_SuspendENS0_3OutINSK_4UuidEvEE = 0x000b5608;
_ZN2nn2sf4cmif6client6detail13CmifProxyImplINS_7account3nas29IOAuthProcedureForExternalNsaENS2_15CmifDomainProxyINS0_4hipc6client38Hipc2ClientSessionManagedProxyKindBaseINSA_18Hipc2ProxyKindBaseILNS9_6detail11MessageTypeE4EEEEEEENS0_25StatelessAllocationPolicyINS0_22ExpHeapStaticAllocatorILm2048ENS5_6detail12ObjectHolder24ObjectHolderAllocatorTagEEEEES7_E24_nn_sf_sync_GetAccountIdENS0_3OutINS5_23NetworkServiceAccountIdEvEE = 0x000b5628;
_ZN2nn2sf4cmif6client6detail13CmifProxyImplINS_7account3nas29IOAuthProcedureForExternalNsaENS2_15CmifDomainProxyINS0_4hipc6client38Hipc2ClientSessionManagedProxyKindBaseINSA_18Hipc2ProxyKindBaseILNS9_6detail11MessageTypeE4EEEEEEENS0_25StatelessAllocationPolicyINS0_22ExpHeapStaticAllocatorILm2048ENS5_6detail12ObjectHolder24ObjectHolderAllocatorTagEEEEES7_E38_nn_sf_sync_GetLinkedNintendoAccountIdENS0_3OutINS5_17NintendoAccountIdEvEE = 0x000b5648;
_ZN2nn2sf4cmif6client6detail13CmifProxyImplINS_7account3nas29IOAuthProcedureForExternalNsaENS2_15CmifDomainProxyINS0_4hipc6client38Hipc2ClientSessionManagedProxyKindBaseINSA_18Hipc2ProxyKindBaseILNS9_6detail11MessageTypeE4EEEEEEENS0_25StatelessAllocationPolicyINS0_22ExpHeapStaticAllocatorILm2048ENS5_6detail12ObjectHolder24ObjectHolderAllocatorTagEEEEES7_E23_nn_sf_sync_GetNicknameERKNS0_8OutArrayIcEE = 0x000b5668;
_ZN2nn2sf4cmif6client6detail13CmifProxyImplINS_7account3nas29IOAuthProcedureForExternalNsaENS2_15CmifDomainProxyINS0_4hipc6client38Hipc2ClientSessionManagedProxyKindBaseINSA_18Hipc2ProxyKindBaseILNS9_6detail11MessageTypeE4EEEEEEENS0_25StatelessAllocationPolicyINS0_22ExpHeapStaticAllocatorILm2048ENS5_6detail12ObjectHolder24ObjectHolderAllocatorTagEEEEES7_E27_nn_sf_sync_GetProfileImageENS0_3OutIjvEERKNS0_9OutBufferE = 0x000b5690;
_ZN2nn2sf4cmif6client6detail13CmifProxyImplINS_7account4http15IOAuthProcedureENS2_15CmifDomainProxyINS0_4hipc6client38Hipc2ClientSessionManagedProxyKindBaseINSA_18Hipc2ProxyKindBaseILNS9_6detail11MessageTypeE4EEEEEEENS0_25StatelessAllocationPolicyINS0_22ExpHeapStaticAllocatorILm2048ENS5_6detail12ObjectHolder24ObjectHolderAllocatorTagEEEEENS5_3nas29IOAuthProcedureForExternalNsaEE17GetCmifBaseObjectEv = 0x000b56b8;
_ZThn32_N2nn2sf4cmif6client6detail13CmifProxyImplINS_7account4http15IOAuthProcedureENS2_15CmifDomainProxyINS0_4hipc6client38Hipc2ClientSessionManagedProxyKindBaseINSA_18Hipc2ProxyKindBaseILNS9_6detail11MessageTypeE4EEEEEEENS0_25StatelessAllocationPolicyINS0_22ExpHeapStaticAllocatorILm2048ENS5_6detail12ObjectHolder24ObjectHolderAllocatorTagEEEEENS5_3nas29IOAuthProcedureForExternalNsaEE17GetCmifBaseObjectEv = 0x000b56c8;
_ZN2nn2sf4cmif6client32GetClientProcessorWithObjectBaseINS2_15CmifDomainProxyINS0_4hipc6client38Hipc2ClientSessionManagedProxyKindBaseINS6_18Hipc2ProxyKindBaseILNS5_6detail11MessageTypeE4EEEEEEEE14ObjectAssignerINS0_25StatelessAllocationPolicyINS0_22ExpHeapStaticAllocatorILm2048ENS_7account6detail12ObjectHolder24ObjectHolderAllocatorTagEEEEENS0_6detail23StatelessDummyAllocatorEE14AllocateObjectINSJ_14ISessionObjectEEEvi = 0x000b56d0;
_ZN2nn2sf6detail39ObjectImplFactoryWithStatelessAllocatorINS0_4cmif6client16CmifProxyFactoryINS_7account6detail14ISessionObjectENS4_15CmifDomainProxyINS0_4hipc6client38Hipc2ClientSessionManagedProxyKindBaseINSB_18Hipc2ProxyKindBaseILNSA_6detail11MessageTypeE4EEEEEEENS0_25StatelessAllocationPolicyINS0_22ExpHeapStaticAllocatorILm2048ENS7_12ObjectHolder24ObjectHolderAllocatorTagEEEEEE13ServiceObjectESO_E6Object12AddReferenceEv = 0x000b5784;
_ZN2nn2sf6detail39ObjectImplFactoryWithStatelessAllocatorINS0_4cmif6client16CmifProxyFactoryINS_7account6detail14ISessionObjectENS4_15CmifDomainProxyINS0_4hipc6client38Hipc2ClientSessionManagedProxyKindBaseINSB_18Hipc2ProxyKindBaseILNSA_6detail11MessageTypeE4EEEEEEENS0_25StatelessAllocationPolicyINS0_22ExpHeapStaticAllocatorILm2048ENS7_12ObjectHolder24ObjectHolderAllocatorTagEEEEEE13ServiceObjectESO_E6Object7ReleaseEv = 0x000b578c;
_ZN2nn2sf4cmif6client6detail13CmifProxyImplINS_7account6detail14ISessionObjectENS2_15CmifDomainProxyINS0_4hipc6client38Hipc2ClientSessionManagedProxyKindBaseINSA_18Hipc2ProxyKindBaseILNS9_6detail11MessageTypeE4EEEEEEENS0_25StatelessAllocationPolicyINS0_22ExpHeapStaticAllocatorILm2048ENS6_12ObjectHolder24ObjectHolderAllocatorTagEEEEES7_E12GetProxyInfoEv = 0x000b5800;
_ZN2nn2sf4cmif6client6detail13CmifProxyImplINS_7account6detail14ISessionObjectENS2_15CmifDomainProxyINS0_4hipc6client38Hipc2ClientSessionManagedProxyKindBaseINSA_18Hipc2ProxyKindBaseILNS9_6detail11MessageTypeE4EEEEEEENS0_25StatelessAllocationPolicyINS0_22ExpHeapStaticAllocatorILm2048ENS6_12ObjectHolder24ObjectHolderAllocatorTagEEEEES7_E17_nn_sf_sync_DummyEv = 0x000b5808;
_ZN2nn2sf4cmif6client6detail13CmifProxyImplINS_7account6detail14ISessionObjectENS2_15CmifDomainProxyINS0_4hipc6client38Hipc2ClientSessionManagedProxyKindBaseINSA_18Hipc2ProxyKindBaseILNS9_6detail11MessageTypeE4EEEEEEENS0_25StatelessAllocationPolicyINS0_22ExpHeapStaticAllocatorILm2048ENS6_12ObjectHolder24ObjectHolderAllocatorTagEEEEES7_E17GetCmifBaseObjectEv = 0x000b5828;
_ZThn32_N2nn2sf4cmif6client6detail13CmifProxyImplINS_7account6detail14ISessionObjectENS2_15CmifDomainProxyINS0_4hipc6client38Hipc2ClientSessionManagedProxyKindBaseINSA_18Hipc2ProxyKindBaseILNS9_6detail11MessageTypeE4EEEEEEENS0_25StatelessAllocationPolicyINS0_22ExpHeapStaticAllocatorILm2048ENS6_12ObjectHolder24ObjectHolderAllocatorTagEEEEES7_E17GetCmifBaseObjectEv = 0x000b5838;
_ZN2nn7account12AsyncContext4SwapERS1_ = 0x000b5890;
_ZN2nn7account12AsyncContextC2EOS1_ = 0x000b58d8;
_ZN2nn7account12AsyncContextC1EOS1_ = 0x000b58d8;
_ZN2nn7account12AsyncContextaSEOS1_ = 0x000b590c;
_ZN2nn7account12AsyncContextC2EPNS0_6detail13IAsyncContextE = 0x000b59f8;
_ZN2nn7account12AsyncContextC1EPNS0_6detail13IAsyncContextE = 0x000b59f8;
_ZN2nn7account12AsyncContextC2EPNS0_6detail13IAsyncContextERKNS0_3UidE = 0x000b5a14;
_ZN2nn7account12AsyncContextC1EPNS0_6detail13IAsyncContextERKNS0_3UidE = 0x000b5a14;
_ZN2nn7account12AsyncContextC1Ev = 0x000b5a3c;
_ZN2nn7account12AsyncContextC2Ev = 0x000b5a3c;
_ZN2nn7account12AsyncContextD2Ev = 0x000b5a54;
_ZN2nn7account12AsyncContextD1Ev = 0x000b5a54;
_ZNK2nn7account12AsyncContextcvbEv = 0x000b5af4;
_ZN2nn7account12AsyncContextD0Ev = 0x000b5b04;
_ZN2nn7account12AsyncContext14GetSystemEventEPNS_2os11SystemEventE = 0x000b5bac;
_ZN2nn7account12AsyncContext6CancelEv = 0x000b5c24;
_ZN2nn7account12AsyncContext7HasDoneEPb = 0x000b5c48;
_ZN2nn7account12AsyncContext9GetResultEv = 0x000b5c6c;
_ZN2nn7account33InitializeBaasAccessTokenAccessorEv = 0x000b5c90;
_ZN2nn7account37InitializeBaasAccessTokenAccessorWithEONS_2sf13SharedPointerINS0_24IBaasAccessTokenAccessorEEE = 0x000b5d84;
_ZN2nn7account31FinalizeBaasAccessTokenAccessorEv = 0x000b5e30;
_ZN2nn7account31EnsureBaasAccessTokenCacheAsyncEPNS0_12AsyncContextERKNS0_3UidE = 0x000b5e98;
_ZN2nn7account24LoadBaasAccessTokenCacheEPmPcmRKNS0_3UidE = 0x000b5f70;
_ZN2nn7account22GetBaasDeviceAccountIdEPmRKNS0_3UidE = 0x000b601c;
_ZN2nn7account27PutBaasChannelResourceAsyncEPNS0_12AsyncContextERKNS0_3UidERKNS_4npns17NotificationTokenE = 0x000b6094;
_ZN2nn7account30DeleteBaasChannelResourceAsyncEPNS0_12AsyncContextERKNS0_3UidE = 0x000b6174;
_ZZN2nn2sf40SimpleAllInOneHipcSubDomainClientManagerILm17EE27InitializeShimLibraryHolderINS_7account24IBaasAccessTokenAccessorEEENS_6ResultEPNS0_23ShimLibraryObjectHolderIT_EEPKcPNS_14MemoryResourceEENUlPNS0_13SharedPointerIS5_EEE_clESH_ = 0x000b624c;
_ZN2nn2sf22UnitHeapMemoryResourceD0Ev = 0x000b656c;
_ZN2nn2sf22UnitHeapMemoryResource11do_allocateEmm = 0x000b6570;
_ZN2nn2sf22UnitHeapMemoryResource13do_deallocateEPvmm = 0x000b6578;
_ZNK2nn2sf22UnitHeapMemoryResource11do_is_equalERKNS_14MemoryResourceE = 0x000b6580;
_ZN2nn2sf4hipc6client34HipcSimpleClientSessionManagerBase4Impl18InitializeByHandleINS_7account24IBaasAccessTokenAccessorENS0_30MemoryResourceAllocationPolicyEEENS_6ResultEPNS0_13SharedPointerIT_EEPNT0_9AllocatorENS_3svc6HandleE = 0x000b658c;
_ZN2nn2sf6detail38ObjectImplFactoryWithStatefulAllocatorINS0_4cmif6client16CmifProxyFactoryINS_7account24IBaasAccessTokenAccessorENS4_15CmifDomainProxyINS0_4hipc6client38Hipc2ClientSessionManagedProxyKindBaseINSA_18Hipc2ProxyKindBaseILNS9_6detail11MessageTypeE4EEEEEEENS0_30MemoryResourceAllocationPolicyEE13ServiceObjectESI_E6Object12AddReferenceEv = 0x000b6690;
_ZN2nn2sf6detail38ObjectImplFactoryWithStatefulAllocatorINS0_4cmif6client16CmifProxyFactoryINS_7account24IBaasAccessTokenAccessorENS4_15CmifDomainProxyINS0_4hipc6client38Hipc2ClientSessionManagedProxyKindBaseINSA_18Hipc2ProxyKindBaseILNS9_6detail11MessageTypeE4EEEEEEENS0_30MemoryResourceAllocationPolicyEE13ServiceObjectESI_E6Object7ReleaseEv = 0x000b6698;
_ZN2nn2sf4cmif6client6detail13CmifProxyImplINS_7account24IBaasAccessTokenAccessorENS2_15CmifDomainProxyINS0_4hipc6client38Hipc2ClientSessionManagedProxyKindBaseINS9_18Hipc2ProxyKindBaseILNS8_6detail11MessageTypeE4EEEEEEENS0_30MemoryResourceAllocationPolicyES6_E12GetProxyInfoEv = 0x000b66f0;
_ZN2nn2sf4cmif6client6detail13CmifProxyImplINS_7account24IBaasAccessTokenAccessorENS2_15CmifDomainProxyINS0_4hipc6client38Hipc2ClientSessionManagedProxyKindBaseINS9_18Hipc2ProxyKindBaseILNS8_6detail11MessageTypeE4EEEEEEENS0_30MemoryResourceAllocationPolicyES6_E28_nn_sf_sync_EnsureCacheAsyncENS0_3OutINS0_13SharedPointerINS5_6detail13IAsyncContextEEEvEERKNS5_3UidE = 0x000b66f8;
_ZN2nn2sf4cmif6client6detail13CmifProxyImplINS_7account24IBaasAccessTokenAccessorENS2_15CmifDomainProxyINS0_4hipc6client38Hipc2ClientSessionManagedProxyKindBaseINS9_18Hipc2ProxyKindBaseILNS8_6detail11MessageTypeE4EEEEEEENS0_30MemoryResourceAllocationPolicyES6_E21_nn_sf_sync_LoadCacheENS0_3OutIjvEERKNS0_9OutBufferERKNS5_3UidE = 0x000b6790;
_ZN2nn2sf4cmif6client6detail13CmifProxyImplINS_7account24IBaasAccessTokenAccessorENS2_15CmifDomainProxyINS0_4hipc6client38Hipc2ClientSessionManagedProxyKindBaseINS9_18Hipc2ProxyKindBaseILNS8_6detail11MessageTypeE4EEEEEEENS0_30MemoryResourceAllocationPolicyES6_E30_nn_sf_sync_GetDeviceAccountIdENS0_3OutImvEERKNS5_3UidE = 0x000b67c0;
_ZN2nn2sf4cmif6client6detail13CmifProxyImplINS_7account24IBaasAccessTokenAccessorENS2_15CmifDomainProxyINS0_4hipc6client38Hipc2ClientSessionManagedProxyKindBaseINS9_18Hipc2ProxyKindBaseILNS8_6detail11MessageTypeE4EEEEEEENS0_30MemoryResourceAllocationPolicyES6_E42_nn_sf_sync_RegisterNotificationTokenAsyncENS0_3OutINS0_13SharedPointerINS5_6detail13IAsyncContextEEEvEERKNS5_3UidERKNS_4npns17NotificationTokenE = 0x000b67e0;
_ZN2nn2sf4cmif6client6detail13CmifProxyImplINS_7account24IBaasAccessTokenAccessorENS2_15CmifDomainProxyINS0_4hipc6client38Hipc2ClientSessionManagedProxyKindBaseINS9_18Hipc2ProxyKindBaseILNS8_6detail11MessageTypeE4EEEEEEENS0_30MemoryResourceAllocationPolicyES6_E44_nn_sf_sync_UnregisterNotificationTokenAsyncENS0_3OutINS0_13SharedPointerINS5_6detail13IAsyncContextEEEvEERKNS5_3UidE = 0x000b688c;
_ZN2nn2sf4cmif6client6detail13CmifProxyImplINS_7account24IBaasAccessTokenAccessorENS2_15CmifDomainProxyINS0_4hipc6client38Hipc2ClientSessionManagedProxyKindBaseINS9_18Hipc2ProxyKindBaseILNS8_6detail11MessageTypeE4EEEEEEENS0_30MemoryResourceAllocationPolicyES6_E17GetCmifBaseObjectEv = 0x000b6924;
_ZThn32_N2nn2sf4cmif6client6detail13CmifProxyImplINS_7account24IBaasAccessTokenAccessorENS2_15CmifDomainProxyINS0_4hipc6client38Hipc2ClientSessionManagedProxyKindBaseINS9_18Hipc2ProxyKindBaseILNS8_6detail11MessageTypeE4EEEEEEENS0_30MemoryResourceAllocationPolicyES6_E17GetCmifBaseObjectEv = 0x000b6934;
_ZN2nn2sf4cmif6client32GetClientProcessorWithObjectBaseINS2_15CmifDomainProxyINS0_4hipc6client38Hipc2ClientSessionManagedProxyKindBaseINS6_18Hipc2ProxyKindBaseILNS5_6detail11MessageTypeE4EEEEEEEE14ObjectAssignerINS0_30MemoryResourceAllocationPolicyENS_14MemoryResourceEE14AllocateObjectINS_7account6detail13IAsyncContextEEEvi = 0x000b693c;
_ZN2nn2sf6detail38ObjectImplFactoryWithStatefulAllocatorINS0_4cmif6client16CmifProxyFactoryINS_7account6detail13IAsyncContextENS4_15CmifDomainProxyINS0_4hipc6client38Hipc2ClientSessionManagedProxyKindBaseINSB_18Hipc2ProxyKindBaseILNSA_6detail11MessageTypeE4EEEEEEENS0_30MemoryResourceAllocationPolicyEE13ServiceObjectESJ_E6Object12AddReferenceEv = 0x000b69e8;
_ZN2nn2sf6detail38ObjectImplFactoryWithStatefulAllocatorINS0_4cmif6client16CmifProxyFactoryINS_7account6detail13IAsyncContextENS4_15CmifDomainProxyINS0_4hipc6client38Hipc2ClientSessionManagedProxyKindBaseINSB_18Hipc2ProxyKindBaseILNSA_6detail11MessageTypeE4EEEEEEENS0_30MemoryResourceAllocationPolicyEE13ServiceObjectESJ_E6Object7ReleaseEv = 0x000b69f0;
_ZN2nn2sf4cmif6client6detail13CmifProxyImplINS_7account6detail13IAsyncContextENS2_15CmifDomainProxyINS0_4hipc6client38Hipc2ClientSessionManagedProxyKindBaseINSA_18Hipc2ProxyKindBaseILNS9_6detail11MessageTypeE4EEEEEEENS0_30MemoryResourceAllocationPolicyES7_E12GetProxyInfoEv = 0x000b6a48;
_ZN2nn2sf4cmif6client6detail13CmifProxyImplINS_7account6detail13IAsyncContextENS2_15CmifDomainProxyINS0_4hipc6client38Hipc2ClientSessionManagedProxyKindBaseINSA_18Hipc2ProxyKindBaseILNS9_6detail11MessageTypeE4EEEEEEENS0_30MemoryResourceAllocationPolicyES7_E26_nn_sf_sync_GetSystemEventENS0_3OutINS0_12NativeHandleEvEE = 0x000b6a50;
_ZN2nn2sf4cmif6client6detail13CmifProxyImplINS_7account6detail13IAsyncContextENS2_15CmifDomainProxyINS0_4hipc6client38Hipc2ClientSessionManagedProxyKindBaseINSA_18Hipc2ProxyKindBaseILNS9_6detail11MessageTypeE4EEEEEEENS0_30MemoryResourceAllocationPolicyES7_E18_nn_sf_sync_CancelEv = 0x000b6a70;
_ZN2nn2sf4cmif6client6detail13CmifProxyImplINS_7account6detail13IAsyncContextENS2_15CmifDomainProxyINS0_4hipc6client38Hipc2ClientSessionManagedProxyKindBaseINSA_18Hipc2ProxyKindBaseILNS9_6detail11MessageTypeE4EEEEEEENS0_30MemoryResourceAllocationPolicyES7_E19_nn_sf_sync_HasDoneENS0_3OutIbvEE = 0x000b6a90;
_ZN2nn2sf4cmif6client6detail13CmifProxyImplINS_7account6detail13IAsyncContextENS2_15CmifDomainProxyINS0_4hipc6client38Hipc2ClientSessionManagedProxyKindBaseINSA_18Hipc2ProxyKindBaseILNS9_6detail11MessageTypeE4EEEEEEENS0_30MemoryResourceAllocationPolicyES7_E21_nn_sf_sync_GetResultEv = 0x000b6ab0;
_ZN2nn2sf4cmif6client6detail13CmifProxyImplINS_7account6detail13IAsyncContextENS2_15CmifDomainProxyINS0_4hipc6client38Hipc2ClientSessionManagedProxyKindBaseINSA_18Hipc2ProxyKindBaseILNS9_6detail11MessageTypeE4EEEEEEENS0_30MemoryResourceAllocationPolicyES7_E17GetCmifBaseObjectEv = 0x000b6ad0;
_ZThn32_N2nn2sf4cmif6client6detail13CmifProxyImplINS_7account6detail13IAsyncContextENS2_15CmifDomainProxyINS0_4hipc6client38Hipc2ClientSessionManagedProxyKindBaseINSA_18Hipc2ProxyKindBaseILNS9_6detail11MessageTypeE4EEEEEEENS0_30MemoryResourceAllocationPolicyES7_E17GetCmifBaseObjectEv = 0x000b6ae0;
_ZN2nn2sf4cmif6client34CmifDomainProxyClientCoreProcessorINS0_4hipc6client38Hipc2ClientSessionManagedProxyKindBaseINS5_18Hipc2ProxyKindBaseILNS4_6detail11MessageTypeE4EEEEENS1_6detail14CoreMethodInfoINSt3__15tupleIJNSC_18OutRawArgumentInfoILm4ELm4ELl0EEENSC_18BufferArgumentInfoILi0ELi6ELm0EEENSC_17InRawArgumentInfoILm16ELm8ELl0EEEEEELm16ELm4ELb0EEESM_E7ProcessEPNS2_23CmifDomainClientMessageISB_E15ProxyBaseObjectENS2_24OutRawClientArgumentTypeILm4ELm4EEENS2_24BufferClientArgumentTypeENS2_23InRawClientArgumentTypeILm16ELm8EvEEj = 0x000b6ae8;
_ZN2nn2sf4cmif6client34CmifDomainProxyClientCoreProcessorINS0_4hipc6client38Hipc2ClientSessionManagedProxyKindBaseINS5_18Hipc2ProxyKindBaseILNS4_6detail11MessageTypeE4EEEEENS1_6detail14CoreMethodInfoINSt3__15tupleIJNSC_18OutRawArgumentInfoILm8ELm8ELl0EEENSC_17InRawArgumentInfoILm16ELm8ELl0EEEEEELm16ELm8ELb0EEESK_E7ProcessEPNS2_23CmifDomainClientMessageISB_E15ProxyBaseObjectENS2_24OutRawClientArgumentTypeILm8ELm8EEENS2_23InRawClientArgumentTypeILm16ELm8EvEEj = 0x000b6cd4;
_ZN2nn2sf4cmif6client34CmifDomainProxyClientCoreProcessorINS0_4hipc6client38Hipc2ClientSessionManagedProxyKindBaseINS5_18Hipc2ProxyKindBaseILNS4_6detail11MessageTypeE4EEEEENS1_6detail14CoreMethodInfoINSt3__15tupleIJNSC_21OutObjectArgumentInfoILi0ELi0EEENSC_17InRawArgumentInfoILm16ELm8ELl40EEENSI_ILm40ELm1ELl0EEEEEELm56ELm0ELb0EEESL_E21ProcessWithOutObjectsEPNS2_23CmifDomainClientMessageISB_E15ProxyBaseObjectENS2_27OutObjectClientArgumentTypeENS2_23InRawClientArgumentTypeILm16ELm8EvEENST_ILm40ELm1EvEEjPNS0_13SharedPointerINS0_14IServiceObjectEEE = 0x000b6e38;
_ZZN2nn2sf40SimpleAllInOneHipcSubDomainClientManagerILm17EE27InitializeShimLibraryHolderINS_7account24IBaasAccessTokenAccessorEEENS_6ResultEPNS0_23ShimLibraryObjectHolderIT_EEPKcPNS_14MemoryResourceEENUlPvE_8__invokeESF_ = 0x000b703c;
_ZN2nn7account25CachedNintendoAccountInfoC2Ev = 0x000b70dc;
_ZN2nn7account25CachedNintendoAccountInfoC1Ev = 0x000b70dc;
_ZNK2nn7account25CachedNintendoAccountInfo11GetBirthdayEPm = 0x000b70e0;
_ZNK2nn7account25CachedNintendoAccountInfo9GetGenderEPm = 0x000b7114;
_ZNK2nn7account25CachedNintendoAccountInfo10GetCountryEPm = 0x000b714c;
_ZN2nn7account41CachedNintendoAccountInfoForSystemServiceC2Ev = 0x000b7184;
_ZN2nn7account41CachedNintendoAccountInfoForSystemServiceC1Ev = 0x000b7184;
_ZNK2nn7account41CachedNintendoAccountInfoForSystemService5GetIdEv = 0x000b718c;
_ZNK2nn7account41CachedNintendoAccountInfoForSystemService7IsChildEv = 0x000b7190;
_ZNK2nn7account41CachedNintendoAccountInfoForSystemService13GetScreenNameEPm = 0x000b7198;
_ZNK2nn7account41CachedNintendoAccountInfoForSystemService15GetEmailAddressEPm = 0x000b71d0;
_ZNK2nn7account41CachedNintendoAccountInfoForSystemService10GetLoginIdEPm = 0x000b7208;
_ZNK2nn7account41CachedNintendoAccountInfoForSystemService11GetBirthdayEPm = 0x000b7240;
_ZNK2nn7account41CachedNintendoAccountInfoForSystemService9GetGenderEPm = 0x000b7278;
_ZNK2nn7account41CachedNintendoAccountInfoForSystemService10GetCountryEPm = 0x000b72b0;
_ZNK2nn7account41CachedNintendoAccountInfoForSystemService9GetRegionEPm = 0x000b72e8;
_ZNK2nn7account41CachedNintendoAccountInfoForSystemService11GetLanguageEPm = 0x000b7320;
_ZNK2nn7account41CachedNintendoAccountInfoForSystemService23GetAnalyticsOptedInFlagEv = 0x000b7358;
_ZNK2nn7account41CachedNintendoAccountInfoForSystemService27IsLinkedWithNintendoNetworkEv = 0x000b7360;
_ZN2nn7account19CalculateCheckDigitERKNS0_23NetworkServiceAccountIdE = 0x000b7368;
_ZN2nn7account33ExternalNetworkServiceAccountInfoC1Ev = 0x000b73dc;
_ZN2nn7account33ExternalNetworkServiceAccountInfoC2Ev = 0x000b73dc;
_ZN2nn7account33ExternalNetworkServiceAccountInfoC1EPNS0_4baas18IGuestLoginRequestE = 0x000b73e4;
_ZN2nn7account33ExternalNetworkServiceAccountInfoC2EPNS0_4baas18IGuestLoginRequestE = 0x000b73e4;
_ZN2nn7account33ExternalNetworkServiceAccountInfoC2EOS1_ = 0x000b73ec;
_ZN2nn7account33ExternalNetworkServiceAccountInfoC1EOS1_ = 0x000b73ec;
_ZN2nn7account33ExternalNetworkServiceAccountInfoD1Ev = 0x000b73fc;
_ZN2nn7account33ExternalNetworkServiceAccountInfoD2Ev = 0x000b73fc;
_ZN2nn7account33ExternalNetworkServiceAccountInfoaSEOS1_ = 0x000b7414;
_ZN2nn7account33ExternalNetworkServiceAccountInfo4SwapERS1_ = 0x000b7454;
_ZNK2nn7account33ExternalNetworkServiceAccountInfo11GetNicknameEPNS0_8NicknameE = 0x000b7468;
_ZNK2nn7account33ExternalNetworkServiceAccountInfo15GetProfileImageEPmPvm = 0x000b74a8;
_ZNK2nn7account33ExternalNetworkServiceAccountInfo26GetNetworkServiceAccountIdEPNS0_23NetworkServiceAccountIdE = 0x000b7500;
_ZNK2nn7account33ExternalNetworkServiceAccountInfo37LoadNetworkServiceAccountIdTokenCacheEPmPcm = 0x000b752c;
_ZN2nn7account38ExternalNetworkServiceAccountRegistrarC1Ev = 0x000b7584;
_ZN2nn7account38ExternalNetworkServiceAccountRegistrarC2Ev = 0x000b7584;
_ZN2nn7account38ExternalNetworkServiceAccountRegistrarC1EPNS0_4baas28IFloatingRegistrationRequestE = 0x000b758c;
_ZN2nn7account38ExternalNetworkServiceAccountRegistrarC2EPNS0_4baas28IFloatingRegistrationRequestE = 0x000b758c;
_ZN2nn7account38ExternalNetworkServiceAccountRegistrarC2EOS1_ = 0x000b7594;
_ZN2nn7account38ExternalNetworkServiceAccountRegistrarC1EOS1_ = 0x000b7594;
_ZN2nn7account38ExternalNetworkServiceAccountRegistrarD2Ev = 0x000b75a4;
_ZN2nn7account38ExternalNetworkServiceAccountRegistrarD1Ev = 0x000b75a4;
_ZN2nn7account38ExternalNetworkServiceAccountRegistraraSEOS1_ = 0x000b75bc;
_ZN2nn7account38ExternalNetworkServiceAccountRegistrar4SwapERS1_ = 0x000b75fc;
_ZN2nn7account38ExternalNetworkServiceAccountRegistrar13RegisterAsyncEPNS0_3UidEPNS0_12AsyncContextE = 0x000b7610;
_ZN2nn7account38ExternalNetworkServiceAccountRegistrar13RegisterAsyncEPNS0_12AsyncContextERKNS0_3UidE = 0x000b76a0;
_ZNK2nn7account38ExternalNetworkServiceAccountRegistrar11GetNicknameEPNS0_8NicknameE = 0x000b7730;
_ZNK2nn7account38ExternalNetworkServiceAccountRegistrar15GetProfileImageEPmPvm = 0x000b7770;
_ZNK2nn7account38ExternalNetworkServiceAccountRegistrar26GetNetworkServiceAccountIdEPNS0_23NetworkServiceAccountIdE = 0x000b77c8;
_ZN2nn7account38ExternalNetworkServiceAccountRegistrar30SetSystemProgramIdentificationERKNS0_27SystemProgramIdentificationE = 0x000b77f4;
_ZN2nn7account38ExternalNetworkServiceAccountRegistrar44EnsureNetworkServiceAccountIdTokenCacheAsyncEPNS0_12AsyncContextE = 0x000b781c;
_ZNK2nn7account38ExternalNetworkServiceAccountRegistrar37LoadNetworkServiceAccountIdTokenCacheEPmPcm = 0x000b78ac;
_ZN2nn7account20MakePreselectionInfoERKNS0_3UidE = 0x000b7904;
_ZN2nn7account36EnsureNetworkServiceAccountAvailableERKNS0_10UserHandleE = 0x000b79f4;
_ZN2nn7account32IsNetworkServiceAccountAvailableEPbRKNS0_10UserHandleE = 0x000b7a94;
_ZN2nn7account26GetNetworkServiceAccountIdEPNS0_23NetworkServiceAccountIdERKNS0_10UserHandleE = 0x000b7afc;
_ZN2nn7account44EnsureNetworkServiceAccountIdTokenCacheAsyncEPNS0_12AsyncContextERKNS0_10UserHandleE = 0x000b7b28;
_ZN2nn7account37LoadNetworkServiceAccountIdTokenCacheEPmPcmRKNS0_10UserHandleE = 0x000b7bec;
_ZN2nn7account41CreateNintendoAccountAuthorizationRequestEPNS0_42NintendoAccountAuthorizationRequestContextERKNS0_10UserHandleERKNS0_45NintendoAccountAuthorizationRequestParametersEPvm = 0x000b7c44;
_ZN2nn7account29LoadCachedNintendoAccountInfoEPNS0_25CachedNintendoAccountInfoERKNS0_10UserHandleEPvm = 0x000b7db4;
_ZN2nn7account28NetworkServiceAccountManagerC2Ev = 0x000b7e24;
_ZN2nn7account28NetworkServiceAccountManagerC1Ev = 0x000b7e24;
_ZN2nn7account28NetworkServiceAccountManagerC1ERKNS0_3UidEPNS0_4baas24IManagerForSystemServiceE = 0x000b7e3c;
_ZN2nn7account28NetworkServiceAccountManagerC2ERKNS0_3UidEPNS0_4baas24IManagerForSystemServiceE = 0x000b7e3c;
_ZN2nn7account28NetworkServiceAccountManagerD0Ev = 0x000b7e64;
_ZN2nn7account28NetworkServiceAccountManager4SwapERS1_ = 0x000b7ea8;
_ZN2nn7account28NetworkServiceAccountManager36EnsureNetworkServiceAccountAvailableENS0_32NintendoAccountStartupDialogTypeE = 0x000b7ef0;
_ZN2nn7account28NetworkServiceAccountManager38CheckNetworkServiceAccountAvailabilityEv = 0x000b7f88;
_ZN2nn7account28NetworkServiceAccountManager32IsNetworkServiceAccountAvailableEPb = 0x000b7fac;
_ZN2nn7account28NetworkServiceAccountManager26GetNetworkServiceAccountIdEPNS0_23NetworkServiceAccountIdE = 0x000b8014;
_ZN2nn7account28NetworkServiceAccountManager20GetNintendoAccountIdEPNS0_17NintendoAccountIdE = 0x000b8038;
_ZN2nn7account28NetworkServiceAccountManager29LoadCachedNintendoAccountInfoEPNS0_41CachedNintendoAccountInfoForSystemServiceEPvm = 0x000b805c;
_ZN2nn7account28NetworkServiceAccountManager37RefreshCachedNintendoAccountInfoAsyncEPNS0_12AsyncContextE = 0x000b8098;
_ZN2nn7account28NetworkServiceAccountManager50RefreshCachedNintendoAccountInfoAsyncIfTimeElapsedEPbPNS0_12AsyncContextENS_8TimeSpanE = 0x000b8130;
_ZN2nn7account28NetworkServiceAccountManager44EnsureNetworkServiceAccountIdTokenCacheAsyncEPNS0_12AsyncContextE = 0x000b822c;
_ZN2nn7account28NetworkServiceAccountManager37LoadNetworkServiceAccountIdTokenCacheEPmPcm = 0x000b82c4;
_ZN2nn7account28NetworkServiceAccountManager41CreateNintendoAccountAuthorizationRequestEPNS0_42NintendoAccountAuthorizationRequestContextEmPKcmRKNS0_45NintendoAccountAuthorizationRequestParametersEPvm = 0x000b831c;
_ZN2nn7account28NetworkServiceAccountManager46DebugCreateNintendoAccountAuthorizationRequestEPNS0_42NintendoAccountAuthorizationRequestContextEmPKcmRKNS0_45NintendoAccountAuthorizationRequestParametersEPvm = 0x000b84ac;
_ZN2nn7account28NetworkServiceAccountManager30SetSystemProgramIdentificationERKNS0_27SystemProgramIdentificationE = 0x000b8630;
_ZN2nn7account34NetworkServiceAccountAdministratorC2Ev = 0x000b8658;
_ZN2nn7account34NetworkServiceAccountAdministratorC1Ev = 0x000b8658;
_ZN2nn7account34NetworkServiceAccountAdministratorC1ERKNS0_3UidEPNS0_4baas14IAdministratorE = 0x000b8670;
_ZN2nn7account34NetworkServiceAccountAdministratorC2ERKNS0_3UidEPNS0_4baas14IAdministratorE = 0x000b8670;
_ZN2nn7account34NetworkServiceAccountAdministrator4SwapERS1_ = 0x000b86a4;
_ZN2nn7account34NetworkServiceAccountAdministrator33IsNetworkServiceAccountRegisteredEPb = 0x000b86ec;
_ZN2nn7account34NetworkServiceAccountAdministrator13RegisterAsyncEPNS0_12AsyncContextE = 0x000b8710;
_ZN2nn7account34NetworkServiceAccountAdministrator15UnregisterAsyncEPNS0_12AsyncContextE = 0x000b87b0;
_ZN2nn7account34NetworkServiceAccountAdministrator29DeleteRegistrationInfoLocallyEv = 0x000b8850;
_ZN2nn7account34NetworkServiceAccountAdministrator23SynchronizeProfileAsyncEPNS0_12AsyncContextE = 0x000b8874;
_ZN2nn7account34NetworkServiceAccountAdministrator36SynchronizeProfileAsyncIfTimeElapsedEPbPNS0_12AsyncContextENS_8TimeSpanE = 0x000b8914;
_ZN2nn7account34NetworkServiceAccountAdministrator27IsLinkedWithNintendoAccountEPb = 0x000b8a18;
_ZN2nn7account34NetworkServiceAccountAdministrator40CreateProcedureToLinkWithNintendoAccountEPNS0_31NintendoAccountLinkageProcedureE = 0x000b8a3c;
_ZN2nn7account34NetworkServiceAccountAdministrator40ResumeProcedureToLinkWithNintendoAccountEPNS0_31NintendoAccountLinkageProcedureERKNS0_9SessionIdE = 0x000b8adc;
_ZN2nn7account34NetworkServiceAccountAdministrator52CreateProcedureToUpdateLinkageStateOfNintendoAccountEPNS0_6detail24SimpleOAuthProcedureBaseE = 0x000b8b8c;
_ZN2nn7account34NetworkServiceAccountAdministrator52ResumeProcedureToUpdateLinkageStateOfNintendoAccountEPNS0_6detail24SimpleOAuthProcedureBaseERKNS0_9SessionIdE = 0x000b8c2c;
_ZN2nn7account34NetworkServiceAccountAdministrator44CreateProcedureToLinkNnidWithNintendoAccountEPNS0_6detail24SimpleOAuthProcedureBaseE = 0x000b8cdc;
_ZN2nn7account34NetworkServiceAccountAdministrator44ResumeProcedureToLinkNnidWithNintendoAccountEPNS0_6detail24SimpleOAuthProcedureBaseERKNS0_9SessionIdE = 0x000b8d7c;
_ZN2nn7account34NetworkServiceAccountAdministrator65ProxyProcedureToAcquireApplicationAuthorizationForNintendoAccountEPNS0_48NintendoAccountApplicationAuthorizationProcedureERKNS0_9SessionIdE = 0x000b8e2c;
_ZN2nn7account34NetworkServiceAccountAdministrator46DebugSetNetworkServiceAccountAvailabilityErrorENS_6ResultE = 0x000b8edc;
_ZN2nn7account34NetworkServiceAccountAdministrator31DebugUnlinkNintendoAccountAsyncEPNS0_12AsyncContextE = 0x000b9004;
_ZN2nn7account34NetworkServiceAccountAdministrator18UploadProfileAsyncEPNS0_12AsyncContextE = 0x000b90c0;
_ZN2nn7account28NetworkServiceAccountManagerD1Ev = 0x000b917c;
_ZN2nn7account28NetworkServiceAccountManagerD2Ev = 0x000b917c;
_ZN2nn7account34NetworkServiceAccountAdministratorD0Ev = 0x000b91a4;
_ZN2nn7account42NintendoAccountAuthorizationRequestContextC2Ev = 0x000b91e8;
_ZN2nn7account42NintendoAccountAuthorizationRequestContextC1Ev = 0x000b91e8;
_ZN2nn7account42NintendoAccountAuthorizationRequestContextC1EPNS0_3nas21IAuthorizationRequestERKNS0_3UidE = 0x000b91fc;
_ZN2nn7account42NintendoAccountAuthorizationRequestContextC2EPNS0_3nas21IAuthorizationRequestERKNS0_3UidE = 0x000b91fc;
_ZN2nn7account42NintendoAccountAuthorizationRequestContextC1EOS1_ = 0x000b9218;
_ZN2nn7account42NintendoAccountAuthorizationRequestContextC2EOS1_ = 0x000b9218;
_ZN2nn7account42NintendoAccountAuthorizationRequestContextD1Ev = 0x000b9260;
_ZN2nn7account42NintendoAccountAuthorizationRequestContextD2Ev = 0x000b9260;
_ZN2nn7account42NintendoAccountAuthorizationRequestContextaSEOS1_ = 0x000b9298;
_ZN2nn7account42NintendoAccountAuthorizationRequestContext4SwapERS1_ = 0x000b9390;
_ZN2nn7account42NintendoAccountAuthorizationRequestContext6InvokeEv = 0x000b9434;
_ZN2nn7account42NintendoAccountAuthorizationRequestContext14GetSystemEventEPNS_2os11SystemEventE = 0x000b94cc;
_ZN2nn7account42NintendoAccountAuthorizationRequestContext6CancelEv = 0x000b94e8;
_ZN2nn7account42NintendoAccountAuthorizationRequestContext7HasDoneEPb = 0x000b9504;
_ZN2nn7account42NintendoAccountAuthorizationRequestContext9GetResultEv = 0x000b9520;
_ZN2nn7account42NintendoAccountAuthorizationRequestContext34GetResultWithInteractionIfRequiredEv = 0x000b95a8;
_ZN2nn7account42NintendoAccountAuthorizationRequestContext20GetAuthorizationCodeEPmPcm = 0x000b96d4;
_ZN2nn7account42NintendoAccountAuthorizationRequestContext10GetIdTokenEPmPcm = 0x000b972c;
_ZN2nn7account42NintendoAccountAuthorizationRequestContext8GetStateEPmPcm = 0x000b9784;
_ZN2nn7account42NintendoAccountAuthorizationRequestContext12DebugGetInfoEPmm = 0x000b9808;
_ZN2nn7account8Notifier4SwapERS1_ = 0x000b9878;
_ZN2nn7account8NotifierC1EPNS0_6detail9INotifierE = 0x000b988c;
_ZN2nn7account8NotifierC2EPNS0_6detail9INotifierE = 0x000b988c;
_ZN2nn7account8NotifierC1Ev = 0x000b98a4;
_ZN2nn7account8NotifierC2Ev = 0x000b98a4;
_ZN2nn7account8NotifierC1EOS1_ = 0x000b98b8;
_ZN2nn7account8NotifierC2EOS1_ = 0x000b98b8;
_ZN2nn7account8NotifierD2Ev = 0x000b98d8;
_ZN2nn7account8NotifierD1Ev = 0x000b98d8;
_ZN2nn7account8NotifierD0Ev = 0x000b9900;
_ZN2nn7account8NotifieraSEOS1_ = 0x000b9944;
_ZN2nn7account8Notifier14GetSystemEventEPNS_2os11SystemEventE = 0x000b9984;
_ZN2nn7account31NintendoAccountLinkageProcedureC1Ev = 0x000b99fc;
_ZN2nn7account31NintendoAccountLinkageProcedureC2Ev = 0x000b99fc;
_ZN2nn7account31NintendoAccountLinkageProcedureC2ERKNS0_3UidEPNS0_3nas40IOAuthProcedureForNintendoAccountLinkageE = 0x000b9a2c;
_ZN2nn7account31NintendoAccountLinkageProcedureC1ERKNS0_3UidEPNS0_3nas40IOAuthProcedureForNintendoAccountLinkageE = 0x000b9a2c;
_ZN2nn7account31NintendoAccountLinkageProcedureC2EOS1_ = 0x000b9a5c;
_ZN2nn7account31NintendoAccountLinkageProcedureC1EOS1_ = 0x000b9a5c;
_ZN2nn7account31NintendoAccountLinkageProcedureaSEOS1_ = 0x000b9a8c;
_ZN2nn7account31NintendoAccountLinkageProcedure4SwapERS1_ = 0x000b9ae0;
_ZN2nn7account31NintendoAccountLinkageProcedure10GetRequestEPNS0_10RequestUrlEPNS0_11CallbackUriENS0_37NintendoAccountAuthorizationPageThemeE = 0x000b9b04;
_ZN2nn7account31NintendoAccountLinkageProcedure31IsNetworkServiceAccountReplacedEPb = 0x000b9b78;
_ZN2nn7account31NintendoAccountLinkageProcedure38GetUrlForIntroductionOfExtraMembershipEPNS0_10RequestUrlE = 0x000b9bd4;
_ZN2nn7account48NintendoAccountApplicationAuthorizationProcedureC2Ev = 0x000b9bf8;
_ZN2nn7account48NintendoAccountApplicationAuthorizationProcedureC1Ev = 0x000b9bf8;
_ZN2nn7account48NintendoAccountApplicationAuthorizationProcedureC2ERKNS0_3UidEPNS0_4http15IOAuthProcedureE = 0x000b9c28;
_ZN2nn7account48NintendoAccountApplicationAuthorizationProcedureC1ERKNS0_3UidEPNS0_4http15IOAuthProcedureE = 0x000b9c28;
_ZN2nn7account48NintendoAccountApplicationAuthorizationProcedureC2EOS1_ = 0x000b9c58;
_ZN2nn7account48NintendoAccountApplicationAuthorizationProcedureC1EOS1_ = 0x000b9c58;
_ZN2nn7account48NintendoAccountApplicationAuthorizationProcedureaSEOS1_ = 0x000b9c88;
_ZN2nn7account48NintendoAccountApplicationAuthorizationProcedure4SwapERS1_ = 0x000b9cdc;
_ZN2nn7account49ExternalNetworkServiceAccountIntroducingProcedureC2Ev = 0x000b9d00;
_ZN2nn7account49ExternalNetworkServiceAccountIntroducingProcedureC1Ev = 0x000b9d00;
_ZN2nn7account49ExternalNetworkServiceAccountIntroducingProcedureC2EPNS0_3nas29IOAuthProcedureForExternalNsaE = 0x000b9d30;
_ZN2nn7account49ExternalNetworkServiceAccountIntroducingProcedureC1EPNS0_3nas29IOAuthProcedureForExternalNsaE = 0x000b9d30;
_ZN2nn7account49ExternalNetworkServiceAccountIntroducingProcedureC1EOS1_ = 0x000b9d70;
_ZN2nn7account49ExternalNetworkServiceAccountIntroducingProcedureC2EOS1_ = 0x000b9d70;
_ZN2nn7account49ExternalNetworkServiceAccountIntroducingProcedureaSEOS1_ = 0x000b9da0;
_ZN2nn7account49ExternalNetworkServiceAccountIntroducingProcedure4SwapERS1_ = 0x000b9df4;
_ZNK2nn7account49ExternalNetworkServiceAccountIntroducingProcedure11GetNicknameEPNS0_8NicknameE = 0x000b9e18;
_ZNK2nn7account49ExternalNetworkServiceAccountIntroducingProcedure15GetProfileImageEPmPvm = 0x000b9e50;
_ZNK2nn7account49ExternalNetworkServiceAccountIntroducingProcedure26GetNetworkServiceAccountIdEPNS0_23NetworkServiceAccountIdE = 0x000b9ea8;
_ZNK2nn7account49ExternalNetworkServiceAccountIntroducingProcedure26GetLinkedNintendoAccountIdEPNS0_17NintendoAccountIdE = 0x000b9ecc;
_ZN2nn7account31NintendoAccountLinkageProcedureD0Ev = 0x000b9ef0;
_ZN2nn7account48NintendoAccountApplicationAuthorizationProcedureD0Ev = 0x000b9f14;
_ZN2nn7account49ExternalNetworkServiceAccountIntroducingProcedureD0Ev = 0x000b9f38;
_ZN2nn7account13ProfileEditor4SwapERS1_ = 0x000b9f5c;
_ZN2nn7account13ProfileEditorC2ERKNS0_3UidEPNS0_7profile14IProfileEditorE = 0x000ba040;
_ZN2nn7account13ProfileEditorC1ERKNS0_3UidEPNS0_7profile14IProfileEditorE = 0x000ba040;
_ZNK2nn7account13ProfileEditor19GetProfileImageSizeEPm = 0x000ba0a8;
_ZN2nn7account13ProfileEditorC2Ev = 0x000ba0f0;
_ZN2nn7account13ProfileEditorC1Ev = 0x000ba0f0;
_ZN2nn7account13ProfileEditorC1EOS1_ = 0x000ba148;
_ZN2nn7account13ProfileEditorC2EOS1_ = 0x000ba148;
_ZN2nn7account13ProfileEditorD2Ev = 0x000ba1f0;
_ZN2nn7account13ProfileEditorD1Ev = 0x000ba1f0;
_ZN2nn7account13ProfileEditorD0Ev = 0x000ba218;
_ZN2nn7account13ProfileEditoraSEOS1_ = 0x000ba25c;
_ZN2nn7account13ProfileEditor7RefreshEv = 0x000ba3b8;
_ZNK2nn7account13ProfileEditor13IsLocalOriginEv = 0x000ba3f0;
_ZNK2nn7account13ProfileEditor12GetTimeStampEv = 0x000ba41c;
_ZNK2nn7account13ProfileEditor11GetNicknameEPNS0_8NicknameE = 0x000ba424;
_ZNK2nn7account13ProfileEditor11GetUserDataEPcm = 0x000ba454;
_ZNK2nn7account13ProfileEditor16LoadProfileImageEPmPvm = 0x000ba468;
_ZN2nn7account13ProfileEditor11SetNicknameERKNS0_8NicknameE = 0x000ba4ec;
_ZN2nn7account13ProfileEditor11SetUserDataEPKcm = 0x000ba4f8;
_ZN2nn7account13ProfileEditor5FlushEv = 0x000ba504;
_ZN2nn7account13ProfileEditor14FlushWithImageEPKvm = 0x000ba534;
_ZN2nn2am23GetApplicationFunctionsEv = 0x000ba598;
_ZN2nn2am20GetSystemAppletProxyEv = 0x000ba5e4;
_ZN2nn2am20GetHomeMenuFunctionsEv = 0x000ba630;
_ZN2nn2am24GetGlobalStateControllerEv = 0x000ba67c;
_ZN2nn2am21GetApplicationCreatorEv = 0x000ba6c8;
_ZN2nn2am21GetLibraryAppletProxyEv = 0x000ba714;
_ZN2nn2am28GetLibraryAppletSelfAccessorEv = 0x000ba760;
_ZN2nn2am21GetOverlayAppletProxyEv = 0x000ba7ac;
_ZN2nn2am19GetOverlayFunctionsEv = 0x000ba7f8;
_ZN2nn2am19GetApplicationProxyEv = 0x000ba844;
_ZN2nn2am23GetLibraryAppletCreatorEv = 0x000ba890;
_ZN2nn2am27GetProcessWindingControllerEv = 0x000ba8dc;
_ZN2nn2am20GetCommonStateGetterEv = 0x000ba928;
_ZN2nn2am17GetSelfControllerEv = 0x000ba974;
_ZN2nn2am18GetAudioControllerEv = 0x000ba9c0;
_ZN2nn2am20GetDisplayControllerEv = 0x000baa0c;
_ZN2nn2am19GetWindowControllerEv = 0x000baa58;
_ZN2nn2am17GetDebugFunctionsEv = 0x000baaa4;
_ZN2nn2am26IsInitializedAsApplicationEv = 0x000baaf0;
_ZN2nn2am27IsInitializedAsSystemAppletEv = 0x000bab40;
_ZN2nn2am28IsInitializedAsLibraryAppletEv = 0x000bab90;
_ZN2nn2am28IsInitializedAsOverlayAppletEv = 0x000babe0;
_ZN2nn2am26InitializeCommonInterfacesEPNS0_7service21IStackableAppletProxyE = 0x000bac30;
_ZN2nn2am24FinalizeCommonInterfacesEv = 0x000bb0f4;
_ZN2nn2am32InitializeSystemAppletInterfacesEv = 0x000bb340;
_ZN2nn2am30FinalizeSystemAppletInterfacesEv = 0x000bb718;
_ZN2nn2am24SetLibraryAppletResolverEPFvvE = 0x000bb8bc;
_ZN2nn2am35InvokeWithSelfLibraryCreatorEnabledEPFvvE = 0x000bb8c8;
_ZN2nn2am33InitializeLibraryAppletInterfacesEPKNS0_15AppletAttributeE = 0x000bba0c;
_ZN2nn2am31FinalizeLibraryAppletInterfacesEv = 0x000bbe28;
_ZN2nn2am33InitializeOverlayAppletInterfacesEv = 0x000bbf88;
_ZN2nn2am31FinalizeOverlayAppletInterfacesEv = 0x000bc244;
_ZN2nn2am31InitializeApplicationInterfacesEv = 0x000bc358;
_ZN2nn2am29FinalizeApplicationInterfacesEv = 0x000bc60c;
_ZN2nn2am37InitializeSystemApplicationInterfacesEv = 0x000bc6cc;
_ZN2nn2am35FinalizeSystemApplicationInterfacesEv = 0x000bc978;
_ZN2nn2am23GetAppletResourceUserIdEv = 0x000bca38;
_ZZN2nn2sf40SimpleAllInOneHipcSubDomainClientManagerILm100EE27InitializeShimLibraryHolderINS_2am7service30IAllSystemAppletProxiesServiceEEENS_6ResultEPNS0_23ShimLibraryObjectHolderIT_EEPKcPNS_14MemoryResourceEENUlPNS0_13SharedPointerIS6_EEE_clESI_ = 0x000bca58;
_ZN2nn2sf4hipc6client34HipcSimpleClientSessionManagerBase4Impl18InitializeByHandleINS_2am7service30IAllSystemAppletProxiesServiceENS0_30MemoryResourceAllocationPolicyEEENS_6ResultEPNS0_13SharedPointerIT_EEPNT0_9AllocatorENS_3svc6HandleE = 0x000bcd8c;
_ZN2nn2sf6detail38ObjectImplFactoryWithStatefulAllocatorINS0_4cmif6client16CmifProxyFactoryINS_2am7service30IAllSystemAppletProxiesServiceENS4_15CmifDomainProxyINS0_4hipc6client38Hipc2ClientSessionManagedProxyKindBaseINSB_18Hipc2ProxyKindBaseILNSA_6detail11MessageTypeE4EEEEEEENS0_30MemoryResourceAllocationPolicyEE13ServiceObjectESJ_E6Object12AddReferenceEv = 0x000bce90;
_ZN2nn2sf6detail38ObjectImplFactoryWithStatefulAllocatorINS0_4cmif6client16CmifProxyFactoryINS_2am7service30IAllSystemAppletProxiesServiceENS4_15CmifDomainProxyINS0_4hipc6client38Hipc2ClientSessionManagedProxyKindBaseINSB_18Hipc2ProxyKindBaseILNSA_6detail11MessageTypeE4EEEEEEENS0_30MemoryResourceAllocationPolicyEE13ServiceObjectESJ_E6Object7ReleaseEv = 0x000bce98;
_ZN2nn2sf4cmif6client6detail13CmifProxyImplINS_2am7service30IAllSystemAppletProxiesServiceENS2_15CmifDomainProxyINS0_4hipc6client38Hipc2ClientSessionManagedProxyKindBaseINSA_18Hipc2ProxyKindBaseILNS9_6detail11MessageTypeE4EEEEEEENS0_30MemoryResourceAllocationPolicyES7_E12GetProxyInfoEv = 0x000bcef0;
_ZN2nn2sf4cmif6client6detail13CmifProxyImplINS_2am7service30IAllSystemAppletProxiesServiceENS2_15CmifDomainProxyINS0_4hipc6client38Hipc2ClientSessionManagedProxyKindBaseINSA_18Hipc2ProxyKindBaseILNS9_6detail11MessageTypeE4EEEEEEENS0_30MemoryResourceAllocationPolicyES7_E33_nn_sf_sync_OpenSystemAppletProxyENS0_3OutINS0_13SharedPointerINS6_18ISystemAppletProxyEEEvEEmONS0_12NativeHandleE = 0x000bcef8;
_ZN2nn2sf4cmif6client6detail13CmifProxyImplINS_2am7service30IAllSystemAppletProxiesServiceENS2_15CmifDomainProxyINS0_4hipc6client38Hipc2ClientSessionManagedProxyKindBaseINSA_18Hipc2ProxyKindBaseILNS9_6detail11MessageTypeE4EEEEEEENS0_30MemoryResourceAllocationPolicyES7_E37_nn_sf_sync_OpenLibraryAppletProxyOldENS0_3OutINS0_13SharedPointerINS6_19ILibraryAppletProxyEEEvEEmONS0_12NativeHandleE = 0x000bcfa4;
_ZN2nn2sf4cmif6client6detail13CmifProxyImplINS_2am7service30IAllSystemAppletProxiesServiceENS2_15CmifDomainProxyINS0_4hipc6client38Hipc2ClientSessionManagedProxyKindBaseINSA_18Hipc2ProxyKindBaseILNS9_6detail11MessageTypeE4EEEEEEENS0_30MemoryResourceAllocationPolicyES7_E34_nn_sf_sync_OpenLibraryAppletProxyENS0_3OutINS0_13SharedPointerINS6_19ILibraryAppletProxyEEEvEEmONS0_12NativeHandleERKNS5_15AppletAttributeE = 0x000bd050;
_ZN2nn2sf4cmif6client6detail13CmifProxyImplINS_2am7service30IAllSystemAppletProxiesServiceENS2_15CmifDomainProxyINS0_4hipc6client38Hipc2ClientSessionManagedProxyKindBaseINSA_18Hipc2ProxyKindBaseILNS9_6detail11MessageTypeE4EEEEEEENS0_30MemoryResourceAllocationPolicyES7_E34_nn_sf_sync_OpenOverlayAppletProxyENS0_3OutINS0_13SharedPointerINS6_19IOverlayAppletProxyEEEvEEmONS0_12NativeHandleE = 0x000bd104;
_ZN2nn2sf4cmif6client6detail13CmifProxyImplINS_2am7service30IAllSystemAppletProxiesServiceENS2_15CmifDomainProxyINS0_4hipc6client38Hipc2ClientSessionManagedProxyKindBaseINSA_18Hipc2ProxyKindBaseILNS9_6detail11MessageTypeE4EEEEEEENS0_30MemoryResourceAllocationPolicyES7_E38_nn_sf_sync_OpenSystemApplicationProxyENS0_3OutINS0_13SharedPointerINS6_17IApplicationProxyEEEvEEmONS0_12NativeHandleE = 0x000bd1b0;
_ZN2nn2sf4cmif6client6detail13CmifProxyImplINS_2am7service30IAllSystemAppletProxiesServiceENS2_15CmifDomainProxyINS0_4hipc6client38Hipc2ClientSessionManagedProxyKindBaseINSA_18Hipc2ProxyKindBaseILNS9_6detail11MessageTypeE4EEEEEEENS0_30MemoryResourceAllocationPolicyES7_E52_nn_sf_sync_CreateSelfLibraryAppletCreatorForDevelopENS0_3OutINS0_13SharedPointerINS6_21ILibraryAppletCreatorEEEvEEm = 0x000bd25c;
_ZN2nn2sf4cmif6client6detail13CmifProxyImplINS_2am7service30IAllSystemAppletProxiesServiceENS2_15CmifDomainProxyINS0_4hipc6client38Hipc2ClientSessionManagedProxyKindBaseINSA_18Hipc2ProxyKindBaseILNS9_6detail11MessageTypeE4EEEEEEENS0_30MemoryResourceAllocationPolicyES7_E17GetCmifBaseObjectEv = 0x000bd2f4;
_ZThn32_N2nn2sf4cmif6client6detail13CmifProxyImplINS_2am7service30IAllSystemAppletProxiesServiceENS2_15CmifDomainProxyINS0_4hipc6client38Hipc2ClientSessionManagedProxyKindBaseINSA_18Hipc2ProxyKindBaseILNS9_6detail11MessageTypeE4EEEEEEENS0_30MemoryResourceAllocationPolicyES7_E17GetCmifBaseObjectEv = 0x000bd304;
_ZN2nn2sf4cmif6client34CmifDomainProxyClientCoreProcessorINS0_4hipc6client38Hipc2ClientSessionManagedProxyKindBaseINS5_18Hipc2ProxyKindBaseILNS4_6detail11MessageTypeE4EEEEENS1_6detail14CoreMethodInfoINSt3__15tupleIJNSC_21OutObjectArgumentInfoILi0ELi0EEENSC_17InRawArgumentInfoILm8ELm8ELl0EEENSC_20InHandleArgumentInfoILi0ELi1EEEEEELm8ELm0ELb1EEESM_E21ProcessWithOutObjectsEPNS2_23CmifDomainClientMessageISB_E15ProxyBaseObjectENS2_27OutObjectClientArgumentTypeENS2_23InRawClientArgumentTypeILm8ELm8EvEENS2_26InHandleClientArgumentTypeEjPNS0_13SharedPointerINS0_14IServiceObjectEEE = 0x000bd30c;
_ZN2nn2sf4cmif6client32GetClientProcessorWithObjectBaseINS2_15CmifDomainProxyINS0_4hipc6client38Hipc2ClientSessionManagedProxyKindBaseINS6_18Hipc2ProxyKindBaseILNS5_6detail11MessageTypeE4EEEEEEEE14ObjectAssignerINS0_30MemoryResourceAllocationPolicyENS_14MemoryResourceEE14AllocateObjectINS_2am7service18ISystemAppletProxyEEEvi = 0x000bd510;
_ZN2nn2sf6detail38ObjectImplFactoryWithStatefulAllocatorINS0_4cmif6client16CmifProxyFactoryINS_2am7service18ISystemAppletProxyENS4_15CmifDomainProxyINS0_4hipc6client38Hipc2ClientSessionManagedProxyKindBaseINSB_18Hipc2ProxyKindBaseILNSA_6detail11MessageTypeE4EEEEEEENS0_30MemoryResourceAllocationPolicyEE13ServiceObjectESJ_E6Object12AddReferenceEv = 0x000bd5bc;
_ZN2nn2sf6detail38ObjectImplFactoryWithStatefulAllocatorINS0_4cmif6client16CmifProxyFactoryINS_2am7service18ISystemAppletProxyENS4_15CmifDomainProxyINS0_4hipc6client38Hipc2ClientSessionManagedProxyKindBaseINSB_18Hipc2ProxyKindBaseILNSA_6detail11MessageTypeE4EEEEEEENS0_30MemoryResourceAllocationPolicyEE13ServiceObjectESJ_E6Object7ReleaseEv = 0x000bd5c4;
_ZN2nn2sf4cmif6client6detail13CmifProxyImplINS_2am7service18IAppletProxyCommonENS2_15CmifDomainProxyINS0_4hipc6client38Hipc2ClientSessionManagedProxyKindBaseINSA_18Hipc2ProxyKindBaseILNS9_6detail11MessageTypeE4EEEEEEENS0_30MemoryResourceAllocationPolicyENS6_18ISystemAppletProxyEE12GetProxyInfoEv = 0x000bd61c;
_ZN2nn2sf4cmif6client6detail13CmifProxyImplINS_2am7service18IAppletProxyCommonENS2_15CmifDomainProxyINS0_4hipc6client38Hipc2ClientSessionManagedProxyKindBaseINSA_18Hipc2ProxyKindBaseILNS9_6detail11MessageTypeE4EEEEEEENS0_30MemoryResourceAllocationPolicyENS6_18ISystemAppletProxyEE32_nn_sf_sync_GetCommonStateGetterENS0_3OutINS0_13SharedPointerINS6_18ICommonStateGetterEEEvEE = 0x000bd624;
_ZN2nn2sf4cmif6client6detail13CmifProxyImplINS_2am7service18IAppletProxyCommonENS2_15CmifDomainProxyINS0_4hipc6client38Hipc2ClientSessionManagedProxyKindBaseINSA_18Hipc2ProxyKindBaseILNS9_6detail11MessageTypeE4EEEEEEENS0_30MemoryResourceAllocationPolicyENS6_18ISystemAppletProxyEE29_nn_sf_sync_GetSelfControllerENS0_3OutINS0_13SharedPointerINS6_15ISelfControllerEEEvEE = 0x000bd6b8;
_ZN2nn2sf4cmif6client6detail13CmifProxyImplINS_2am7service18IAppletProxyCommonENS2_15CmifDomainProxyINS0_4hipc6client38Hipc2ClientSessionManagedProxyKindBaseINSA_18Hipc2ProxyKindBaseILNS9_6detail11MessageTypeE4EEEEEEENS0_30MemoryResourceAllocationPolicyENS6_18ISystemAppletProxyEE31_nn_sf_sync_GetWindowControllerENS0_3OutINS0_13SharedPointerINS6_17IWindowControllerEEEvEE = 0x000bd74c;
_ZN2nn2sf4cmif6client6detail13CmifProxyImplINS_2am7service18IAppletProxyCommonENS2_15CmifDomainProxyINS0_4hipc6client38Hipc2ClientSessionManagedProxyKindBaseINSA_18Hipc2ProxyKindBaseILNS9_6detail11MessageTypeE4EEEEEEENS0_30MemoryResourceAllocationPolicyENS6_18ISystemAppletProxyEE30_nn_sf_sync_GetAudioControllerENS0_3OutINS0_13SharedPointerINS6_16IAudioControllerEEEvEE = 0x000bd7e0;
_ZN2nn2sf4cmif6client6detail13CmifProxyImplINS_2am7service18IAppletProxyCommonENS2_15CmifDomainProxyINS0_4hipc6client38Hipc2ClientSessionManagedProxyKindBaseINSA_18Hipc2ProxyKindBaseILNS9_6detail11MessageTypeE4EEEEEEENS0_30MemoryResourceAllocationPolicyENS6_18ISystemAppletProxyEE32_nn_sf_sync_GetDisplayControllerENS0_3OutINS0_13SharedPointerINS6_18IDisplayControllerEEEvEE = 0x000bd874;
_ZN2nn2sf4cmif6client6detail13CmifProxyImplINS_2am7service18IAppletProxyCommonENS2_15CmifDomainProxyINS0_4hipc6client38Hipc2ClientSessionManagedProxyKindBaseINSA_18Hipc2ProxyKindBaseILNS9_6detail11MessageTypeE4EEEEEEENS0_30MemoryResourceAllocationPolicyENS6_18ISystemAppletProxyEE29_nn_sf_sync_GetDebugFunctionsENS0_3OutINS0_13SharedPointerINS6_15IDebugFunctionsEEEvEE = 0x000bd908;
_ZN2nn2sf4cmif6client6detail13CmifProxyImplINS_2am7service21IStackableAppletProxyENS2_15CmifDomainProxyINS0_4hipc6client38Hipc2ClientSessionManagedProxyKindBaseINSA_18Hipc2ProxyKindBaseILNS9_6detail11MessageTypeE4EEEEEEENS0_30MemoryResourceAllocationPolicyENS6_18ISystemAppletProxyEE39_nn_sf_sync_GetProcessWindingControllerENS0_3OutINS0_13SharedPointerINS6_25IProcessWindingControllerEEEvEE = 0x000bd99c;
_ZN2nn2sf4cmif6client6detail13CmifProxyImplINS_2am7service21IStackableAppletProxyENS2_15CmifDomainProxyINS0_4hipc6client38Hipc2ClientSessionManagedProxyKindBaseINSA_18Hipc2ProxyKindBaseILNS9_6detail11MessageTypeE4EEEEEEENS0_30MemoryResourceAllocationPolicyENS6_18ISystemAppletProxyEE35_nn_sf_sync_GetLibraryAppletCreatorENS0_3OutINS0_13SharedPointerINS6_21ILibraryAppletCreatorEEEvEE = 0x000bda30;
_ZN2nn2sf4cmif6client6detail13CmifProxyImplINS_2am7service18ISystemAppletProxyENS2_15CmifDomainProxyINS0_4hipc6client38Hipc2ClientSessionManagedProxyKindBaseINSA_18Hipc2ProxyKindBaseILNS9_6detail11MessageTypeE4EEEEEEENS0_30MemoryResourceAllocationPolicyES7_E32_nn_sf_sync_GetHomeMenuFunctionsENS0_3OutINS0_13SharedPointerINS6_18IHomeMenuFunctionsEEEvEE = 0x000bdac4;
_ZN2nn2sf4cmif6client6detail13CmifProxyImplINS_2am7service18ISystemAppletProxyENS2_15CmifDomainProxyINS0_4hipc6client38Hipc2ClientSessionManagedProxyKindBaseINSA_18Hipc2ProxyKindBaseILNS9_6detail11MessageTypeE4EEEEEEENS0_30MemoryResourceAllocationPolicyES7_E36_nn_sf_sync_GetGlobalStateControllerENS0_3OutINS0_13SharedPointerINS6_22IGlobalStateControllerEEEvEE = 0x000bdb58;
_ZN2nn2sf4cmif6client6detail13CmifProxyImplINS_2am7service18ISystemAppletProxyENS2_15CmifDomainProxyINS0_4hipc6client38Hipc2ClientSessionManagedProxyKindBaseINSA_18Hipc2ProxyKindBaseILNS9_6detail11MessageTypeE4EEEEEEENS0_30MemoryResourceAllocationPolicyES7_E33_nn_sf_sync_GetApplicationCreatorENS0_3OutINS0_13SharedPointerINS6_19IApplicationCreatorEEEvEE = 0x000bdbec;
_ZN2nn2sf4cmif6client6detail13CmifProxyImplINS_2am7service18IAppletProxyCommonENS2_15CmifDomainProxyINS0_4hipc6client38Hipc2ClientSessionManagedProxyKindBaseINSA_18Hipc2ProxyKindBaseILNS9_6detail11MessageTypeE4EEEEEEENS0_30MemoryResourceAllocationPolicyENS6_18ISystemAppletProxyEE17GetCmifBaseObjectEv = 0x000bdc80;
_ZThn32_N2nn2sf4cmif6client6detail13CmifProxyImplINS_2am7service18IAppletProxyCommonENS2_15CmifDomainProxyINS0_4hipc6client38Hipc2ClientSessionManagedProxyKindBaseINSA_18Hipc2ProxyKindBaseILNS9_6detail11MessageTypeE4EEEEEEENS0_30MemoryResourceAllocationPolicyENS6_18ISystemAppletProxyEE17GetCmifBaseObjectEv = 0x000bdc90;
_ZN2nn2sf4cmif6client32GetClientProcessorWithObjectBaseINS2_15CmifDomainProxyINS0_4hipc6client38Hipc2ClientSessionManagedProxyKindBaseINS6_18Hipc2ProxyKindBaseILNS5_6detail11MessageTypeE4EEEEEEEE14ObjectAssignerINS0_30MemoryResourceAllocationPolicyENS_14MemoryResourceEE14AllocateObjectINS_2am7service18ICommonStateGetterEEEvi = 0x000bdc98;
_ZN2nn2sf6detail38ObjectImplFactoryWithStatefulAllocatorINS0_4cmif6client16CmifProxyFactoryINS_2am7service18ICommonStateGetterENS4_15CmifDomainProxyINS0_4hipc6client38Hipc2ClientSessionManagedProxyKindBaseINSB_18Hipc2ProxyKindBaseILNSA_6detail11MessageTypeE4EEEEEEENS0_30MemoryResourceAllocationPolicyEE13ServiceObjectESJ_E6Object12AddReferenceEv = 0x000bdd44;
_ZN2nn2sf6detail38ObjectImplFactoryWithStatefulAllocatorINS0_4cmif6client16CmifProxyFactoryINS_2am7service18ICommonStateGetterENS4_15CmifDomainProxyINS0_4hipc6client38Hipc2ClientSessionManagedProxyKindBaseINSB_18Hipc2ProxyKindBaseILNSA_6detail11MessageTypeE4EEEEEEENS0_30MemoryResourceAllocationPolicyEE13ServiceObjectESJ_E6Object7ReleaseEv = 0x000bdd4c;
_ZN2nn2sf4cmif6client6detail13CmifProxyImplINS_2am7service18ICommonStateGetterENS2_15CmifDomainProxyINS0_4hipc6client38Hipc2ClientSessionManagedProxyKindBaseINSA_18Hipc2ProxyKindBaseILNS9_6detail11MessageTypeE4EEEEEEENS0_30MemoryResourceAllocationPolicyES7_E12GetProxyInfoEv = 0x000bdda4;
_ZN2nn2sf4cmif6client6detail13CmifProxyImplINS_2am7service18ICommonStateGetterENS2_15CmifDomainProxyINS0_4hipc6client38Hipc2ClientSessionManagedProxyKindBaseINSA_18Hipc2ProxyKindBaseILNS9_6detail11MessageTypeE4EEEEEEENS0_30MemoryResourceAllocationPolicyES7_E26_nn_sf_sync_GetEventHandleENS0_3OutINS0_12NativeHandleEvEE = 0x000bddac;
_ZN2nn2sf4cmif6client6detail13CmifProxyImplINS_2am7service18ICommonStateGetterENS2_15CmifDomainProxyINS0_4hipc6client38Hipc2ClientSessionManagedProxyKindBaseINSA_18Hipc2ProxyKindBaseILNS9_6detail11MessageTypeE4EEEEEEENS0_30MemoryResourceAllocationPolicyES7_E26_nn_sf_sync_ReceiveMessageENS0_3OutINS5_13AppletMessageEvEE = 0x000bddcc;
_ZN2nn2sf4cmif6client6detail13CmifProxyImplINS_2am7service18ICommonStateGetterENS2_15CmifDomainProxyINS0_4hipc6client38Hipc2ClientSessionManagedProxyKindBaseINSA_18Hipc2ProxyKindBaseILNS9_6detail11MessageTypeE4EEEEEEENS0_30MemoryResourceAllocationPolicyES7_E29_nn_sf_sync_GetThisAppletKindENS0_3OutINS6_10AppletKindEvEE = 0x000bddec;
_ZN2nn2sf4cmif6client6detail13CmifProxyImplINS_2am7service18ICommonStateGetterENS2_15CmifDomainProxyINS0_4hipc6client38Hipc2ClientSessionManagedProxyKindBaseINSA_18Hipc2ProxyKindBaseILNS9_6detail11MessageTypeE4EEEEEEENS0_30MemoryResourceAllocationPolicyES7_E29_nn_sf_sync_AllowToEnterSleepEv = 0x000bde0c;
_ZN2nn2sf4cmif6client6detail13CmifProxyImplINS_2am7service18ICommonStateGetterENS2_15CmifDomainProxyINS0_4hipc6client38Hipc2ClientSessionManagedProxyKindBaseINSA_18Hipc2ProxyKindBaseILNS9_6detail11MessageTypeE4EEEEEEENS0_30MemoryResourceAllocationPolicyES7_E32_nn_sf_sync_DisallowToEnterSleepEv = 0x000bde2c;
_ZN2nn2sf4cmif6client6detail13CmifProxyImplINS_2am7service18ICommonStateGetterENS2_15CmifDomainProxyINS0_4hipc6client38Hipc2ClientSessionManagedProxyKindBaseINSA_18Hipc2ProxyKindBaseILNS9_6detail11MessageTypeE4EEEEEEENS0_30MemoryResourceAllocationPolicyES7_E28_nn_sf_sync_GetOperationModeENS0_3OutIhvEE = 0x000bde4c;
_ZN2nn2sf4cmif6client6detail13CmifProxyImplINS_2am7service18ICommonStateGetterENS2_15CmifDomainProxyINS0_4hipc6client38Hipc2ClientSessionManagedProxyKindBaseINSA_18Hipc2ProxyKindBaseILNS9_6detail11MessageTypeE4EEEEEEENS0_30MemoryResourceAllocationPolicyES7_E30_nn_sf_sync_GetPerformanceModeENS0_3OutIjvEE = 0x000bde6c;
_ZN2nn2sf4cmif6client6detail13CmifProxyImplINS_2am7service18ICommonStateGetterENS2_15CmifDomainProxyINS0_4hipc6client38Hipc2ClientSessionManagedProxyKindBaseINSA_18Hipc2ProxyKindBaseILNS9_6detail11MessageTypeE4EEEEEEENS0_30MemoryResourceAllocationPolicyES7_E27_nn_sf_sync_GetCradleStatusENS0_3OutIhvEE = 0x000bde8c;
_ZN2nn2sf4cmif6client6detail13CmifProxyImplINS_2am7service18ICommonStateGetterENS2_15CmifDomainProxyINS0_4hipc6client38Hipc2ClientSessionManagedProxyKindBaseINSA_18Hipc2ProxyKindBaseILNS9_6detail11MessageTypeE4EEEEEEENS0_30MemoryResourceAllocationPolicyES7_E23_nn_sf_sync_GetBootModeENS0_3OutIhvEE = 0x000bdeac;
_ZN2nn2sf4cmif6client6detail13CmifProxyImplINS_2am7service18ICommonStateGetterENS2_15CmifDomainProxyINS0_4hipc6client38Hipc2ClientSessionManagedProxyKindBaseINSA_18Hipc2ProxyKindBaseILNS9_6detail11MessageTypeE4EEEEEEENS0_30MemoryResourceAllocationPolicyES7_E32_nn_sf_sync_GetCurrentFocusStateENS0_3OutIhvEE = 0x000bdecc;
_ZN2nn2sf4cmif6client6detail13CmifProxyImplINS_2am7service18ICommonStateGetterENS2_15CmifDomainProxyINS0_4hipc6client38Hipc2ClientSessionManagedProxyKindBaseINSA_18Hipc2ProxyKindBaseILNS9_6detail11MessageTypeE4EEEEEEENS0_30MemoryResourceAllocationPolicyES7_E37_nn_sf_sync_RequestToAcquireSleepLockEv = 0x000bdeec;
_ZN2nn2sf4cmif6client6detail13CmifProxyImplINS_2am7service18ICommonStateGetterENS2_15CmifDomainProxyINS0_4hipc6client38Hipc2ClientSessionManagedProxyKindBaseINSA_18Hipc2ProxyKindBaseILNS9_6detail11MessageTypeE4EEEEEEENS0_30MemoryResourceAllocationPolicyES7_E28_nn_sf_sync_ReleaseSleepLockEv = 0x000bdf0c;
_ZN2nn2sf4cmif6client6detail13CmifProxyImplINS_2am7service18ICommonStateGetterENS2_15CmifDomainProxyINS0_4hipc6client38Hipc2ClientSessionManagedProxyKindBaseINSA_18Hipc2ProxyKindBaseILNS9_6detail11MessageTypeE4EEEEEEENS0_30MemoryResourceAllocationPolicyES7_E39_nn_sf_sync_ReleaseSleepLockTransientlyEv = 0x000bdf2c;
_ZN2nn2sf4cmif6client6detail13CmifProxyImplINS_2am7service18ICommonStateGetterENS2_15CmifDomainProxyINS0_4hipc6client38Hipc2ClientSessionManagedProxyKindBaseINSA_18Hipc2ProxyKindBaseILNS9_6detail11MessageTypeE4EEEEEEENS0_30MemoryResourceAllocationPolicyES7_E37_nn_sf_sync_GetAcquiredSleepLockEventENS0_3OutINS0_12NativeHandleEvEE = 0x000bdf4c;
_ZN2nn2sf4cmif6client6detail13CmifProxyImplINS_2am7service18ICommonStateGetterENS2_15CmifDomainProxyINS0_4hipc6client38Hipc2ClientSessionManagedProxyKindBaseINSA_18Hipc2ProxyKindBaseILNS9_6detail11MessageTypeE4EEEEEEENS0_30MemoryResourceAllocationPolicyES7_E32_nn_sf_sync_PushToGeneralChannelENS0_13SharedPointerINS6_8IStorageEEE = 0x000bdf6c;
_ZN2nn2sf4cmif6client6detail13CmifProxyImplINS_2am7service18ICommonStateGetterENS2_15CmifDomainProxyINS0_4hipc6client38Hipc2ClientSessionManagedProxyKindBaseINSA_18Hipc2ProxyKindBaseILNS9_6detail11MessageTypeE4EEEEEEENS0_30MemoryResourceAllocationPolicyES7_E43_nn_sf_sync_GetHomeButtonReaderLockAccessorENS0_3OutINS0_13SharedPointerINS6_13ILockAccessorEEEvEE = 0x000bdfb8;
_ZN2nn2sf4cmif6client6detail13CmifProxyImplINS_2am7service18ICommonStateGetterENS2_15CmifDomainProxyINS0_4hipc6client38Hipc2ClientSessionManagedProxyKindBaseINSA_18Hipc2ProxyKindBaseILNS9_6detail11MessageTypeE4EEEEEEENS0_30MemoryResourceAllocationPolicyES7_E35_nn_sf_sync_GetReaderLockAccessorExENS0_3OutINS0_13SharedPointerINS6_13ILockAccessorEEEvEEi = 0x000be04c;
_ZN2nn2sf4cmif6client6detail13CmifProxyImplINS_2am7service18ICommonStateGetterENS2_15CmifDomainProxyINS0_4hipc6client38Hipc2ClientSessionManagedProxyKindBaseINSA_18Hipc2ProxyKindBaseILNS9_6detail11MessageTypeE4EEEEEEENS0_30MemoryResourceAllocationPolicyES7_E30_nn_sf_sync_GetCradleFwVersionENS0_3OutIjvEESL_SL_SL_ = 0x000be0e4;
_ZN2nn2sf4cmif6client6detail13CmifProxyImplINS_2am7service18ICommonStateGetterENS2_15CmifDomainProxyINS0_4hipc6client38Hipc2ClientSessionManagedProxyKindBaseINSA_18Hipc2ProxyKindBaseILNS9_6detail11MessageTypeE4EEEEEEENS0_30MemoryResourceAllocationPolicyES7_E27_nn_sf_sync_IsVrModeEnabledENS0_3OutIbvEE = 0x000be104;
_ZN2nn2sf4cmif6client6detail13CmifProxyImplINS_2am7service18ICommonStateGetterENS2_15CmifDomainProxyINS0_4hipc6client38Hipc2ClientSessionManagedProxyKindBaseINSA_18Hipc2ProxyKindBaseILNS9_6detail11MessageTypeE4EEEEEEENS0_30MemoryResourceAllocationPolicyES7_E28_nn_sf_sync_SetVrModeEnabledEb = 0x000be124;
_ZN2nn2sf4cmif6client6detail13CmifProxyImplINS_2am7service18ICommonStateGetterENS2_15CmifDomainProxyINS0_4hipc6client38Hipc2ClientSessionManagedProxyKindBaseINSA_18Hipc2ProxyKindBaseILNS9_6detail11MessageTypeE4EEEEEEENS0_30MemoryResourceAllocationPolicyES7_E47_nn_sf_sync_IsInControllerFirmwareUpdateSectionENS0_3OutIbvEE = 0x000be148;
_ZN2nn2sf4cmif6client6detail13CmifProxyImplINS_2am7service18ICommonStateGetterENS2_15CmifDomainProxyINS0_4hipc6client38Hipc2ClientSessionManagedProxyKindBaseINSA_18Hipc2ProxyKindBaseILNS9_6detail11MessageTypeE4EEEEEEENS0_30MemoryResourceAllocationPolicyES7_E39_nn_sf_sync_GetDefaultDisplayResolutionENS0_3OutIivEESL_ = 0x000be168;
_ZN2nn2sf4cmif6client6detail13CmifProxyImplINS_2am7service18ICommonStateGetterENS2_15CmifDomainProxyINS0_4hipc6client38Hipc2ClientSessionManagedProxyKindBaseINSA_18Hipc2ProxyKindBaseILNS9_6detail11MessageTypeE4EEEEEEENS0_30MemoryResourceAllocationPolicyES7_E50_nn_sf_sync_GetDefaultDisplayResolutionChangeEventENS0_3OutINS0_12NativeHandleEvEE = 0x000be188;
_ZN2nn2sf4cmif6client6detail13CmifProxyImplINS_2am7service18ICommonStateGetterENS2_15CmifDomainProxyINS0_4hipc6client38Hipc2ClientSessionManagedProxyKindBaseINSA_18Hipc2ProxyKindBaseILNS9_6detail11MessageTypeE4EEEEEEENS0_30MemoryResourceAllocationPolicyES7_E17GetCmifBaseObjectEv = 0x000be1a8;
_ZThn32_N2nn2sf4cmif6client6detail13CmifProxyImplINS_2am7service18ICommonStateGetterENS2_15CmifDomainProxyINS0_4hipc6client38Hipc2ClientSessionManagedProxyKindBaseINSA_18Hipc2ProxyKindBaseILNS9_6detail11MessageTypeE4EEEEEEENS0_30MemoryResourceAllocationPolicyES7_E17GetCmifBaseObjectEv = 0x000be1b8;
_ZN2nn2sf4cmif6client34CmifDomainProxyClientCoreProcessorINS0_4hipc6client38Hipc2ClientSessionManagedProxyKindBaseINS5_18Hipc2ProxyKindBaseILNS4_6detail11MessageTypeE4EEEEENS1_6detail14CoreMethodInfoINSt3__15tupleIJNSC_18OutRawArgumentInfoILm8ELm4ELl0EEEEEELm0ELm8ELb0EEESI_E7ProcessEPNS2_23CmifDomainClientMessageISB_E15ProxyBaseObjectENS2_24OutRawClientArgumentTypeILm8ELm4EEEj = 0x000be1c0;
_ZN2nn2sf4cmif6client34CmifDomainProxyClientCoreProcessorINS0_4hipc6client38Hipc2ClientSessionManagedProxyKindBaseINS5_18Hipc2ProxyKindBaseILNS4_6detail11MessageTypeE4EEEEENS1_6detail14CoreMethodInfoINSt3__15tupleIJNSC_20InObjectArgumentInfoILi0ELi0EEEEEELm0ELm0ELb0EEESI_E7ProcessEPNS2_23CmifDomainClientMessageISB_E15ProxyBaseObjectENS2_26InObjectClientArgumentTypeEj = 0x000be308;
_ZN2nn2sf4cmif6client32GetClientProcessorWithObjectBaseINS2_15CmifDomainProxyINS0_4hipc6client38Hipc2ClientSessionManagedProxyKindBaseINS6_18Hipc2ProxyKindBaseILNS5_6detail11MessageTypeE4EEEEEEEE14ObjectAssignerINS0_30MemoryResourceAllocationPolicyENS_14MemoryResourceEE14AllocateObjectINS_2am7service13ILockAccessorEEEvi = 0x000be460;
_ZN2nn2sf6detail38ObjectImplFactoryWithStatefulAllocatorINS0_4cmif6client16CmifProxyFactoryINS_2am7service13ILockAccessorENS4_15CmifDomainProxyINS0_4hipc6client38Hipc2ClientSessionManagedProxyKindBaseINSB_18Hipc2ProxyKindBaseILNSA_6detail11MessageTypeE4EEEEEEENS0_30MemoryResourceAllocationPolicyEE13ServiceObjectESJ_E6Object12AddReferenceEv = 0x000be50c;
_ZN2nn2sf6detail38ObjectImplFactoryWithStatefulAllocatorINS0_4cmif6client16CmifProxyFactoryINS_2am7service13ILockAccessorENS4_15CmifDomainProxyINS0_4hipc6client38Hipc2ClientSessionManagedProxyKindBaseINSB_18Hipc2ProxyKindBaseILNSA_6detail11MessageTypeE4EEEEEEENS0_30MemoryResourceAllocationPolicyEE13ServiceObjectESJ_E6Object7ReleaseEv = 0x000be514;
_ZN2nn2sf4cmif6client6detail13CmifProxyImplINS_2am7service13ILockAccessorENS2_15CmifDomainProxyINS0_4hipc6client38Hipc2ClientSessionManagedProxyKindBaseINSA_18Hipc2ProxyKindBaseILNS9_6detail11MessageTypeE4EEEEEEENS0_30MemoryResourceAllocationPolicyES7_E12GetProxyInfoEv = 0x000be56c;
_ZN2nn2sf4cmif6client6detail13CmifProxyImplINS_2am7service13ILockAccessorENS2_15CmifDomainProxyINS0_4hipc6client38Hipc2ClientSessionManagedProxyKindBaseINSA_18Hipc2ProxyKindBaseILNS9_6detail11MessageTypeE4EEEEEEENS0_30MemoryResourceAllocationPolicyES7_E19_nn_sf_sync_TryLockENS0_3OutIbvEENSK_INS0_12NativeHandleEvEEb = 0x000be574;
_ZN2nn2sf4cmif6client6detail13CmifProxyImplINS_2am7service13ILockAccessorENS2_15CmifDomainProxyINS0_4hipc6client38Hipc2ClientSessionManagedProxyKindBaseINSA_18Hipc2ProxyKindBaseILNS9_6detail11MessageTypeE4EEEEEEENS0_30MemoryResourceAllocationPolicyES7_E18_nn_sf_sync_UnlockEv = 0x000be598;
_ZN2nn2sf4cmif6client6detail13CmifProxyImplINS_2am7service13ILockAccessorENS2_15CmifDomainProxyINS0_4hipc6client38Hipc2ClientSessionManagedProxyKindBaseINSA_18Hipc2ProxyKindBaseILNS9_6detail11MessageTypeE4EEEEEEENS0_30MemoryResourceAllocationPolicyES7_E20_nn_sf_sync_GetEventENS0_3OutINS0_12NativeHandleEvEE = 0x000be5b8;
_ZN2nn2sf4cmif6client6detail13CmifProxyImplINS_2am7service13ILockAccessorENS2_15CmifDomainProxyINS0_4hipc6client38Hipc2ClientSessionManagedProxyKindBaseINSA_18Hipc2ProxyKindBaseILNS9_6detail11MessageTypeE4EEEEEEENS0_30MemoryResourceAllocationPolicyES7_E17GetCmifBaseObjectEv = 0x000be5d8;
_ZThn32_N2nn2sf4cmif6client6detail13CmifProxyImplINS_2am7service13ILockAccessorENS2_15CmifDomainProxyINS0_4hipc6client38Hipc2ClientSessionManagedProxyKindBaseINSA_18Hipc2ProxyKindBaseILNS9_6detail11MessageTypeE4EEEEEEENS0_30MemoryResourceAllocationPolicyES7_E17GetCmifBaseObjectEv = 0x000be5e8;
_ZN2nn2sf4cmif6client34CmifDomainProxyClientCoreProcessorINS0_4hipc6client38Hipc2ClientSessionManagedProxyKindBaseINS5_18Hipc2ProxyKindBaseILNS4_6detail11MessageTypeE4EEEEENS1_6detail14CoreMethodInfoINSt3__15tupleIJNSC_18OutRawArgumentInfoILm1ELm1ELl0EEENSC_21OutHandleArgumentInfoILi0ELi1EEENSC_17InRawArgumentInfoILm1ELm1ELl0EEEEEELm1ELm1ELb0EEESM_E7ProcessEPNS2_23CmifDomainClientMessageISB_E15ProxyBaseObjectENS2_24OutRawClientArgumentTypeILm1ELm1EEENS2_27OutHandleClientArgumentTypeENS2_23InRawClientArgumentTypeILm1ELm1EvEEj = 0x000be5f0;
_ZN2nn2sf4cmif6client34CmifDomainProxyClientCoreProcessorINS0_4hipc6client38Hipc2ClientSessionManagedProxyKindBaseINS5_18Hipc2ProxyKindBaseILNS4_6detail11MessageTypeE4EEEEENS1_6detail14CoreMethodInfoINSt3__15tupleIJNSC_18OutRawArgumentInfoILm4ELm4ELl0EEENSG_ILm4ELm4ELl4EEENSG_ILm4ELm4ELl8EEENSG_ILm4ELm4ELl12EEEEEELm0ELm16ELb0EEESL_E7ProcessEPNS2_23CmifDomainClientMessageISB_E15ProxyBaseObjectENS2_24OutRawClientArgumentTypeILm4ELm4EEEST_ST_ST_j = 0x000be7b0;
_ZN2nn2sf4cmif6client34CmifDomainProxyClientCoreProcessorINS0_4hipc6client38Hipc2ClientSessionManagedProxyKindBaseINS5_18Hipc2ProxyKindBaseILNS4_6detail11MessageTypeE4EEEEENS1_6detail14CoreMethodInfoINSt3__15tupleIJNSC_18OutRawArgumentInfoILm4ELm4ELl0EEENSG_ILm4ELm4ELl4EEEEEELm0ELm8ELb0EEESJ_E7ProcessEPNS2_23CmifDomainClientMessageISB_E15ProxyBaseObjectENS2_24OutRawClientArgumentTypeILm4ELm4EEESR_j = 0x000be92c;
_ZN2nn2sf4cmif6client32GetClientProcessorWithObjectBaseINS2_15CmifDomainProxyINS0_4hipc6client38Hipc2ClientSessionManagedProxyKindBaseINS6_18Hipc2ProxyKindBaseILNS5_6detail11MessageTypeE4EEEEEEEE14ObjectAssignerINS0_30MemoryResourceAllocationPolicyENS_14MemoryResourceEE14AllocateObjectINS_2am7service15ISelfControllerEEEvi = 0x000bea88;
_ZN2nn2sf6detail38ObjectImplFactoryWithStatefulAllocatorINS0_4cmif6client16CmifProxyFactoryINS_2am7service15ISelfControllerENS4_15CmifDomainProxyINS0_4hipc6client38Hipc2ClientSessionManagedProxyKindBaseINSB_18Hipc2ProxyKindBaseILNSA_6detail11MessageTypeE4EEEEEEENS0_30MemoryResourceAllocationPolicyEE13ServiceObjectESJ_E6Object12AddReferenceEv = 0x000beb34;
_ZN2nn2sf6detail38ObjectImplFactoryWithStatefulAllocatorINS0_4cmif6client16CmifProxyFactoryINS_2am7service15ISelfControllerENS4_15CmifDomainProxyINS0_4hipc6client38Hipc2ClientSessionManagedProxyKindBaseINSB_18Hipc2ProxyKindBaseILNSA_6detail11MessageTypeE4EEEEEEENS0_30MemoryResourceAllocationPolicyEE13ServiceObjectESJ_E6Object7ReleaseEv = 0x000beb3c;
_ZN2nn2sf4cmif6client6detail13CmifProxyImplINS_2am7service15ISelfControllerENS2_15CmifDomainProxyINS0_4hipc6client38Hipc2ClientSessionManagedProxyKindBaseINSA_18Hipc2ProxyKindBaseILNS9_6detail11MessageTypeE4EEEEEEENS0_30MemoryResourceAllocationPolicyES7_E12GetProxyInfoEv = 0x000beb94;
_ZN2nn2sf4cmif6client6detail13CmifProxyImplINS_2am7service15ISelfControllerENS2_15CmifDomainProxyINS0_4hipc6client38Hipc2ClientSessionManagedProxyKindBaseINSA_18Hipc2ProxyKindBaseILNS9_6detail11MessageTypeE4EEEEEEENS0_30MemoryResourceAllocationPolicyES7_E16_nn_sf_sync_ExitEv = 0x000beb9c;
_ZN2nn2sf4cmif6client6detail13CmifProxyImplINS_2am7service15ISelfControllerENS2_15CmifDomainProxyINS0_4hipc6client38Hipc2ClientSessionManagedProxyKindBaseINSA_18Hipc2ProxyKindBaseILNS9_6detail11MessageTypeE4EEEEEEENS0_30MemoryResourceAllocationPolicyES7_E20_nn_sf_sync_LockExitEv = 0x000bebbc;
_ZN2nn2sf4cmif6client6detail13CmifProxyImplINS_2am7service15ISelfControllerENS2_15CmifDomainProxyINS0_4hipc6client38Hipc2ClientSessionManagedProxyKindBaseINSA_18Hipc2ProxyKindBaseILNS9_6detail11MessageTypeE4EEEEEEENS0_30MemoryResourceAllocationPolicyES7_E22_nn_sf_sync_UnlockExitEv = 0x000bebdc;
_ZN2nn2sf4cmif6client6detail13CmifProxyImplINS_2am7service15ISelfControllerENS2_15CmifDomainProxyINS0_4hipc6client38Hipc2ClientSessionManagedProxyKindBaseINSA_18Hipc2ProxyKindBaseILNS9_6detail11MessageTypeE4EEEEEEENS0_30MemoryResourceAllocationPolicyES7_E29_nn_sf_sync_EnterFatalSectionEv = 0x000bebfc;
_ZN2nn2sf4cmif6client6detail13CmifProxyImplINS_2am7service15ISelfControllerENS2_15CmifDomainProxyINS0_4hipc6client38Hipc2ClientSessionManagedProxyKindBaseINSA_18Hipc2ProxyKindBaseILNS9_6detail11MessageTypeE4EEEEEEENS0_30MemoryResourceAllocationPolicyES7_E29_nn_sf_sync_LeaveFatalSectionEv = 0x000bec1c;
_ZN2nn2sf4cmif6client6detail13CmifProxyImplINS_2am7service15ISelfControllerENS2_15CmifDomainProxyINS0_4hipc6client38Hipc2ClientSessionManagedProxyKindBaseINSA_18Hipc2ProxyKindBaseILNS9_6detail11MessageTypeE4EEEEEEENS0_30MemoryResourceAllocationPolicyES7_E43_nn_sf_sync_GetLibraryAppletLaunchableEventENS0_3OutINS0_12NativeHandleEvEE = 0x000bec3c;
_ZN2nn2sf4cmif6client6detail13CmifProxyImplINS_2am7service15ISelfControllerENS2_15CmifDomainProxyINS0_4hipc6client38Hipc2ClientSessionManagedProxyKindBaseINSA_18Hipc2ProxyKindBaseILNS9_6detail11MessageTypeE4EEEEEEENS0_30MemoryResourceAllocationPolicyES7_E35_nn_sf_sync_SetScreenShotPermissionEi = 0x000bec5c;
_ZN2nn2sf4cmif6client6detail13CmifProxyImplINS_2am7service15ISelfControllerENS2_15CmifDomainProxyINS0_4hipc6client38Hipc2ClientSessionManagedProxyKindBaseINSA_18Hipc2ProxyKindBaseILNS9_6detail11MessageTypeE4EEEEEEENS0_30MemoryResourceAllocationPolicyES7_E47_nn_sf_sync_SetOperationModeChangedNotificationEb = 0x000bec80;
_ZN2nn2sf4cmif6client6detail13CmifProxyImplINS_2am7service15ISelfControllerENS2_15CmifDomainProxyINS0_4hipc6client38Hipc2ClientSessionManagedProxyKindBaseINSA_18Hipc2ProxyKindBaseILNS9_6detail11MessageTypeE4EEEEEEENS0_30MemoryResourceAllocationPolicyES7_E49_nn_sf_sync_SetPerformanceModeChangedNotificationEb = 0x000beca4;
_ZN2nn2sf4cmif6client6detail13CmifProxyImplINS_2am7service15ISelfControllerENS2_15CmifDomainProxyINS0_4hipc6client38Hipc2ClientSessionManagedProxyKindBaseINSA_18Hipc2ProxyKindBaseILNS9_6detail11MessageTypeE4EEEEEEENS0_30MemoryResourceAllocationPolicyES7_E32_nn_sf_sync_SetFocusHandlingModeEbbb = 0x000becc8;
_ZN2nn2sf4cmif6client6detail13CmifProxyImplINS_2am7service15ISelfControllerENS2_15CmifDomainProxyINS0_4hipc6client38Hipc2ClientSessionManagedProxyKindBaseINSA_18Hipc2ProxyKindBaseILNS9_6detail11MessageTypeE4EEEEEEENS0_30MemoryResourceAllocationPolicyES7_E36_nn_sf_sync_SetRestartMessageEnabledEb = 0x000becf4;
_ZN2nn2sf4cmif6client6detail13CmifProxyImplINS_2am7service15ISelfControllerENS2_15CmifDomainProxyINS0_4hipc6client38Hipc2ClientSessionManagedProxyKindBaseINSA_18Hipc2ProxyKindBaseILNS9_6detail11MessageTypeE4EEEEEEENS0_30MemoryResourceAllocationPolicyES7_E43_nn_sf_sync_SetScreenShotAppletIdentityInfoERKNS6_18AppletIdentityInfoE = 0x000bed18;
_ZN2nn2sf4cmif6client6detail13CmifProxyImplINS_2am7service15ISelfControllerENS2_15CmifDomainProxyINS0_4hipc6client38Hipc2ClientSessionManagedProxyKindBaseINSA_18Hipc2ProxyKindBaseILNS9_6detail11MessageTypeE4EEEEEEENS0_30MemoryResourceAllocationPolicyES7_E42_nn_sf_sync_SetOutOfFocusSuspendingEnabledEb = 0x000bed38;
_ZN2nn2sf4cmif6client6detail13CmifProxyImplINS_2am7service15ISelfControllerENS2_15CmifDomainProxyINS0_4hipc6client38Hipc2ClientSessionManagedProxyKindBaseINSA_18Hipc2ProxyKindBaseILNS9_6detail11MessageTypeE4EEEEEEENS0_30MemoryResourceAllocationPolicyES7_E46_nn_sf_sync_SetControllerFirmwareUpdateSectionEb = 0x000bed5c;
_ZN2nn2sf4cmif6client6detail13CmifProxyImplINS_2am7service15ISelfControllerENS2_15CmifDomainProxyINS0_4hipc6client38Hipc2ClientSessionManagedProxyKindBaseINSA_18Hipc2ProxyKindBaseILNS9_6detail11MessageTypeE4EEEEEEENS0_30MemoryResourceAllocationPolicyES7_E55_nn_sf_sync_SetRequiresCaptureButtonShortPressedMessageEb = 0x000bed80;
_ZN2nn2sf4cmif6client6detail13CmifProxyImplINS_2am7service15ISelfControllerENS2_15CmifDomainProxyINS0_4hipc6client38Hipc2ClientSessionManagedProxyKindBaseINSA_18Hipc2ProxyKindBaseILNS9_6detail11MessageTypeE4EEEEEEENS0_30MemoryResourceAllocationPolicyES7_E41_nn_sf_sync_SetScreenShotImageOrientationEi = 0x000beda4;
_ZN2nn2sf4cmif6client6detail13CmifProxyImplINS_2am7service15ISelfControllerENS2_15CmifDomainProxyINS0_4hipc6client38Hipc2ClientSessionManagedProxyKindBaseINSA_18Hipc2ProxyKindBaseILNS9_6detail11MessageTypeE4EEEEEEENS0_30MemoryResourceAllocationPolicyES7_E37_nn_sf_sync_CreateManagedDisplayLayerENS0_3OutImvEE = 0x000bedc8;
_ZN2nn2sf4cmif6client6detail13CmifProxyImplINS_2am7service15ISelfControllerENS2_15CmifDomainProxyINS0_4hipc6client38Hipc2ClientSessionManagedProxyKindBaseINSA_18Hipc2ProxyKindBaseILNS9_6detail11MessageTypeE4EEEEEEENS0_30MemoryResourceAllocationPolicyES7_E38_nn_sf_sync_SetHandlesRequestToDisplayEb = 0x000bede8;
_ZN2nn2sf4cmif6client6detail13CmifProxyImplINS_2am7service15ISelfControllerENS2_15CmifDomainProxyINS0_4hipc6client38Hipc2ClientSessionManagedProxyKindBaseINSA_18Hipc2ProxyKindBaseILNS9_6detail11MessageTypeE4EEEEEEENS0_30MemoryResourceAllocationPolicyES7_E28_nn_sf_sync_ApproveToDisplayEv = 0x000bee0c;
_ZN2nn2sf4cmif6client6detail13CmifProxyImplINS_2am7service15ISelfControllerENS2_15CmifDomainProxyINS0_4hipc6client38Hipc2ClientSessionManagedProxyKindBaseINSA_18Hipc2ProxyKindBaseILNS9_6detail11MessageTypeE4EEEEEEENS0_30MemoryResourceAllocationPolicyES7_E47_nn_sf_sync_OverrideAutoSleepTimeAndDimmingTimeEiiii = 0x000bee2c;
_ZN2nn2sf4cmif6client6detail13CmifProxyImplINS_2am7service15ISelfControllerENS2_15CmifDomainProxyINS0_4hipc6client38Hipc2ClientSessionManagedProxyKindBaseINSA_18Hipc2ProxyKindBaseILNS9_6detail11MessageTypeE4EEEEEEENS0_30MemoryResourceAllocationPolicyES7_E33_nn_sf_sync_SetMediaPlaybackStateEb = 0x000bee5c;
_ZN2nn2sf4cmif6client6detail13CmifProxyImplINS_2am7service15ISelfControllerENS2_15CmifDomainProxyINS0_4hipc6client38Hipc2ClientSessionManagedProxyKindBaseINSA_18Hipc2ProxyKindBaseILNS9_6detail11MessageTypeE4EEEEEEENS0_30MemoryResourceAllocationPolicyES7_E41_nn_sf_sync_SetIdleTimeDetectionExtensionEj = 0x000bee80;
_ZN2nn2sf4cmif6client6detail13CmifProxyImplINS_2am7service15ISelfControllerENS2_15CmifDomainProxyINS0_4hipc6client38Hipc2ClientSessionManagedProxyKindBaseINSA_18Hipc2ProxyKindBaseILNS9_6detail11MessageTypeE4EEEEEEENS0_30MemoryResourceAllocationPolicyES7_E41_nn_sf_sync_GetIdleTimeDetectionExtensionENS0_3OutIjvEE = 0x000beea4;
_ZN2nn2sf4cmif6client6detail13CmifProxyImplINS_2am7service15ISelfControllerENS2_15CmifDomainProxyINS0_4hipc6client38Hipc2ClientSessionManagedProxyKindBaseINSA_18Hipc2ProxyKindBaseILNS9_6detail11MessageTypeE4EEEEEEENS0_30MemoryResourceAllocationPolicyES7_E38_nn_sf_sync_SetInputDetectionSourceSetEj = 0x000beec4;
_ZN2nn2sf4cmif6client6detail13CmifProxyImplINS_2am7service15ISelfControllerENS2_15CmifDomainProxyINS0_4hipc6client38Hipc2ClientSessionManagedProxyKindBaseINSA_18Hipc2ProxyKindBaseILNS9_6detail11MessageTypeE4EEEEEEENS0_30MemoryResourceAllocationPolicyES7_E30_nn_sf_sync_ReportUserIsActiveEv = 0x000beee8;
_ZN2nn2sf4cmif6client6detail13CmifProxyImplINS_2am7service15ISelfControllerENS2_15CmifDomainProxyINS0_4hipc6client38Hipc2ClientSessionManagedProxyKindBaseINSA_18Hipc2ProxyKindBaseILNS9_6detail11MessageTypeE4EEEEEEENS0_30MemoryResourceAllocationPolicyES7_E33_nn_sf_sync_GetCurrentIlluminanceENS0_3OutIfvEE = 0x000bef08;
_ZN2nn2sf4cmif6client6detail13CmifProxyImplINS_2am7service15ISelfControllerENS2_15CmifDomainProxyINS0_4hipc6client38Hipc2ClientSessionManagedProxyKindBaseINSA_18Hipc2ProxyKindBaseILNS9_6detail11MessageTypeE4EEEEEEENS0_30MemoryResourceAllocationPolicyES7_E34_nn_sf_sync_IsIlluminanceAvailableENS0_3OutIbvEE = 0x000bef28;
_ZN2nn2sf4cmif6client6detail13CmifProxyImplINS_2am7service15ISelfControllerENS2_15CmifDomainProxyINS0_4hipc6client38Hipc2ClientSessionManagedProxyKindBaseINSA_18Hipc2ProxyKindBaseILNS9_6detail11MessageTypeE4EEEEEEENS0_30MemoryResourceAllocationPolicyES7_E17GetCmifBaseObjectEv = 0x000bef48;
_ZThn32_N2nn2sf4cmif6client6detail13CmifProxyImplINS_2am7service15ISelfControllerENS2_15CmifDomainProxyINS0_4hipc6client38Hipc2ClientSessionManagedProxyKindBaseINSA_18Hipc2ProxyKindBaseILNS9_6detail11MessageTypeE4EEEEEEENS0_30MemoryResourceAllocationPolicyES7_E17GetCmifBaseObjectEv = 0x000bef58;
_ZN2nn2sf4cmif6client34CmifDomainProxyClientCoreProcessorINS0_4hipc6client38Hipc2ClientSessionManagedProxyKindBaseINS5_18Hipc2ProxyKindBaseILNS4_6detail11MessageTypeE4EEEEENS1_6detail14CoreMethodInfoINSt3__15tupleIJNSC_17InRawArgumentInfoILm1ELm1ELl0EEENSG_ILm1ELm1ELl1EEENSG_ILm1ELm1ELl2EEEEEELm3ELm0ELb0EEESK_E7ProcessEPNS2_23CmifDomainClientMessageISB_E15ProxyBaseObjectENS2_23InRawClientArgumentTypeILm1ELm1EvEESS_SS_j = 0x000bef60;
_ZN2nn2sf4cmif6client34CmifDomainProxyClientCoreProcessorINS0_4hipc6client38Hipc2ClientSessionManagedProxyKindBaseINS5_18Hipc2ProxyKindBaseILNS4_6detail11MessageTypeE4EEEEENS1_6detail14CoreMethodInfoINSt3__15tupleIJNSC_17InRawArgumentInfoILm4ELm4ELl0EEENSG_ILm4ELm4ELl4EEENSG_ILm4ELm4ELl8EEENSG_ILm4ELm4ELl12EEEEEELm16ELm0ELb0EEESL_E7ProcessEPNS2_23CmifDomainClientMessageISB_E15ProxyBaseObjectENS2_23InRawClientArgumentTypeILm4ELm4EvEEST_ST_ST_j = 0x000bf0b4;
_ZN2nn2sf4cmif6client32GetClientProcessorWithObjectBaseINS2_15CmifDomainProxyINS0_4hipc6client38Hipc2ClientSessionManagedProxyKindBaseINS6_18Hipc2ProxyKindBaseILNS5_6detail11MessageTypeE4EEEEEEEE14ObjectAssignerINS0_30MemoryResourceAllocationPolicyENS_14MemoryResourceEE14AllocateObjectINS_2am7service17IWindowControllerEEEvi = 0x000bf210;
_ZN2nn2sf6detail38ObjectImplFactoryWithStatefulAllocatorINS0_4cmif6client16CmifProxyFactoryINS_2am7service17IWindowControllerENS4_15CmifDomainProxyINS0_4hipc6client38Hipc2ClientSessionManagedProxyKindBaseINSB_18Hipc2ProxyKindBaseILNSA_6detail11MessageTypeE4EEEEEEENS0_30MemoryResourceAllocationPolicyEE13ServiceObjectESJ_E6Object12AddReferenceEv = 0x000bf2bc;
_ZN2nn2sf6detail38ObjectImplFactoryWithStatefulAllocatorINS0_4cmif6client16CmifProxyFactoryINS_2am7service17IWindowControllerENS4_15CmifDomainProxyINS0_4hipc6client38Hipc2ClientSessionManagedProxyKindBaseINSB_18Hipc2ProxyKindBaseILNSA_6detail11MessageTypeE4EEEEEEENS0_30MemoryResourceAllocationPolicyEE13ServiceObjectESJ_E6Object7ReleaseEv = 0x000bf2c4;
_ZN2nn2sf4cmif6client6detail13CmifProxyImplINS_2am7service17IWindowControllerENS2_15CmifDomainProxyINS0_4hipc6client38Hipc2ClientSessionManagedProxyKindBaseINSA_18Hipc2ProxyKindBaseILNS9_6detail11MessageTypeE4EEEEEEENS0_30MemoryResourceAllocationPolicyES7_E12GetProxyInfoEv = 0x000bf31c;
_ZN2nn2sf4cmif6client6detail13CmifProxyImplINS_2am7service17IWindowControllerENS2_15CmifDomainProxyINS0_4hipc6client38Hipc2ClientSessionManagedProxyKindBaseINSA_18Hipc2ProxyKindBaseILNS9_6detail11MessageTypeE4EEEEEEENS0_30MemoryResourceAllocationPolicyES7_E24_nn_sf_sync_CreateWindowENS0_3OutINS0_13SharedPointerINS6_7IWindowEEEvEENS6_20WindowCreationOptionE = 0x000bf324;
_ZN2nn2sf4cmif6client6detail13CmifProxyImplINS_2am7service17IWindowControllerENS2_15CmifDomainProxyINS0_4hipc6client38Hipc2ClientSessionManagedProxyKindBaseINSA_18Hipc2ProxyKindBaseILNS9_6detail11MessageTypeE4EEEEEEENS0_30MemoryResourceAllocationPolicyES7_E35_nn_sf_sync_GetAppletResourceUserIdENS0_3OutINS_6applet20AppletResourceUserIdEvEE = 0x000bf3bc;
_ZN2nn2sf4cmif6client6detail13CmifProxyImplINS_2am7service17IWindowControllerENS2_15CmifDomainProxyINS0_4hipc6client38Hipc2ClientSessionManagedProxyKindBaseINSA_18Hipc2ProxyKindBaseILNS9_6detail11MessageTypeE4EEEEEEENS0_30MemoryResourceAllocationPolicyES7_E35_nn_sf_sync_AcquireForegroundRightsEv = 0x000bf3dc;
_ZN2nn2sf4cmif6client6detail13CmifProxyImplINS_2am7service17IWindowControllerENS2_15CmifDomainProxyINS0_4hipc6client38Hipc2ClientSessionManagedProxyKindBaseINSA_18Hipc2ProxyKindBaseILNS9_6detail11MessageTypeE4EEEEEEENS0_30MemoryResourceAllocationPolicyES7_E35_nn_sf_sync_ReleaseForegroundRightsEv = 0x000bf3fc;
_ZN2nn2sf4cmif6client6detail13CmifProxyImplINS_2am7service17IWindowControllerENS2_15CmifDomainProxyINS0_4hipc6client38Hipc2ClientSessionManagedProxyKindBaseINSA_18Hipc2ProxyKindBaseILNS9_6detail11MessageTypeE4EEEEEEENS0_30MemoryResourceAllocationPolicyES7_E40_nn_sf_sync_RejectToChangeIntoBackgroundEv = 0x000bf41c;
_ZN2nn2sf4cmif6client6detail13CmifProxyImplINS_2am7service17IWindowControllerENS2_15CmifDomainProxyINS0_4hipc6client38Hipc2ClientSessionManagedProxyKindBaseINSA_18Hipc2ProxyKindBaseILNS9_6detail11MessageTypeE4EEEEEEENS0_30MemoryResourceAllocationPolicyES7_E17GetCmifBaseObjectEv = 0x000bf43c;
_ZThn32_N2nn2sf4cmif6client6detail13CmifProxyImplINS_2am7service17IWindowControllerENS2_15CmifDomainProxyINS0_4hipc6client38Hipc2ClientSessionManagedProxyKindBaseINSA_18Hipc2ProxyKindBaseILNS9_6detail11MessageTypeE4EEEEEEENS0_30MemoryResourceAllocationPolicyES7_E17GetCmifBaseObjectEv = 0x000bf44c;
_ZN2nn2sf4cmif6client32GetClientProcessorWithObjectBaseINS2_15CmifDomainProxyINS0_4hipc6client38Hipc2ClientSessionManagedProxyKindBaseINS6_18Hipc2ProxyKindBaseILNS5_6detail11MessageTypeE4EEEEEEEE14ObjectAssignerINS0_30MemoryResourceAllocationPolicyENS_14MemoryResourceEE14AllocateObjectINS_2am7service7IWindowEEEvi = 0x000bf454;
_ZN2nn2sf6detail38ObjectImplFactoryWithStatefulAllocatorINS0_4cmif6client16CmifProxyFactoryINS_2am7service7IWindowENS4_15CmifDomainProxyINS0_4hipc6client38Hipc2ClientSessionManagedProxyKindBaseINSB_18Hipc2ProxyKindBaseILNSA_6detail11MessageTypeE4EEEEEEENS0_30MemoryResourceAllocationPolicyEE13ServiceObjectESJ_E6Object12AddReferenceEv = 0x000bf500;
_ZN2nn2sf6detail38ObjectImplFactoryWithStatefulAllocatorINS0_4cmif6client16CmifProxyFactoryINS_2am7service7IWindowENS4_15CmifDomainProxyINS0_4hipc6client38Hipc2ClientSessionManagedProxyKindBaseINSB_18Hipc2ProxyKindBaseILNSA_6detail11MessageTypeE4EEEEEEENS0_30MemoryResourceAllocationPolicyEE13ServiceObjectESJ_E6Object7ReleaseEv = 0x000bf508;
_ZN2nn2sf4cmif6client6detail13CmifProxyImplINS_2am7service7IWindowENS2_15CmifDomainProxyINS0_4hipc6client38Hipc2ClientSessionManagedProxyKindBaseINSA_18Hipc2ProxyKindBaseILNS9_6detail11MessageTypeE4EEEEEEENS0_30MemoryResourceAllocationPolicyES7_E12GetProxyInfoEv = 0x000bf560;
_ZN2nn2sf4cmif6client6detail13CmifProxyImplINS_2am7service7IWindowENS2_15CmifDomainProxyINS0_4hipc6client38Hipc2ClientSessionManagedProxyKindBaseINSA_18Hipc2ProxyKindBaseILNS9_6detail11MessageTypeE4EEEEEEENS0_30MemoryResourceAllocationPolicyES7_E17GetCmifBaseObjectEv = 0x000bf568;
_ZThn32_N2nn2sf4cmif6client6detail13CmifProxyImplINS_2am7service7IWindowENS2_15CmifDomainProxyINS0_4hipc6client38Hipc2ClientSessionManagedProxyKindBaseINSA_18Hipc2ProxyKindBaseILNS9_6detail11MessageTypeE4EEEEEEENS0_30MemoryResourceAllocationPolicyES7_E17GetCmifBaseObjectEv = 0x000bf578;
_ZN2nn2sf4cmif6client32GetClientProcessorWithObjectBaseINS2_15CmifDomainProxyINS0_4hipc6client38Hipc2ClientSessionManagedProxyKindBaseINS6_18Hipc2ProxyKindBaseILNS5_6detail11MessageTypeE4EEEEEEEE14ObjectAssignerINS0_30MemoryResourceAllocationPolicyENS_14MemoryResourceEE14AllocateObjectINS_2am7service16IAudioControllerEEEvi = 0x000bf580;
_ZN2nn2sf6detail38ObjectImplFactoryWithStatefulAllocatorINS0_4cmif6client16CmifProxyFactoryINS_2am7service16IAudioControllerENS4_15CmifDomainProxyINS0_4hipc6client38Hipc2ClientSessionManagedProxyKindBaseINSB_18Hipc2ProxyKindBaseILNSA_6detail11MessageTypeE4EEEEEEENS0_30MemoryResourceAllocationPolicyEE13ServiceObjectESJ_E6Object12AddReferenceEv = 0x000bf62c;
_ZN2nn2sf6detail38ObjectImplFactoryWithStatefulAllocatorINS0_4cmif6client16CmifProxyFactoryINS_2am7service16IAudioControllerENS4_15CmifDomainProxyINS0_4hipc6client38Hipc2ClientSessionManagedProxyKindBaseINSB_18Hipc2ProxyKindBaseILNSA_6detail11MessageTypeE4EEEEEEENS0_30MemoryResourceAllocationPolicyEE13ServiceObjectESJ_E6Object7ReleaseEv = 0x000bf634;
_ZN2nn2sf4cmif6client6detail13CmifProxyImplINS_2am7service16IAudioControllerENS2_15CmifDomainProxyINS0_4hipc6client38Hipc2ClientSessionManagedProxyKindBaseINSA_18Hipc2ProxyKindBaseILNS9_6detail11MessageTypeE4EEEEEEENS0_30MemoryResourceAllocationPolicyES7_E12GetProxyInfoEv = 0x000bf68c;
_ZN2nn2sf4cmif6client6detail13CmifProxyImplINS_2am7service16IAudioControllerENS2_15CmifDomainProxyINS0_4hipc6client38Hipc2ClientSessionManagedProxyKindBaseINSA_18Hipc2ProxyKindBaseILNS9_6detail11MessageTypeE4EEEEEEENS0_30MemoryResourceAllocationPolicyES7_E35_nn_sf_sync_SetExpectedMasterVolumeEff = 0x000bf694;
_ZN2nn2sf4cmif6client6detail13CmifProxyImplINS_2am7service16IAudioControllerENS2_15CmifDomainProxyINS0_4hipc6client38Hipc2ClientSessionManagedProxyKindBaseINSA_18Hipc2ProxyKindBaseILNS9_6detail11MessageTypeE4EEEEEEENS0_30MemoryResourceAllocationPolicyES7_E45_nn_sf_sync_GetMainAppletExpectedMasterVolumeENS0_3OutIfvEE = 0x000bf6bc;
_ZN2nn2sf4cmif6client6detail13CmifProxyImplINS_2am7service16IAudioControllerENS2_15CmifDomainProxyINS0_4hipc6client38Hipc2ClientSessionManagedProxyKindBaseINSA_18Hipc2ProxyKindBaseILNS9_6detail11MessageTypeE4EEEEEEENS0_30MemoryResourceAllocationPolicyES7_E48_nn_sf_sync_GetLibraryAppletExpectedMasterVolumeENS0_3OutIfvEE = 0x000bf6dc;
_ZN2nn2sf4cmif6client6detail13CmifProxyImplINS_2am7service16IAudioControllerENS2_15CmifDomainProxyINS0_4hipc6client38Hipc2ClientSessionManagedProxyKindBaseINSA_18Hipc2ProxyKindBaseILNS9_6detail11MessageTypeE4EEEEEEENS0_30MemoryResourceAllocationPolicyES7_E40_nn_sf_sync_ChangeMainAppletMasterVolumeEfl = 0x000bf6fc;
_ZN2nn2sf4cmif6client6detail13CmifProxyImplINS_2am7service16IAudioControllerENS2_15CmifDomainProxyINS0_4hipc6client38Hipc2ClientSessionManagedProxyKindBaseINSA_18Hipc2ProxyKindBaseILNS9_6detail11MessageTypeE4EEEEEEENS0_30MemoryResourceAllocationPolicyES7_E36_nn_sf_sync_SetTransparentVolumeRateEf = 0x000bf728;
_ZN2nn2sf4cmif6client6detail13CmifProxyImplINS_2am7service16IAudioControllerENS2_15CmifDomainProxyINS0_4hipc6client38Hipc2ClientSessionManagedProxyKindBaseINSA_18Hipc2ProxyKindBaseILNS9_6detail11MessageTypeE4EEEEEEENS0_30MemoryResourceAllocationPolicyES7_E17GetCmifBaseObjectEv = 0x000bf74c;
_ZThn32_N2nn2sf4cmif6client6detail13CmifProxyImplINS_2am7service16IAudioControllerENS2_15CmifDomainProxyINS0_4hipc6client38Hipc2ClientSessionManagedProxyKindBaseINSA_18Hipc2ProxyKindBaseILNS9_6detail11MessageTypeE4EEEEEEENS0_30MemoryResourceAllocationPolicyES7_E17GetCmifBaseObjectEv = 0x000bf75c;
_ZN2nn2sf4cmif6client34CmifDomainProxyClientCoreProcessorINS0_4hipc6client38Hipc2ClientSessionManagedProxyKindBaseINS5_18Hipc2ProxyKindBaseILNS4_6detail11MessageTypeE4EEEEENS1_6detail14CoreMethodInfoINSt3__15tupleIJNSC_17InRawArgumentInfoILm4ELm4ELl0EEENSG_ILm4ELm4ELl4EEEEEELm8ELm0ELb0EEESJ_E7ProcessEPNS2_23CmifDomainClientMessageISB_E15ProxyBaseObjectENS2_23InRawClientArgumentTypeILm4ELm4EvEESR_j = 0x000bf764;
_ZN2nn2sf4cmif6client32GetClientProcessorWithObjectBaseINS2_15CmifDomainProxyINS0_4hipc6client38Hipc2ClientSessionManagedProxyKindBaseINS6_18Hipc2ProxyKindBaseILNS5_6detail11MessageTypeE4EEEEEEEE14ObjectAssignerINS0_30MemoryResourceAllocationPolicyENS_14MemoryResourceEE14AllocateObjectINS_2am7service18IDisplayControllerEEEvi = 0x000bf8ac;
_ZN2nn2sf6detail38ObjectImplFactoryWithStatefulAllocatorINS0_4cmif6client16CmifProxyFactoryINS_2am7service18IDisplayControllerENS4_15CmifDomainProxyINS0_4hipc6client38Hipc2ClientSessionManagedProxyKindBaseINSB_18Hipc2ProxyKindBaseILNSA_6detail11MessageTypeE4EEEEEEENS0_30MemoryResourceAllocationPolicyEE13ServiceObjectESJ_E6Object12AddReferenceEv = 0x000bf958;
_ZN2nn2sf6detail38ObjectImplFactoryWithStatefulAllocatorINS0_4cmif6client16CmifProxyFactoryINS_2am7service18IDisplayControllerENS4_15CmifDomainProxyINS0_4hipc6client38Hipc2ClientSessionManagedProxyKindBaseINSB_18Hipc2ProxyKindBaseILNSA_6detail11MessageTypeE4EEEEEEENS0_30MemoryResourceAllocationPolicyEE13ServiceObjectESJ_E6Object7ReleaseEv = 0x000bf960;
_ZN2nn2sf4cmif6client6detail13CmifProxyImplINS_2am7service18IDisplayControllerENS2_15CmifDomainProxyINS0_4hipc6client38Hipc2ClientSessionManagedProxyKindBaseINSA_18Hipc2ProxyKindBaseILNS9_6detail11MessageTypeE4EEEEEEENS0_30MemoryResourceAllocationPolicyES7_E12GetProxyInfoEv = 0x000bf9b8;
_ZN2nn2sf4cmif6client6detail13CmifProxyImplINS_2am7service18IDisplayControllerENS2_15CmifDomainProxyINS0_4hipc6client38Hipc2ClientSessionManagedProxyKindBaseINSA_18Hipc2ProxyKindBaseILNS9_6detail11MessageTypeE4EEEEEEENS0_30MemoryResourceAllocationPolicyES7_E41_nn_sf_sync_GetLastForegroundCaptureImageERKNS0_9OutBufferE = 0x000bf9c0;
_ZN2nn2sf4cmif6client6detail13CmifProxyImplINS_2am7service18IDisplayControllerENS2_15CmifDomainProxyINS0_4hipc6client38Hipc2ClientSessionManagedProxyKindBaseINSA_18Hipc2ProxyKindBaseILNS9_6detail11MessageTypeE4EEEEEEENS0_30MemoryResourceAllocationPolicyES7_E44_nn_sf_sync_UpdateLastForegroundCaptureImageEv = 0x000bf9e8;
_ZN2nn2sf4cmif6client6detail13CmifProxyImplINS_2am7service18IDisplayControllerENS2_15CmifDomainProxyINS0_4hipc6client38Hipc2ClientSessionManagedProxyKindBaseINSA_18Hipc2ProxyKindBaseILNS9_6detail11MessageTypeE4EEEEEEENS0_30MemoryResourceAllocationPolicyES7_E42_nn_sf_sync_GetLastApplicationCaptureImageERKNS0_9OutBufferE = 0x000bfa08;
_ZN2nn2sf4cmif6client6detail13CmifProxyImplINS_2am7service18IDisplayControllerENS2_15CmifDomainProxyINS0_4hipc6client38Hipc2ClientSessionManagedProxyKindBaseINSA_18Hipc2ProxyKindBaseILNS9_6detail11MessageTypeE4EEEEEEENS0_30MemoryResourceAllocationPolicyES7_E39_nn_sf_sync_GetCallerAppletCaptureImageERKNS0_9OutBufferE = 0x000bfa30;
_ZN2nn2sf4cmif6client6detail13CmifProxyImplINS_2am7service18IDisplayControllerENS2_15CmifDomainProxyINS0_4hipc6client38Hipc2ClientSessionManagedProxyKindBaseINSA_18Hipc2ProxyKindBaseILNS9_6detail11MessageTypeE4EEEEEEENS0_30MemoryResourceAllocationPolicyES7_E42_nn_sf_sync_UpdateCallerAppletCaptureImageEv = 0x000bfa58;
_ZN2nn2sf4cmif6client6detail13CmifProxyImplINS_2am7service18IDisplayControllerENS2_15CmifDomainProxyINS0_4hipc6client38Hipc2ClientSessionManagedProxyKindBaseINSA_18Hipc2ProxyKindBaseILNS9_6detail11MessageTypeE4EEEEEEENS0_30MemoryResourceAllocationPolicyES7_E43_nn_sf_sync_GetLastForegroundCaptureImageExENS0_3OutIbvEERKNS0_9OutBufferE = 0x000bfa78;
_ZN2nn2sf4cmif6client6detail13CmifProxyImplINS_2am7service18IDisplayControllerENS2_15CmifDomainProxyINS0_4hipc6client38Hipc2ClientSessionManagedProxyKindBaseINSA_18Hipc2ProxyKindBaseILNS9_6detail11MessageTypeE4EEEEEEENS0_30MemoryResourceAllocationPolicyES7_E44_nn_sf_sync_GetLastApplicationCaptureImageExENS0_3OutIbvEERKNS0_9OutBufferE = 0x000bfaa0;
_ZN2nn2sf4cmif6client6detail13CmifProxyImplINS_2am7service18IDisplayControllerENS2_15CmifDomainProxyINS0_4hipc6client38Hipc2ClientSessionManagedProxyKindBaseINSA_18Hipc2ProxyKindBaseILNS9_6detail11MessageTypeE4EEEEEEENS0_30MemoryResourceAllocationPolicyES7_E41_nn_sf_sync_GetCallerAppletCaptureImageExENS0_3OutIbvEERKNS0_9OutBufferE = 0x000bfac8;
_ZN2nn2sf4cmif6client6detail13CmifProxyImplINS_2am7service18IDisplayControllerENS2_15CmifDomainProxyINS0_4hipc6client38Hipc2ClientSessionManagedProxyKindBaseINSA_18Hipc2ProxyKindBaseILNS9_6detail11MessageTypeE4EEEEEEENS0_30MemoryResourceAllocationPolicyES7_E36_nn_sf_sync_TakeScreenShotOfOwnLayerEib = 0x000bfaf0;
_ZN2nn2sf4cmif6client6detail13CmifProxyImplINS_2am7service18IDisplayControllerENS2_15CmifDomainProxyINS0_4hipc6client38Hipc2ClientSessionManagedProxyKindBaseINSA_18Hipc2ProxyKindBaseILNS9_6detail11MessageTypeE4EEEEEEENS0_30MemoryResourceAllocationPolicyES7_E47_nn_sf_sync_AcquireLastApplicationCaptureBufferENS0_3OutINS0_12NativeHandleEvEE = 0x000bfb18;
_ZN2nn2sf4cmif6client6detail13CmifProxyImplINS_2am7service18IDisplayControllerENS2_15CmifDomainProxyINS0_4hipc6client38Hipc2ClientSessionManagedProxyKindBaseINSA_18Hipc2ProxyKindBaseILNS9_6detail11MessageTypeE4EEEEEEENS0_30MemoryResourceAllocationPolicyES7_E47_nn_sf_sync_ReleaseLastApplicationCaptureBufferEv = 0x000bfb38;
_ZN2nn2sf4cmif6client6detail13CmifProxyImplINS_2am7service18IDisplayControllerENS2_15CmifDomainProxyINS0_4hipc6client38Hipc2ClientSessionManagedProxyKindBaseINSA_18Hipc2ProxyKindBaseILNS9_6detail11MessageTypeE4EEEEEEENS0_30MemoryResourceAllocationPolicyES7_E46_nn_sf_sync_AcquireLastForegroundCaptureBufferENS0_3OutINS0_12NativeHandleEvEE = 0x000bfb58;
_ZN2nn2sf4cmif6client6detail13CmifProxyImplINS_2am7service18IDisplayControllerENS2_15CmifDomainProxyINS0_4hipc6client38Hipc2ClientSessionManagedProxyKindBaseINSA_18Hipc2ProxyKindBaseILNS9_6detail11MessageTypeE4EEEEEEENS0_30MemoryResourceAllocationPolicyES7_E46_nn_sf_sync_ReleaseLastForegroundCaptureBufferEv = 0x000bfb78;
_ZN2nn2sf4cmif6client6detail13CmifProxyImplINS_2am7service18IDisplayControllerENS2_15CmifDomainProxyINS0_4hipc6client38Hipc2ClientSessionManagedProxyKindBaseINSA_18Hipc2ProxyKindBaseILNS9_6detail11MessageTypeE4EEEEEEENS0_30MemoryResourceAllocationPolicyES7_E44_nn_sf_sync_AcquireCallerAppletCaptureBufferENS0_3OutINS0_12NativeHandleEvEE = 0x000bfb98;
_ZN2nn2sf4cmif6client6detail13CmifProxyImplINS_2am7service18IDisplayControllerENS2_15CmifDomainProxyINS0_4hipc6client38Hipc2ClientSessionManagedProxyKindBaseINSA_18Hipc2ProxyKindBaseILNS9_6detail11MessageTypeE4EEEEEEENS0_30MemoryResourceAllocationPolicyES7_E44_nn_sf_sync_ReleaseCallerAppletCaptureBufferEv = 0x000bfbb8;
_ZN2nn2sf4cmif6client6detail13CmifProxyImplINS_2am7service18IDisplayControllerENS2_15CmifDomainProxyINS0_4hipc6client38Hipc2ClientSessionManagedProxyKindBaseINSA_18Hipc2ProxyKindBaseILNS9_6detail11MessageTypeE4EEEEEEENS0_30MemoryResourceAllocationPolicyES7_E49_nn_sf_sync_AcquireLastApplicationCaptureBufferExENS0_3OutIbvEENSK_INS0_12NativeHandleEvEE = 0x000bfbd8;
_ZN2nn2sf4cmif6client6detail13CmifProxyImplINS_2am7service18IDisplayControllerENS2_15CmifDomainProxyINS0_4hipc6client38Hipc2ClientSessionManagedProxyKindBaseINSA_18Hipc2ProxyKindBaseILNS9_6detail11MessageTypeE4EEEEEEENS0_30MemoryResourceAllocationPolicyES7_E48_nn_sf_sync_AcquireLastForegroundCaptureBufferExENS0_3OutIbvEENSK_INS0_12NativeHandleEvEE = 0x000bfbf8;
_ZN2nn2sf4cmif6client6detail13CmifProxyImplINS_2am7service18IDisplayControllerENS2_15CmifDomainProxyINS0_4hipc6client38Hipc2ClientSessionManagedProxyKindBaseINSA_18Hipc2ProxyKindBaseILNS9_6detail11MessageTypeE4EEEEEEENS0_30MemoryResourceAllocationPolicyES7_E46_nn_sf_sync_AcquireCallerAppletCaptureBufferExENS0_3OutIbvEENSK_INS0_12NativeHandleEvEE = 0x000bfc18;
_ZN2nn2sf4cmif6client6detail13CmifProxyImplINS_2am7service18IDisplayControllerENS2_15CmifDomainProxyINS0_4hipc6client38Hipc2ClientSessionManagedProxyKindBaseINSA_18Hipc2ProxyKindBaseILNS9_6detail11MessageTypeE4EEEEEEENS0_30MemoryResourceAllocationPolicyES7_E30_nn_sf_sync_ClearCaptureBufferEibj = 0x000bfc38;
_ZN2nn2sf4cmif6client6detail13CmifProxyImplINS_2am7service18IDisplayControllerENS2_15CmifDomainProxyINS0_4hipc6client38Hipc2ClientSessionManagedProxyKindBaseINSA_18Hipc2ProxyKindBaseILNS9_6detail11MessageTypeE4EEEEEEENS0_30MemoryResourceAllocationPolicyES7_E39_nn_sf_sync_ClearAppletTransitionBufferEj = 0x000bfc64;
_ZN2nn2sf4cmif6client6detail13CmifProxyImplINS_2am7service18IDisplayControllerENS2_15CmifDomainProxyINS0_4hipc6client38Hipc2ClientSessionManagedProxyKindBaseINSA_18Hipc2ProxyKindBaseILNS9_6detail11MessageTypeE4EEEEEEENS0_30MemoryResourceAllocationPolicyES7_E17GetCmifBaseObjectEv = 0x000bfc88;
_ZThn32_N2nn2sf4cmif6client6detail13CmifProxyImplINS_2am7service18IDisplayControllerENS2_15CmifDomainProxyINS0_4hipc6client38Hipc2ClientSessionManagedProxyKindBaseINSA_18Hipc2ProxyKindBaseILNS9_6detail11MessageTypeE4EEEEEEENS0_30MemoryResourceAllocationPolicyES7_E17GetCmifBaseObjectEv = 0x000bfc98;
_ZN2nn2sf4cmif6client34CmifDomainProxyClientCoreProcessorINS0_4hipc6client38Hipc2ClientSessionManagedProxyKindBaseINS5_18Hipc2ProxyKindBaseILNS4_6detail11MessageTypeE4EEEEENS1_6detail14CoreMethodInfoINSt3__15tupleIJNSC_18BufferArgumentInfoILi0ELi6ELm0EEEEEELm0ELm0ELb0EEESI_E7ProcessEPNS2_23CmifDomainClientMessageISB_E15ProxyBaseObjectENS2_24BufferClientArgumentTypeEj = 0x000bfca0;
_ZN2nn2sf4cmif6client34CmifDomainProxyClientCoreProcessorINS0_4hipc6client38Hipc2ClientSessionManagedProxyKindBaseINS5_18Hipc2ProxyKindBaseILNS4_6detail11MessageTypeE4EEEEENS1_6detail14CoreMethodInfoINSt3__15tupleIJNSC_18OutRawArgumentInfoILm1ELm1ELl0EEENSC_18BufferArgumentInfoILi0ELi6ELm0EEEEEELm0ELm1ELb0EEESK_E7ProcessEPNS2_23CmifDomainClientMessageISB_E15ProxyBaseObjectENS2_24OutRawClientArgumentTypeILm1ELm1EEENS2_24BufferClientArgumentTypeEj = 0x000bfe5c;
_ZN2nn2sf4cmif6client34CmifDomainProxyClientCoreProcessorINS0_4hipc6client38Hipc2ClientSessionManagedProxyKindBaseINS5_18Hipc2ProxyKindBaseILNS4_6detail11MessageTypeE4EEEEENS1_6detail14CoreMethodInfoINSt3__15tupleIJNSC_17InRawArgumentInfoILm4ELm4ELl4EEENSG_ILm1ELm1ELl0EEEEEELm8ELm0ELb0EEESJ_E7ProcessEPNS2_23CmifDomainClientMessageISB_E15ProxyBaseObjectENS2_23InRawClientArgumentTypeILm4ELm4EvEENSQ_ILm1ELm1EvEEj = 0x000c0034;
_ZN2nn2sf4cmif6client34CmifDomainProxyClientCoreProcessorINS0_4hipc6client38Hipc2ClientSessionManagedProxyKindBaseINS5_18Hipc2ProxyKindBaseILNS4_6detail11MessageTypeE4EEEEENS1_6detail14CoreMethodInfoINSt3__15tupleIJNSC_18OutRawArgumentInfoILm1ELm1ELl0EEENSC_21OutHandleArgumentInfoILi0ELi1EEEEEELm0ELm1ELb0EEESK_E7ProcessEPNS2_23CmifDomainClientMessageISB_E15ProxyBaseObjectENS2_24OutRawClientArgumentTypeILm1ELm1EEENS2_27OutHandleClientArgumentTypeEj = 0x000c0184;
_ZN2nn2sf4cmif6client34CmifDomainProxyClientCoreProcessorINS0_4hipc6client38Hipc2ClientSessionManagedProxyKindBaseINS5_18Hipc2ProxyKindBaseILNS4_6detail11MessageTypeE4EEEEENS1_6detail14CoreMethodInfoINSt3__15tupleIJNSC_17InRawArgumentInfoILm4ELm4ELl4EEENSG_ILm1ELm1ELl0EEENSG_ILm4ELm4ELl8EEEEEELm12ELm0ELb0EEESK_E7ProcessEPNS2_23CmifDomainClientMessageISB_E15ProxyBaseObjectENS2_23InRawClientArgumentTypeILm4ELm4EvEENSR_ILm1ELm1EvEESS_j = 0x000c033c;
_ZN2nn2sf4cmif6client32GetClientProcessorWithObjectBaseINS2_15CmifDomainProxyINS0_4hipc6client38Hipc2ClientSessionManagedProxyKindBaseINS6_18Hipc2ProxyKindBaseILNS5_6detail11MessageTypeE4EEEEEEEE14ObjectAssignerINS0_30MemoryResourceAllocationPolicyENS_14MemoryResourceEE14AllocateObjectINS_2am7service15IDebugFunctionsEEEvi = 0x000c0494;
_ZN2nn2sf6detail38ObjectImplFactoryWithStatefulAllocatorINS0_4cmif6client16CmifProxyFactoryINS_2am7service15IDebugFunctionsENS4_15CmifDomainProxyINS0_4hipc6client38Hipc2ClientSessionManagedProxyKindBaseINSB_18Hipc2ProxyKindBaseILNSA_6detail11MessageTypeE4EEEEEEENS0_30MemoryResourceAllocationPolicyEE13ServiceObjectESJ_E6Object12AddReferenceEv = 0x000c0540;
_ZN2nn2sf6detail38ObjectImplFactoryWithStatefulAllocatorINS0_4cmif6client16CmifProxyFactoryINS_2am7service15IDebugFunctionsENS4_15CmifDomainProxyINS0_4hipc6client38Hipc2ClientSessionManagedProxyKindBaseINSB_18Hipc2ProxyKindBaseILNSA_6detail11MessageTypeE4EEEEEEENS0_30MemoryResourceAllocationPolicyEE13ServiceObjectESJ_E6Object7ReleaseEv = 0x000c0548;
_ZN2nn2sf4cmif6client6detail13CmifProxyImplINS_2am7service15IDebugFunctionsENS2_15CmifDomainProxyINS0_4hipc6client38Hipc2ClientSessionManagedProxyKindBaseINSA_18Hipc2ProxyKindBaseILNS9_6detail11MessageTypeE4EEEEEEENS0_30MemoryResourceAllocationPolicyES7_E12GetProxyInfoEv = 0x000c05a0;
_ZN2nn2sf4cmif6client6detail13CmifProxyImplINS_2am7service15IDebugFunctionsENS2_15CmifDomainProxyINS0_4hipc6client38Hipc2ClientSessionManagedProxyKindBaseINSA_18Hipc2ProxyKindBaseILNS9_6detail11MessageTypeE4EEEEEEENS0_30MemoryResourceAllocationPolicyES7_E43_nn_sf_sync_NotifyMessageToHomeMenuForDebugENS5_13AppletMessageE = 0x000c05a8;
_ZN2nn2sf4cmif6client6detail13CmifProxyImplINS_2am7service15IDebugFunctionsENS2_15CmifDomainProxyINS0_4hipc6client38Hipc2ClientSessionManagedProxyKindBaseINSA_18Hipc2ProxyKindBaseILNS9_6detail11MessageTypeE4EEEEEEENS0_30MemoryResourceAllocationPolicyES7_E31_nn_sf_sync_OpenMainApplicationENS0_3OutINS0_13SharedPointerINS6_20IApplicationAccessorEEEvEE = 0x000c05cc;
_ZN2nn2sf4cmif6client6detail13CmifProxyImplINS_2am7service15IDebugFunctionsENS2_15CmifDomainProxyINS0_4hipc6client38Hipc2ClientSessionManagedProxyKindBaseINSA_18Hipc2ProxyKindBaseILNS9_6detail11MessageTypeE4EEEEEEENS0_30MemoryResourceAllocationPolicyES7_E30_nn_sf_sync_EmulateButtonEventENS6_19EmulatedButtonEventE = 0x000c0660;
_ZN2nn2sf4cmif6client6detail13CmifProxyImplINS_2am7service15IDebugFunctionsENS2_15CmifDomainProxyINS0_4hipc6client38Hipc2ClientSessionManagedProxyKindBaseINSA_18Hipc2ProxyKindBaseILNS9_6detail11MessageTypeE4EEEEEEENS0_30MemoryResourceAllocationPolicyES7_E37_nn_sf_sync_InvalidateTransitionLayerEv = 0x000c0684;
_ZN2nn2sf4cmif6client6detail13CmifProxyImplINS_2am7service15IDebugFunctionsENS2_15CmifDomainProxyINS0_4hipc6client38Hipc2ClientSessionManagedProxyKindBaseINSA_18Hipc2ProxyKindBaseILNS9_6detail11MessageTypeE4EEEEEEENS0_30MemoryResourceAllocationPolicyES7_E17GetCmifBaseObjectEv = 0x000c06a4;
_ZThn32_N2nn2sf4cmif6client6detail13CmifProxyImplINS_2am7service15IDebugFunctionsENS2_15CmifDomainProxyINS0_4hipc6client38Hipc2ClientSessionManagedProxyKindBaseINSA_18Hipc2ProxyKindBaseILNS9_6detail11MessageTypeE4EEEEEEENS0_30MemoryResourceAllocationPolicyES7_E17GetCmifBaseObjectEv = 0x000c06b4;
_ZN2nn2sf4cmif6client32GetClientProcessorWithObjectBaseINS2_15CmifDomainProxyINS0_4hipc6client38Hipc2ClientSessionManagedProxyKindBaseINS6_18Hipc2ProxyKindBaseILNS5_6detail11MessageTypeE4EEEEEEEE14ObjectAssignerINS0_30MemoryResourceAllocationPolicyENS_14MemoryResourceEE14AllocateObjectINS_2am7service20IApplicationAccessorEEEvi = 0x000c06bc;
_ZN2nn2sf6detail38ObjectImplFactoryWithStatefulAllocatorINS0_4cmif6client16CmifProxyFactoryINS_2am7service20IApplicationAccessorENS4_15CmifDomainProxyINS0_4hipc6client38Hipc2ClientSessionManagedProxyKindBaseINSB_18Hipc2ProxyKindBaseILNSA_6detail11MessageTypeE4EEEEEEENS0_30MemoryResourceAllocationPolicyEE13ServiceObjectESJ_E6Object12AddReferenceEv = 0x000c0768;
_ZN2nn2sf6detail38ObjectImplFactoryWithStatefulAllocatorINS0_4cmif6client16CmifProxyFactoryINS_2am7service20IApplicationAccessorENS4_15CmifDomainProxyINS0_4hipc6client38Hipc2ClientSessionManagedProxyKindBaseINSB_18Hipc2ProxyKindBaseILNSA_6detail11MessageTypeE4EEEEEEENS0_30MemoryResourceAllocationPolicyEE13ServiceObjectESJ_E6Object7ReleaseEv = 0x000c0770;
_ZN2nn2sf4cmif6client6detail13CmifProxyImplINS_2am7service15IAppletAccessorENS2_15CmifDomainProxyINS0_4hipc6client38Hipc2ClientSessionManagedProxyKindBaseINSA_18Hipc2ProxyKindBaseILNS9_6detail11MessageTypeE4EEEEEEENS0_30MemoryResourceAllocationPolicyENS6_20IApplicationAccessorEE12GetProxyInfoEv = 0x000c07c8;
_ZN2nn2sf4cmif6client6detail13CmifProxyImplINS_2am7service15IAppletAccessorENS2_15CmifDomainProxyINS0_4hipc6client38Hipc2ClientSessionManagedProxyKindBaseINSA_18Hipc2ProxyKindBaseILNS9_6detail11MessageTypeE4EEEEEEENS0_30MemoryResourceAllocationPolicyENS6_20IApplicationAccessorEE38_nn_sf_sync_GetIntegratedAppletPointerENS0_3OutINSt3__110shared_ptrINS6_16IntegratedAppletEEEvEE = 0x000c07d0;
_ZN2nn2sf4cmif6client6detail13CmifProxyImplINS_2am7service15IAppletAccessorENS2_15CmifDomainProxyINS0_4hipc6client38Hipc2ClientSessionManagedProxyKindBaseINSA_18Hipc2ProxyKindBaseILNS9_6detail11MessageTypeE4EEEEEEENS0_30MemoryResourceAllocationPolicyENS6_20IApplicationAccessorEE38_nn_sf_sync_GetAppletStateChangedEventENS0_3OutINS0_12NativeHandleEvEE = 0x000c07f0;
_ZN2nn2sf4cmif6client6detail13CmifProxyImplINS_2am7service15IAppletAccessorENS2_15CmifDomainProxyINS0_4hipc6client38Hipc2ClientSessionManagedProxyKindBaseINSA_18Hipc2ProxyKindBaseILNS9_6detail11MessageTypeE4EEEEEEENS0_30MemoryResourceAllocationPolicyENS6_20IApplicationAccessorEE23_nn_sf_sync_IsCompletedENS0_3OutIbvEE = 0x000c0810;
_ZN2nn2sf4cmif6client6detail13CmifProxyImplINS_2am7service15IAppletAccessorENS2_15CmifDomainProxyINS0_4hipc6client38Hipc2ClientSessionManagedProxyKindBaseINSA_18Hipc2ProxyKindBaseILNS9_6detail11MessageTypeE4EEEEEEENS0_30MemoryResourceAllocationPolicyENS6_20IApplicationAccessorEE17_nn_sf_sync_StartEv = 0x000c0830;
_ZN2nn2sf4cmif6client6detail13CmifProxyImplINS_2am7service15IAppletAccessorENS2_15CmifDomainProxyINS0_4hipc6client38Hipc2ClientSessionManagedProxyKindBaseINSA_18Hipc2ProxyKindBaseILNS9_6detail11MessageTypeE4EEEEEEENS0_30MemoryResourceAllocationPolicyENS6_20IApplicationAccessorEE23_nn_sf_sync_RequestExitEv = 0x000c0850;
_ZN2nn2sf4cmif6client6detail13CmifProxyImplINS_2am7service15IAppletAccessorENS2_15CmifDomainProxyINS0_4hipc6client38Hipc2ClientSessionManagedProxyKindBaseINSA_18Hipc2ProxyKindBaseILNS9_6detail11MessageTypeE4EEEEEEENS0_30MemoryResourceAllocationPolicyENS6_20IApplicationAccessorEE21_nn_sf_sync_TerminateEv = 0x000c0870;
_ZN2nn2sf4cmif6client6detail13CmifProxyImplINS_2am7service15IAppletAccessorENS2_15CmifDomainProxyINS0_4hipc6client38Hipc2ClientSessionManagedProxyKindBaseINSA_18Hipc2ProxyKindBaseILNS9_6detail11MessageTypeE4EEEEEEENS0_30MemoryResourceAllocationPolicyENS6_20IApplicationAccessorEE21_nn_sf_sync_GetResultEv = 0x000c0890;
_ZN2nn2sf4cmif6client6detail13CmifProxyImplINS_2am7service20IApplicationAccessorENS2_15CmifDomainProxyINS0_4hipc6client38Hipc2ClientSessionManagedProxyKindBaseINSA_18Hipc2ProxyKindBaseILNS9_6detail11MessageTypeE4EEEEEEENS0_30MemoryResourceAllocationPolicyES7_E48_nn_sf_sync_RequestForApplicationToGetForegroundEv = 0x000c08b0;
_ZN2nn2sf4cmif6client6detail13CmifProxyImplINS_2am7service20IApplicationAccessorENS2_15CmifDomainProxyINS0_4hipc6client38Hipc2ClientSessionManagedProxyKindBaseINSA_18Hipc2ProxyKindBaseILNS9_6detail11MessageTypeE4EEEEEEENS0_30MemoryResourceAllocationPolicyES7_E38_nn_sf_sync_TerminateAllLibraryAppletsEv = 0x000c08d0;
_ZN2nn2sf4cmif6client6detail13CmifProxyImplINS_2am7service20IApplicationAccessorENS2_15CmifDomainProxyINS0_4hipc6client38Hipc2ClientSessionManagedProxyKindBaseINSA_18Hipc2ProxyKindBaseILNS9_6detail11MessageTypeE4EEEEEEENS0_30MemoryResourceAllocationPolicyES7_E36_nn_sf_sync_AreAnyLibraryAppletsLeftENS0_3OutIbvEE = 0x000c08f0;
_ZN2nn2sf4cmif6client6detail13CmifProxyImplINS_2am7service20IApplicationAccessorENS2_15CmifDomainProxyINS0_4hipc6client38Hipc2ClientSessionManagedProxyKindBaseINSA_18Hipc2ProxyKindBaseILNS9_6detail11MessageTypeE4EEEEEEENS0_30MemoryResourceAllocationPolicyES7_E35_nn_sf_sync_GetCurrentLibraryAppletENS0_3OutINS0_13SharedPointerINS6_15IAppletAccessorEEEvEE = 0x000c0910;
_ZN2nn2sf4cmif6client6detail13CmifProxyImplINS_2am7service20IApplicationAccessorENS2_15CmifDomainProxyINS0_4hipc6client38Hipc2ClientSessionManagedProxyKindBaseINSA_18Hipc2ProxyKindBaseILNS9_6detail11MessageTypeE4EEEEEEENS0_30MemoryResourceAllocationPolicyES7_E28_nn_sf_sync_GetApplicationIdENS0_3OutINS_3ncm13ApplicationIdEvEE = 0x000c09a4;
_ZN2nn2sf4cmif6client6detail13CmifProxyImplINS_2am7service20IApplicationAccessorENS2_15CmifDomainProxyINS0_4hipc6client38Hipc2ClientSessionManagedProxyKindBaseINSA_18Hipc2ProxyKindBaseILNS9_6detail11MessageTypeE4EEEEEEENS0_30MemoryResourceAllocationPolicyES7_E31_nn_sf_sync_PushLaunchParameterEjNS0_13SharedPointerINS6_8IStorageEEE = 0x000c09c4;
_ZN2nn2sf4cmif6client6detail13CmifProxyImplINS_2am7service20IApplicationAccessorENS2_15CmifDomainProxyINS0_4hipc6client38Hipc2ClientSessionManagedProxyKindBaseINSA_18Hipc2ProxyKindBaseILNS9_6detail11MessageTypeE4EEEEEEENS0_30MemoryResourceAllocationPolicyES7_E41_nn_sf_sync_GetApplicationControlPropertyERKNS0_9OutBufferE = 0x000c0a14;
_ZN2nn2sf4cmif6client6detail13CmifProxyImplINS_2am7service20IApplicationAccessorENS2_15CmifDomainProxyINS0_4hipc6client38Hipc2ClientSessionManagedProxyKindBaseINSA_18Hipc2ProxyKindBaseILNS9_6detail11MessageTypeE4EEEEEEENS0_30MemoryResourceAllocationPolicyES7_E40_nn_sf_sync_GetApplicationLaunchPropertyERKNS0_9OutBufferE = 0x000c0a3c;
_ZN2nn2sf4cmif6client6detail13CmifProxyImplINS_2am7service15IAppletAccessorENS2_15CmifDomainProxyINS0_4hipc6client38Hipc2ClientSessionManagedProxyKindBaseINSA_18Hipc2ProxyKindBaseILNS9_6detail11MessageTypeE4EEEEEEENS0_30MemoryResourceAllocationPolicyENS6_20IApplicationAccessorEE17GetCmifBaseObjectEv = 0x000c0a64;
_ZThn32_N2nn2sf4cmif6client6detail13CmifProxyImplINS_2am7service15IAppletAccessorENS2_15CmifDomainProxyINS0_4hipc6client38Hipc2ClientSessionManagedProxyKindBaseINSA_18Hipc2ProxyKindBaseILNS9_6detail11MessageTypeE4EEEEEEENS0_30MemoryResourceAllocationPolicyENS6_20IApplicationAccessorEE17GetCmifBaseObjectEv = 0x000c0a74;
_ZN2nn2sf4cmif6client32GetClientProcessorWithObjectBaseINS2_15CmifDomainProxyINS0_4hipc6client38Hipc2ClientSessionManagedProxyKindBaseINS6_18Hipc2ProxyKindBaseILNS5_6detail11MessageTypeE4EEEEEEEE14ObjectAssignerINS0_30MemoryResourceAllocationPolicyENS_14MemoryResourceEE14AllocateObjectINS_2am7service15IAppletAccessorEEEvi = 0x000c0a7c;
_ZN2nn2sf6detail38ObjectImplFactoryWithStatefulAllocatorINS0_4cmif6client16CmifProxyFactoryINS_2am7service15IAppletAccessorENS4_15CmifDomainProxyINS0_4hipc6client38Hipc2ClientSessionManagedProxyKindBaseINSB_18Hipc2ProxyKindBaseILNSA_6detail11MessageTypeE4EEEEEEENS0_30MemoryResourceAllocationPolicyEE13ServiceObjectESJ_E6Object12AddReferenceEv = 0x000c0b28;
_ZN2nn2sf6detail38ObjectImplFactoryWithStatefulAllocatorINS0_4cmif6client16CmifProxyFactoryINS_2am7service15IAppletAccessorENS4_15CmifDomainProxyINS0_4hipc6client38Hipc2ClientSessionManagedProxyKindBaseINSB_18Hipc2ProxyKindBaseILNSA_6detail11MessageTypeE4EEEEEEENS0_30MemoryResourceAllocationPolicyEE13ServiceObjectESJ_E6Object7ReleaseEv = 0x000c0b30;
_ZN2nn2sf4cmif6client6detail13CmifProxyImplINS_2am7service15IAppletAccessorENS2_15CmifDomainProxyINS0_4hipc6client38Hipc2ClientSessionManagedProxyKindBaseINSA_18Hipc2ProxyKindBaseILNS9_6detail11MessageTypeE4EEEEEEENS0_30MemoryResourceAllocationPolicyES7_E12GetProxyInfoEv = 0x000c0b88;
_ZN2nn2sf4cmif6client6detail13CmifProxyImplINS_2am7service15IAppletAccessorENS2_15CmifDomainProxyINS0_4hipc6client38Hipc2ClientSessionManagedProxyKindBaseINSA_18Hipc2ProxyKindBaseILNS9_6detail11MessageTypeE4EEEEEEENS0_30MemoryResourceAllocationPolicyES7_E38_nn_sf_sync_GetIntegratedAppletPointerENS0_3OutINSt3__110shared_ptrINS6_16IntegratedAppletEEEvEE = 0x000c0b90;
_ZN2nn2sf4cmif6client6detail13CmifProxyImplINS_2am7service15IAppletAccessorENS2_15CmifDomainProxyINS0_4hipc6client38Hipc2ClientSessionManagedProxyKindBaseINSA_18Hipc2ProxyKindBaseILNS9_6detail11MessageTypeE4EEEEEEENS0_30MemoryResourceAllocationPolicyES7_E38_nn_sf_sync_GetAppletStateChangedEventENS0_3OutINS0_12NativeHandleEvEE = 0x000c0bb0;
_ZN2nn2sf4cmif6client6detail13CmifProxyImplINS_2am7service15IAppletAccessorENS2_15CmifDomainProxyINS0_4hipc6client38Hipc2ClientSessionManagedProxyKindBaseINSA_18Hipc2ProxyKindBaseILNS9_6detail11MessageTypeE4EEEEEEENS0_30MemoryResourceAllocationPolicyES7_E23_nn_sf_sync_IsCompletedENS0_3OutIbvEE = 0x000c0bd0;
_ZN2nn2sf4cmif6client6detail13CmifProxyImplINS_2am7service15IAppletAccessorENS2_15CmifDomainProxyINS0_4hipc6client38Hipc2ClientSessionManagedProxyKindBaseINSA_18Hipc2ProxyKindBaseILNS9_6detail11MessageTypeE4EEEEEEENS0_30MemoryResourceAllocationPolicyES7_E17_nn_sf_sync_StartEv = 0x000c0bf0;
_ZN2nn2sf4cmif6client6detail13CmifProxyImplINS_2am7service15IAppletAccessorENS2_15CmifDomainProxyINS0_4hipc6client38Hipc2ClientSessionManagedProxyKindBaseINSA_18Hipc2ProxyKindBaseILNS9_6detail11MessageTypeE4EEEEEEENS0_30MemoryResourceAllocationPolicyES7_E23_nn_sf_sync_RequestExitEv = 0x000c0c10;
_ZN2nn2sf4cmif6client6detail13CmifProxyImplINS_2am7service15IAppletAccessorENS2_15CmifDomainProxyINS0_4hipc6client38Hipc2ClientSessionManagedProxyKindBaseINSA_18Hipc2ProxyKindBaseILNS9_6detail11MessageTypeE4EEEEEEENS0_30MemoryResourceAllocationPolicyES7_E21_nn_sf_sync_TerminateEv = 0x000c0c30;
_ZN2nn2sf4cmif6client6detail13CmifProxyImplINS_2am7service15IAppletAccessorENS2_15CmifDomainProxyINS0_4hipc6client38Hipc2ClientSessionManagedProxyKindBaseINSA_18Hipc2ProxyKindBaseILNS9_6detail11MessageTypeE4EEEEEEENS0_30MemoryResourceAllocationPolicyES7_E21_nn_sf_sync_GetResultEv = 0x000c0c50;
_ZN2nn2sf4cmif6client6detail13CmifProxyImplINS_2am7service15IAppletAccessorENS2_15CmifDomainProxyINS0_4hipc6client38Hipc2ClientSessionManagedProxyKindBaseINSA_18Hipc2ProxyKindBaseILNS9_6detail11MessageTypeE4EEEEEEENS0_30MemoryResourceAllocationPolicyES7_E17GetCmifBaseObjectEv = 0x000c0c70;
_ZThn32_N2nn2sf4cmif6client6detail13CmifProxyImplINS_2am7service15IAppletAccessorENS2_15CmifDomainProxyINS0_4hipc6client38Hipc2ClientSessionManagedProxyKindBaseINSA_18Hipc2ProxyKindBaseILNS9_6detail11MessageTypeE4EEEEEEENS0_30MemoryResourceAllocationPolicyES7_E17GetCmifBaseObjectEv = 0x000c0c80;
_ZN2nn2sf4cmif6client34CmifDomainProxyClientCoreProcessorINS0_4hipc6client38Hipc2ClientSessionManagedProxyKindBaseINS5_18Hipc2ProxyKindBaseILNS4_6detail11MessageTypeE4EEEEENS1_6detail14CoreMethodInfoINSt3__15tupleIJNSC_17InRawArgumentInfoILm4ELm4ELl0EEENSC_20InObjectArgumentInfoILi0ELi0EEEEEELm4ELm0ELb0EEESK_E7ProcessEPNS2_23CmifDomainClientMessageISB_E15ProxyBaseObjectENS2_23InRawClientArgumentTypeILm4ELm4EvEENS2_26InObjectClientArgumentTypeEj = 0x000c0c88;
_ZN2nn2sf4cmif6client32GetClientProcessorWithObjectBaseINS2_15CmifDomainProxyINS0_4hipc6client38Hipc2ClientSessionManagedProxyKindBaseINS6_18Hipc2ProxyKindBaseILNS5_6detail11MessageTypeE4EEEEEEEE14ObjectAssignerINS0_30MemoryResourceAllocationPolicyENS_14MemoryResourceEE14AllocateObjectINS_2am7service25IProcessWindingControllerEEEvi = 0x000c0dec;
_ZN2nn2sf6detail38ObjectImplFactoryWithStatefulAllocatorINS0_4cmif6client16CmifProxyFactoryINS_2am7service25IProcessWindingControllerENS4_15CmifDomainProxyINS0_4hipc6client38Hipc2ClientSessionManagedProxyKindBaseINSB_18Hipc2ProxyKindBaseILNSA_6detail11MessageTypeE4EEEEEEENS0_30MemoryResourceAllocationPolicyEE13ServiceObjectESJ_E6Object12AddReferenceEv = 0x000c0e98;
_ZN2nn2sf6detail38ObjectImplFactoryWithStatefulAllocatorINS0_4cmif6client16CmifProxyFactoryINS_2am7service25IProcessWindingControllerENS4_15CmifDomainProxyINS0_4hipc6client38Hipc2ClientSessionManagedProxyKindBaseINSB_18Hipc2ProxyKindBaseILNSA_6detail11MessageTypeE4EEEEEEENS0_30MemoryResourceAllocationPolicyEE13ServiceObjectESJ_E6Object7ReleaseEv = 0x000c0ea0;
_ZN2nn2sf4cmif6client6detail13CmifProxyImplINS_2am7service25IProcessWindingControllerENS2_15CmifDomainProxyINS0_4hipc6client38Hipc2ClientSessionManagedProxyKindBaseINSA_18Hipc2ProxyKindBaseILNS9_6detail11MessageTypeE4EEEEEEENS0_30MemoryResourceAllocationPolicyES7_E12GetProxyInfoEv = 0x000c0ef8;
_ZN2nn2sf4cmif6client6detail13CmifProxyImplINS_2am7service25IProcessWindingControllerENS2_15CmifDomainProxyINS0_4hipc6client38Hipc2ClientSessionManagedProxyKindBaseINSA_18Hipc2ProxyKindBaseILNS9_6detail11MessageTypeE4EEEEEEENS0_30MemoryResourceAllocationPolicyES7_E27_nn_sf_sync_GetLaunchReasonENS0_3OutINS6_25AppletProcessLaunchReasonEvEE = 0x000c0f00;
_ZN2nn2sf4cmif6client6detail13CmifProxyImplINS_2am7service25IProcessWindingControllerENS2_15CmifDomainProxyINS0_4hipc6client38Hipc2ClientSessionManagedProxyKindBaseINSA_18Hipc2ProxyKindBaseILNS9_6detail11MessageTypeE4EEEEEEENS0_30MemoryResourceAllocationPolicyES7_E36_nn_sf_sync_OpenCallingLibraryAppletENS0_3OutINS0_13SharedPointerINS6_22ILibraryAppletAccessorEEEvEE = 0x000c0f20;
_ZN2nn2sf4cmif6client6detail13CmifProxyImplINS_2am7service25IProcessWindingControllerENS2_15CmifDomainProxyINS0_4hipc6client38Hipc2ClientSessionManagedProxyKindBaseINSA_18Hipc2ProxyKindBaseILNS9_6detail11MessageTypeE4EEEEEEENS0_30MemoryResourceAllocationPolicyES7_E23_nn_sf_sync_PushContextENS0_13SharedPointerINS6_8IStorageEEE = 0x000c0fb4;
_ZN2nn2sf4cmif6client6detail13CmifProxyImplINS_2am7service25IProcessWindingControllerENS2_15CmifDomainProxyINS0_4hipc6client38Hipc2ClientSessionManagedProxyKindBaseINSA_18Hipc2ProxyKindBaseILNS9_6detail11MessageTypeE4EEEEEEENS0_30MemoryResourceAllocationPolicyES7_E22_nn_sf_sync_PopContextENS0_3OutINS0_13SharedPointerINS6_8IStorageEEEvEE = 0x000c1000;
_ZN2nn2sf4cmif6client6detail13CmifProxyImplINS_2am7service25IProcessWindingControllerENS2_15CmifDomainProxyINS0_4hipc6client38Hipc2ClientSessionManagedProxyKindBaseINSA_18Hipc2ProxyKindBaseILNS9_6detail11MessageTypeE4EEEEEEENS0_30MemoryResourceAllocationPolicyES7_E36_nn_sf_sync_CancelWindingReservationEv = 0x000c1094;
_ZN2nn2sf4cmif6client6detail13CmifProxyImplINS_2am7service25IProcessWindingControllerENS2_15CmifDomainProxyINS0_4hipc6client38Hipc2ClientSessionManagedProxyKindBaseINSA_18Hipc2ProxyKindBaseILNS9_6detail11MessageTypeE4EEEEEEENS0_30MemoryResourceAllocationPolicyES7_E29_nn_sf_sync_WindAndDoReservedEv = 0x000c10b4;
_ZN2nn2sf4cmif6client6detail13CmifProxyImplINS_2am7service25IProcessWindingControllerENS2_15CmifDomainProxyINS0_4hipc6client38Hipc2ClientSessionManagedProxyKindBaseINSA_18Hipc2ProxyKindBaseILNS9_6detail11MessageTypeE4EEEEEEENS0_30MemoryResourceAllocationPolicyES7_E46_nn_sf_sync_ReserveToStartAndWaitAndUnwindThisENS0_13SharedPointerINS6_22ILibraryAppletAccessorEEE = 0x000c10d4;
_ZN2nn2sf4cmif6client6detail13CmifProxyImplINS_2am7service25IProcessWindingControllerENS2_15CmifDomainProxyINS0_4hipc6client38Hipc2ClientSessionManagedProxyKindBaseINSA_18Hipc2ProxyKindBaseILNS9_6detail11MessageTypeE4EEEEEEENS0_30MemoryResourceAllocationPolicyES7_E17GetCmifBaseObjectEv = 0x000c1120;
_ZThn32_N2nn2sf4cmif6client6detail13CmifProxyImplINS_2am7service25IProcessWindingControllerENS2_15CmifDomainProxyINS0_4hipc6client38Hipc2ClientSessionManagedProxyKindBaseINSA_18Hipc2ProxyKindBaseILNS9_6detail11MessageTypeE4EEEEEEENS0_30MemoryResourceAllocationPolicyES7_E17GetCmifBaseObjectEv = 0x000c1130;
_ZN2nn2sf4cmif6client34CmifDomainProxyClientCoreProcessorINS0_4hipc6client38Hipc2ClientSessionManagedProxyKindBaseINS5_18Hipc2ProxyKindBaseILNS4_6detail11MessageTypeE4EEEEENS1_6detail14CoreMethodInfoINSt3__15tupleIJNSC_18OutRawArgumentInfoILm4ELm1ELl0EEEEEELm0ELm4ELb0EEESI_E7ProcessEPNS2_23CmifDomainClientMessageISB_E15ProxyBaseObjectENS2_24OutRawClientArgumentTypeILm4ELm1EEEj = 0x000c1138;
_ZN2nn2sf4cmif6client32GetClientProcessorWithObjectBaseINS2_15CmifDomainProxyINS0_4hipc6client38Hipc2ClientSessionManagedProxyKindBaseINS6_18Hipc2ProxyKindBaseILNS5_6detail11MessageTypeE4EEEEEEEE14ObjectAssignerINS0_30MemoryResourceAllocationPolicyENS_14MemoryResourceEE14AllocateObjectINS_2am7service22ILibraryAppletAccessorEEEvi = 0x000c1280;
_ZN2nn2sf6detail38ObjectImplFactoryWithStatefulAllocatorINS0_4cmif6client16CmifProxyFactoryINS_2am7service22ILibraryAppletAccessorENS4_15CmifDomainProxyINS0_4hipc6client38Hipc2ClientSessionManagedProxyKindBaseINSB_18Hipc2ProxyKindBaseILNSA_6detail11MessageTypeE4EEEEEEENS0_30MemoryResourceAllocationPolicyEE13ServiceObjectESJ_E6Object12AddReferenceEv = 0x000c132c;
_ZN2nn2sf6detail38ObjectImplFactoryWithStatefulAllocatorINS0_4cmif6client16CmifProxyFactoryINS_2am7service22ILibraryAppletAccessorENS4_15CmifDomainProxyINS0_4hipc6client38Hipc2ClientSessionManagedProxyKindBaseINSB_18Hipc2ProxyKindBaseILNSA_6detail11MessageTypeE4EEEEEEENS0_30MemoryResourceAllocationPolicyEE13ServiceObjectESJ_E6Object7ReleaseEv = 0x000c1334;
_ZN2nn2sf4cmif6client6detail13CmifProxyImplINS_2am7service15IAppletAccessorENS2_15CmifDomainProxyINS0_4hipc6client38Hipc2ClientSessionManagedProxyKindBaseINSA_18Hipc2ProxyKindBaseILNS9_6detail11MessageTypeE4EEEEEEENS0_30MemoryResourceAllocationPolicyENS6_22ILibraryAppletAccessorEE12GetProxyInfoEv = 0x000c138c;
_ZN2nn2sf4cmif6client6detail13CmifProxyImplINS_2am7service15IAppletAccessorENS2_15CmifDomainProxyINS0_4hipc6client38Hipc2ClientSessionManagedProxyKindBaseINSA_18Hipc2ProxyKindBaseILNS9_6detail11MessageTypeE4EEEEEEENS0_30MemoryResourceAllocationPolicyENS6_22ILibraryAppletAccessorEE38_nn_sf_sync_GetIntegratedAppletPointerENS0_3OutINSt3__110shared_ptrINS6_16IntegratedAppletEEEvEE = 0x000c1394;
_ZN2nn2sf4cmif6client6detail13CmifProxyImplINS_2am7service15IAppletAccessorENS2_15CmifDomainProxyINS0_4hipc6client38Hipc2ClientSessionManagedProxyKindBaseINSA_18Hipc2ProxyKindBaseILNS9_6detail11MessageTypeE4EEEEEEENS0_30MemoryResourceAllocationPolicyENS6_22ILibraryAppletAccessorEE38_nn_sf_sync_GetAppletStateChangedEventENS0_3OutINS0_12NativeHandleEvEE = 0x000c13b4;
_ZN2nn2sf4cmif6client6detail13CmifProxyImplINS_2am7service15IAppletAccessorENS2_15CmifDomainProxyINS0_4hipc6client38Hipc2ClientSessionManagedProxyKindBaseINSA_18Hipc2ProxyKindBaseILNS9_6detail11MessageTypeE4EEEEEEENS0_30MemoryResourceAllocationPolicyENS6_22ILibraryAppletAccessorEE23_nn_sf_sync_IsCompletedENS0_3OutIbvEE = 0x000c13d4;
_ZN2nn2sf4cmif6client6detail13CmifProxyImplINS_2am7service15IAppletAccessorENS2_15CmifDomainProxyINS0_4hipc6client38Hipc2ClientSessionManagedProxyKindBaseINSA_18Hipc2ProxyKindBaseILNS9_6detail11MessageTypeE4EEEEEEENS0_30MemoryResourceAllocationPolicyENS6_22ILibraryAppletAccessorEE17_nn_sf_sync_StartEv = 0x000c13f4;
_ZN2nn2sf4cmif6client6detail13CmifProxyImplINS_2am7service15IAppletAccessorENS2_15CmifDomainProxyINS0_4hipc6client38Hipc2ClientSessionManagedProxyKindBaseINSA_18Hipc2ProxyKindBaseILNS9_6detail11MessageTypeE4EEEEEEENS0_30MemoryResourceAllocationPolicyENS6_22ILibraryAppletAccessorEE23_nn_sf_sync_RequestExitEv = 0x000c1414;
_ZN2nn2sf4cmif6client6detail13CmifProxyImplINS_2am7service15IAppletAccessorENS2_15CmifDomainProxyINS0_4hipc6client38Hipc2ClientSessionManagedProxyKindBaseINSA_18Hipc2ProxyKindBaseILNS9_6detail11MessageTypeE4EEEEEEENS0_30MemoryResourceAllocationPolicyENS6_22ILibraryAppletAccessorEE21_nn_sf_sync_TerminateEv = 0x000c1434;
_ZN2nn2sf4cmif6client6detail13CmifProxyImplINS_2am7service15IAppletAccessorENS2_15CmifDomainProxyINS0_4hipc6client38Hipc2ClientSessionManagedProxyKindBaseINSA_18Hipc2ProxyKindBaseILNS9_6detail11MessageTypeE4EEEEEEENS0_30MemoryResourceAllocationPolicyENS6_22ILibraryAppletAccessorEE21_nn_sf_sync_GetResultEv = 0x000c1454;
_ZN2nn2sf4cmif6client6detail13CmifProxyImplINS_2am7service22ILibraryAppletAccessorENS2_15CmifDomainProxyINS0_4hipc6client38Hipc2ClientSessionManagedProxyKindBaseINSA_18Hipc2ProxyKindBaseILNS9_6detail11MessageTypeE4EEEEEEENS0_30MemoryResourceAllocationPolicyES7_E53_nn_sf_sync_SetOutOfFocusApplicationSuspendingEnabledEb = 0x000c1474;
_ZN2nn2sf4cmif6client6detail13CmifProxyImplINS_2am7service22ILibraryAppletAccessorENS2_15CmifDomainProxyINS0_4hipc6client38Hipc2ClientSessionManagedProxyKindBaseINSA_18Hipc2ProxyKindBaseILNS9_6detail11MessageTypeE4EEEEEEENS0_30MemoryResourceAllocationPolicyES7_E22_nn_sf_sync_PushInDataENS0_13SharedPointerINS6_8IStorageEEE = 0x000c1498;
_ZN2nn2sf4cmif6client6detail13CmifProxyImplINS_2am7service22ILibraryAppletAccessorENS2_15CmifDomainProxyINS0_4hipc6client38Hipc2ClientSessionManagedProxyKindBaseINSA_18Hipc2ProxyKindBaseILNS9_6detail11MessageTypeE4EEEEEEENS0_30MemoryResourceAllocationPolicyES7_E22_nn_sf_sync_PopOutDataENS0_3OutINS0_13SharedPointerINS6_8IStorageEEEvEE = 0x000c14e4;
_ZN2nn2sf4cmif6client6detail13CmifProxyImplINS_2am7service22ILibraryAppletAccessorENS2_15CmifDomainProxyINS0_4hipc6client38Hipc2ClientSessionManagedProxyKindBaseINSA_18Hipc2ProxyKindBaseILNS9_6detail11MessageTypeE4EEEEEEENS0_30MemoryResourceAllocationPolicyES7_E28_nn_sf_sync_PushExtraStorageENS0_13SharedPointerINS6_8IStorageEEE = 0x000c1578;
_ZN2nn2sf4cmif6client6detail13CmifProxyImplINS_2am7service22ILibraryAppletAccessorENS2_15CmifDomainProxyINS0_4hipc6client38Hipc2ClientSessionManagedProxyKindBaseINSA_18Hipc2ProxyKindBaseILNS9_6detail11MessageTypeE4EEEEEEENS0_30MemoryResourceAllocationPolicyES7_E33_nn_sf_sync_PushInteractiveInDataENS0_13SharedPointerINS6_8IStorageEEE = 0x000c15c4;
_ZN2nn2sf4cmif6client6detail13CmifProxyImplINS_2am7service22ILibraryAppletAccessorENS2_15CmifDomainProxyINS0_4hipc6client38Hipc2ClientSessionManagedProxyKindBaseINSA_18Hipc2ProxyKindBaseILNS9_6detail11MessageTypeE4EEEEEEENS0_30MemoryResourceAllocationPolicyES7_E33_nn_sf_sync_PopInteractiveOutDataENS0_3OutINS0_13SharedPointerINS6_8IStorageEEEvEE = 0x000c1610;
_ZN2nn2sf4cmif6client6detail13CmifProxyImplINS_2am7service22ILibraryAppletAccessorENS2_15CmifDomainProxyINS0_4hipc6client38Hipc2ClientSessionManagedProxyKindBaseINSA_18Hipc2ProxyKindBaseILNS9_6detail11MessageTypeE4EEEEEEENS0_30MemoryResourceAllocationPolicyES7_E30_nn_sf_sync_GetPopOutDataEventENS0_3OutINS0_12NativeHandleEvEE = 0x000c16a4;
_ZN2nn2sf4cmif6client6detail13CmifProxyImplINS_2am7service22ILibraryAppletAccessorENS2_15CmifDomainProxyINS0_4hipc6client38Hipc2ClientSessionManagedProxyKindBaseINSA_18Hipc2ProxyKindBaseILNS9_6detail11MessageTypeE4EEEEEEENS0_30MemoryResourceAllocationPolicyES7_E41_nn_sf_sync_GetPopInteractiveOutDataEventENS0_3OutINS0_12NativeHandleEvEE = 0x000c16c4;
_ZN2nn2sf4cmif6client6detail13CmifProxyImplINS_2am7service22ILibraryAppletAccessorENS2_15CmifDomainProxyINS0_4hipc6client38Hipc2ClientSessionManagedProxyKindBaseINSA_18Hipc2ProxyKindBaseILNS9_6detail11MessageTypeE4EEEEEEENS0_30MemoryResourceAllocationPolicyES7_E30_nn_sf_sync_NeedsToExitProcessENS0_3OutIbvEE = 0x000c16e4;
